 zmq

 Timestamp is 56e1f92f (Thu Mar 10 19:46:07 2016)

 Preferred load address is 0000000180000000

 Start         Length     Name                   Class
 0001:00000000 000001dbH .text                   CODE
 0001:000001e0 00000287H .text$di                CODE
 0001:00000470 0001f237H .text$mn                CODE
 0001:0001f6b0 00000012H .text$mn$00             CODE
 0001:0001f6d0 00000270H .text$x                 CODE
 0001:0001f940 000001b3H .text$yd                CODE
 0002:00000000 00000270H .idata$5                DATA
 0002:00000270 00000010H .00cfg                  DATA
 0002:00000280 00000008H .CRT$XCA                DATA
 0002:00000288 00000048H .CRT$XCU                DATA
 0002:000002d0 00000008H .CRT$XCZ                DATA
 0002:000002d8 00000008H .CRT$XIA                DATA
 0002:000002e0 00000018H .CRT$XIC                DATA
 0002:000002f8 00000008H .CRT$XIZ                DATA
 0002:00000300 00000008H .CRT$XPA                DATA
 0002:00000308 00000010H .CRT$XPX                DATA
 0002:00000318 00000008H .CRT$XPXA               DATA
 0002:00000320 00000008H .CRT$XPZ                DATA
 0002:00000328 00000008H .CRT$XTA                DATA
 0002:00000330 00000008H .CRT$XTZ                DATA
 0002:00000340 00008fe4H .rdata                  DATA
 0002:00009328 0000037cH .rdata$r                DATA
 0002:000096a8 00000010H .rdata$zETW0            DATA
 0002:000096b8 00000077H .rdata$zETW1            DATA
 0002:0000972f 0000002cH .rdata$zETW2            DATA
 0002:0000975b 00000001H .rdata$zETW9            DATA
 0002:0000975c 0000047cH .rdata$zzzdbg           DATA
 0002:00009bd8 00000008H .rtc$IAA                DATA
 0002:00009be0 00000008H .rtc$IZZ                DATA
 0002:00009be8 00000008H .rtc$TAA                DATA
 0002:00009bf0 00000008H .rtc$TZZ                DATA
 0002:00009bf8 000016ecH .xdata                  DATA
 0002:0000b2e8 00000204H .xdata$x                DATA
 0002:0000b4ec 00000040H .didat$2                DATA
 0002:0000b52c 00000020H .didat$3                DATA
 0002:0000b550 00000418H .didat$4                DATA
 0002:0000b968 00001d62H .didat$6                DATA
 0002:0000d6d0 00000418H .didat$7                DATA
 0002:0000daf0 000045cfH .edata                  DATA
 0002:000120c0 00000028H .idata$2                DATA
 0002:000120e8 00000014H .idata$3                DATA
 0002:00012100 00000270H .idata$4                DATA
 0002:00012370 000005baH .idata$6                DATA
 0003:00000000 000009d8H .data                   DATA
 0003:000009d8 0000013fH .data$r                 DATA
 0003:00000b18 00000418H .didat$5                DATA
 0003:00000f30 00001158H .bss                    DATA
 0004:00000000 00001cc8H .pdata                  DATA
 0005:00000000 00000080H .gfids$x                DATA
 0005:00000080 00000050H .gfids$y                DATA
 0006:00000000 00000058H .rsrc$01                DATA
 0006:00000060 00000180H .rsrc$02                DATA

  Address         Publics by Value              Rva+Base               Lib:Object

 0000:00000000       __guard_longjmp_table      0000000000000000     <absolute>
 0000:00000000       __guard_fids_count         0000000000000000     <absolute>
 0000:00000000       ___safe_se_handler_table   0000000000000000     <absolute>
 0000:00000000       __guard_longjmp_count      0000000000000000     <absolute>
 0000:00000000       ___safe_se_handler_count   0000000000000000     <absolute>
 0000:00000000       __guard_fids_table         0000000000000000     <absolute>
 0000:00000000       __guard_iat_count          0000000000000000     <absolute>
 0000:00000000       __guard_iat_table          0000000000000000     <absolute>
 0000:00000100       __guard_flags              0000000000000100     <absolute>
 0000:00000000       __ImageBase                0000000180000000     <linker-defined>
 0001:00000000       ?TraceLoggingRegister@__vcrt_trace_logging_provider@@YAJPEBU_TlgProvider_t@1@PEBU_GUID@@P6AX1KE_K2PEAU_EVENT_FILTER_DESCRIPTOR@@PEAX@Z4@Z 0000000180001000 f i libvcruntime:telemetry.obj
 0001:0000007c       ?_TlgEnableCallback@__vcrt_trace_logging_provider@@YAXPEBU_GUID@@KE_K1PEAU_EVENT_FILTER_DESCRIPTOR@@PEAX@Z 000000018000107c f i libvcruntime:telemetry.obj
 0001:00000140       ?_TlgWrite@__vcrt_trace_logging_provider@@YAJPEBU_TlgProvider_t@1@PEFBXPEBU_GUID@@2IPEAU_EVENT_DATA_DESCRIPTOR@@@Z 0000000180001140 f i libvcruntime:telemetry.obj
 0001:00000470       __local_stdio_printf_options 0000000180001470 f i binding.obj
 0001:00000480       sprintf                    0000000180001480 f i binding.obj
 0001:000004e0       ??DUtf8Value@String@v8@@QEBAPEBDXZ 00000001800014e0 f i binding.obj
 0001:000004e0       ??DUtf8Value@String@v8@@QEAAPEADXZ 00000001800014e0 f i binding.obj
 0001:000004e0       ?GetIsolate@HandleScope@v8@@QEBAPEAVIsolate@2@XZ 00000001800014e0 f i binding.obj
 0001:000004e0       ?impl@StreamedSource@ScriptCompiler@v8@@QEBAPEAU1internal@3@XZ 00000001800014e0 f i binding.obj
 0001:000004e0       ?Data@Contents@ArrayBuffer@v8@@QEBAPEAXXZ 00000001800014e0 f i binding.obj
 0001:000004e0       ??DValue@String@v8@@QEAAPEAGXZ 00000001800014e0 f i binding.obj
 0001:000004e0       ?object_type@HeapObjectStatistics@v8@@QEAAPEBDXZ 00000001800014e0 f i binding.obj
 0001:000004e0       ?space_name@HeapSpaceStatistics@v8@@QEAAPEBDXZ 00000001800014e0 f i binding.obj
 0001:000004e0       ??DValue@String@v8@@QEBAPEBGXZ 00000001800014e0 f i binding.obj
 0001:000004e0       ?Data@Contents@SharedArrayBuffer@v8@@QEBAPEAXXZ 00000001800014e0 f i binding.obj
 0001:000004e0       ?total_heap_size@HeapStatistics@v8@@QEAA_KXZ 00000001800014e0 f i binding.obj
 0001:000004f0       ??4Array@v8@@QEAAAEAV01@AEBV01@@Z 00000001800014f0 f i binding.obj
 0001:000004f0       ??$?0V?$allocator@H@std@@@?$_Wrap_alloc@V?$allocator@U?$_Tree_node@HPEAX@std@@@std@@@std@@QEAA@AEBV?$allocator@H@1@@Z 00000001800014f0 f i binding.obj
 0001:000004f0       ?Cast@String@v8@@SAPEAV12@PEAVValue@2@@Z 00000001800014f0 f i binding.obj
 0001:000004f0       ??4Map@v8@@QEAAAEAV01@$$QEAV01@@Z 00000001800014f0 f i binding.obj
 0001:000004f0       ?Cast@Uint32Array@v8@@SAPEAV12@PEAVValue@2@@Z 00000001800014f0 f i binding.obj
 0001:000004f0       ??4Resolver@Promise@v8@@QEAAAEAV012@AEBV012@@Z 00000001800014f0 f i binding.obj
 0001:000004f0       ??4DataView@v8@@QEAAAEAV01@$$QEAV01@@Z 00000001800014f0 f i binding.obj
 0001:000004f0       ?Cast@Integer@v8@@SAPEAV12@PEAVValue@2@@Z 00000001800014f0 f i binding.obj
 0001:000004f0       ??4Template@v8@@QEAAAEAV01@AEBV01@@Z 00000001800014f0 f i binding.obj
 0001:000004f0       ??4Exception@v8@@QEAAAEAV01@AEBV01@@Z 00000001800014f0 f i binding.obj
 0001:000004f0       ??4ObjectTemplate@v8@@QEAAAEAV01@AEBV01@@Z 00000001800014f0 f i binding.obj
 0001:000004f0       ??4Name@v8@@QEAAAEAV01@$$QEAV01@@Z 00000001800014f0 f i binding.obj
 0001:000004f0       ??4JSON@v8@@QEAAAEAV01@$$QEAV01@@Z 00000001800014f0 f i binding.obj
 0001:000004f0       ??4Array@v8@@QEAAAEAV01@$$QEAV01@@Z 00000001800014f0 f i binding.obj
 0001:000004f0       ??4Function@v8@@QEAAAEAV01@$$QEAV01@@Z 00000001800014f0 f i binding.obj
 0001:000004f0       ?Cast@SymbolObject@v8@@SAPEAV12@PEAVValue@2@@Z 00000001800014f0 f i binding.obj
 0001:000004f0       ?Cast@SharedArrayBuffer@v8@@SAPEAV12@PEAVValue@2@@Z 00000001800014f0 f i binding.obj
 0001:000004f0       ?Cast@ArrayBuffer@v8@@SAPEAV12@PEAVValue@2@@Z 00000001800014f0 f i binding.obj
 0001:000004f0       ??4Number@v8@@QEAAAEAV01@AEBV01@@Z 00000001800014f0 f i binding.obj
 0001:000004f0       ??4Message@v8@@QEAAAEAV01@AEBV01@@Z 00000001800014f0 f i binding.obj
 0001:000004f0       ??4Uint16Array@v8@@QEAAAEAV01@AEBV01@@Z 00000001800014f0 f i binding.obj
 0001:000004f0       ??4Promise@v8@@QEAAAEAV01@AEBV01@@Z 00000001800014f0 f i binding.obj
 0001:000004f0       ?Cast@Float64Array@v8@@SAPEAV12@PEAVValue@2@@Z 00000001800014f0 f i binding.obj
 0001:000004f0       ?Cast@Map@v8@@SAPEAV12@PEAVValue@2@@Z 00000001800014f0 f i binding.obj
 0001:000004f0       ??4Int32Array@v8@@QEAAAEAV01@$$QEAV01@@Z 00000001800014f0 f i binding.obj
 0001:000004f0       ??4Float32Array@v8@@QEAAAEAV01@AEBV01@@Z 00000001800014f0 f i binding.obj
 0001:000004f0       ??4BooleanObject@v8@@QEAAAEAV01@$$QEAV01@@Z 00000001800014f0 f i binding.obj
 0001:000004f0       ??4Symbol@v8@@QEAAAEAV01@$$QEAV01@@Z 00000001800014f0 f i binding.obj
 0001:000004f0       ??4NativeWeakMap@v8@@QEAAAEAV01@AEBV01@@Z 00000001800014f0 f i binding.obj
 0001:000004f0       ??4Uint8Array@v8@@QEAAAEAV01@$$QEAV01@@Z 00000001800014f0 f i binding.obj
 0001:000004f0       ??4Map@v8@@QEAAAEAV01@AEBV01@@Z 00000001800014f0 f i binding.obj
 0001:000004f0       ?Cast@Object@v8@@SAPEAV12@PEAVValue@2@@Z 00000001800014f0 f i binding.obj
 0001:000004f0       ?Cast@External@v8@@SAPEAV12@PEAVValue@2@@Z 00000001800014f0 f i binding.obj
 0001:000004f0       ?Cast@TypedArray@v8@@SAPEAV12@PEAVValue@2@@Z 00000001800014f0 f i binding.obj
 0001:000004f0       ??4Set@v8@@QEAAAEAV01@AEBV01@@Z 00000001800014f0 f i binding.obj
 0001:000004f0       ??4ExternalResourceVisitor@v8@@QEAAAEAV01@AEBV01@@Z 00000001800014f0 f i binding.obj
 0001:000004f0       ?Cast@Date@v8@@SAPEAV12@PEAVValue@2@@Z 00000001800014f0 f i binding.obj
 0001:000004f0       ??4AccessorSignature@v8@@QEAAAEAV01@AEBV01@@Z 00000001800014f0 f i binding.obj
 0001:000004f0       ??4Int32Array@v8@@QEAAAEAV01@AEBV01@@Z 00000001800014f0 f i binding.obj
 0001:000004f0       ??4StackTrace@v8@@QEAAAEAV01@AEBV01@@Z 00000001800014f0 f i binding.obj
 0001:000004f0       ?Cast@Boolean@v8@@SAPEAV12@PEAVValue@2@@Z 00000001800014f0 f i binding.obj
 0001:000004f0       ?Cast@Array@v8@@SAPEAV12@PEAVValue@2@@Z 00000001800014f0 f i binding.obj
 0001:000004f0       ?Cast@Uint8Array@v8@@SAPEAV12@PEAVValue@2@@Z 00000001800014f0 f i binding.obj
 0001:000004f0       ??4Integer@v8@@QEAAAEAV01@AEBV01@@Z 00000001800014f0 f i binding.obj
 0001:000004f0       ??4Uint16Array@v8@@QEAAAEAV01@$$QEAV01@@Z 00000001800014f0 f i binding.obj
 0001:000004f0       ??4TypedArray@v8@@QEAAAEAV01@AEBV01@@Z 00000001800014f0 f i binding.obj
 0001:000004f0       ??4Int32@v8@@QEAAAEAV01@AEBV01@@Z 00000001800014f0 f i binding.obj
 0001:000004f0       ?Cast@Int32Array@v8@@SAPEAV12@PEAVValue@2@@Z 00000001800014f0 f i binding.obj
 0001:000004f0       ??4Script@v8@@QEAAAEAV01@$$QEAV01@@Z 00000001800014f0 f i binding.obj
 0001:000004f0       ??4Script@v8@@QEAAAEAV01@AEBV01@@Z 00000001800014f0 f i binding.obj
 0001:000004f0       ??4Uint32@v8@@QEAAAEAV01@AEBV01@@Z 00000001800014f0 f i binding.obj
 0001:000004f0       ?Cast@Int16Array@v8@@SAPEAV12@PEAVValue@2@@Z 00000001800014f0 f i binding.obj
 0001:000004f0       ??4String@v8@@QEAAAEAV01@$$QEAV01@@Z 00000001800014f0 f i binding.obj
 0001:000004f0       ??4Uint8Array@v8@@QEAAAEAV01@AEBV01@@Z 00000001800014f0 f i binding.obj
 0001:000004f0       ??4Message@v8@@QEAAAEAV01@$$QEAV01@@Z 00000001800014f0 f i binding.obj
 0001:000004f0       ??4StackTrace@v8@@QEAAAEAV01@$$QEAV01@@Z 00000001800014f0 f i binding.obj
 0001:000004f0       ??4NumberObject@v8@@QEAAAEAV01@$$QEAV01@@Z 00000001800014f0 f i binding.obj
 0001:000004f0       ??4SharedArrayBuffer@v8@@QEAAAEAV01@AEBV01@@Z 00000001800014f0 f i binding.obj
 0001:000004f0       ??4ScriptCompiler@v8@@QEAAAEAV01@AEBV01@@Z 00000001800014f0 f i binding.obj
 0001:000004f0       ?Cast@RegExp@v8@@SAPEAV12@PEAVValue@2@@Z 00000001800014f0 f i binding.obj
 0001:000004f0       ??4Uint8ClampedArray@v8@@QEAAAEAV01@$$QEAV01@@Z 00000001800014f0 f i binding.obj
 0001:000004f0       ?Cast@Int32@v8@@SAPEAV12@PEAVValue@2@@Z 00000001800014f0 f i binding.obj
 0001:000004f0       ??4Primitive@v8@@QEAAAEAV01@$$QEAV01@@Z 00000001800014f0 f i binding.obj
 0001:000004f0       ??4StackFrame@v8@@QEAAAEAV01@$$QEAV01@@Z 00000001800014f0 f i binding.obj
 0001:000004f0       ?Cast@DataView@v8@@SAPEAV12@PEAVValue@2@@Z 00000001800014f0 f i binding.obj
 0001:000004f0       ??4External@v8@@QEAAAEAV01@$$QEAV01@@Z 00000001800014f0 f i binding.obj
 0001:000004f0       ?Cast@Set@v8@@SAPEAV12@PEAVValue@2@@Z 00000001800014f0 f i binding.obj
 0001:000004f0       ??4Float64Array@v8@@QEAAAEAV01@$$QEAV01@@Z 00000001800014f0 f i binding.obj
 0001:000004f0       ??4NativeWeakMap@v8@@QEAAAEAV01@$$QEAV01@@Z 00000001800014f0 f i binding.obj
 0001:000004f0       ??4AccessorSignature@v8@@QEAAAEAV01@$$QEAV01@@Z 00000001800014f0 f i binding.obj
 0001:000004f0       ??4Uint32Array@v8@@QEAAAEAV01@$$QEAV01@@Z 00000001800014f0 f i binding.obj
 0001:000004f0       ??4Float32Array@v8@@QEAAAEAV01@$$QEAV01@@Z 00000001800014f0 f i binding.obj
 0001:000004f0       ??4Allocator@ArrayBuffer@v8@@QEAAAEAV012@AEBV012@@Z 00000001800014f0 f i binding.obj
 0001:000004f0       ?Cast@Float32Array@v8@@SAPEAV12@PEAVValue@2@@Z 00000001800014f0 f i binding.obj
 0001:000004f0       ?Cast@BooleanObject@v8@@SAPEAV12@PEAVValue@2@@Z 00000001800014f0 f i binding.obj
 0001:000004f0       ??4ScriptCompiler@v8@@QEAAAEAV01@$$QEAV01@@Z 00000001800014f0 f i binding.obj
 0001:000004f0       ??4Context@v8@@QEAAAEAV01@$$QEAV01@@Z 00000001800014f0 f i binding.obj
 0001:000004f0       ??4TypeSwitch@v8@@QEAAAEAV01@$$QEAV01@@Z 00000001800014f0 f i binding.obj
 0001:000004f0       ??4Int16Array@v8@@QEAAAEAV01@AEBV01@@Z 00000001800014f0 f i binding.obj
 0001:000004f0       ??4Int16Array@v8@@QEAAAEAV01@$$QEAV01@@Z 00000001800014f0 f i binding.obj
 0001:000004f0       ??4Context@v8@@QEAAAEAV01@AEBV01@@Z 00000001800014f0 f i binding.obj
 0001:000004f0       ??4ArrayBuffer@v8@@QEAAAEAV01@AEBV01@@Z 00000001800014f0 f i binding.obj
 0001:000004f0       ??4JSON@v8@@QEAAAEAV01@AEBV01@@Z 00000001800014f0 f i binding.obj
 0001:000004f0       ??4Object@v8@@QEAAAEAV01@$$QEAV01@@Z 00000001800014f0 f i binding.obj
 0001:000004f0       ??4Number@v8@@QEAAAEAV01@$$QEAV01@@Z 00000001800014f0 f i binding.obj
 0001:000004f0       ??4Resolver@Promise@v8@@QEAAAEAV012@$$QEAV012@@Z 00000001800014f0 f i binding.obj
 0001:000004f0       ?Cast@Uint16Array@v8@@SAPEAV12@PEAVValue@2@@Z 00000001800014f0 f i binding.obj
 0001:000004f0       ??4Data@v8@@QEAAAEAV01@AEBV01@@Z 00000001800014f0 f i binding.obj
 0001:000004f0       ??4TypedArray@v8@@QEAAAEAV01@$$QEAV01@@Z 00000001800014f0 f i binding.obj
 0001:000004f0       ??4SymbolObject@v8@@QEAAAEAV01@$$QEAV01@@Z 00000001800014f0 f i binding.obj
 0001:000004f0       ??4Uint8ClampedArray@v8@@QEAAAEAV01@AEBV01@@Z 00000001800014f0 f i binding.obj
 0001:000004f0       ??4Signature@v8@@QEAAAEAV01@$$QEAV01@@Z 00000001800014f0 f i binding.obj
 0001:000004f0       ??4Boolean@v8@@QEAAAEAV01@$$QEAV01@@Z 00000001800014f0 f i binding.obj
 0001:000004f0       ??4Signature@v8@@QEAAAEAV01@AEBV01@@Z 00000001800014f0 f i binding.obj
 0001:000004f0       ??4Date@v8@@QEAAAEAV01@AEBV01@@Z 00000001800014f0 f i binding.obj
 0001:000004f0       ??4Function@v8@@QEAAAEAV01@AEBV01@@Z 00000001800014f0 f i binding.obj
 0001:000004f0       ??0HandleScope@v8@@IEAA@XZ 00000001800014f0 f i binding.obj
 0001:000004f0       ??4ExternalSourceStream@ScriptCompiler@v8@@QEAAAEAV012@AEBV012@@Z 00000001800014f0 f i binding.obj
 0001:000004f0       ??4Value@v8@@QEAAAEAV01@$$QEAV01@@Z 00000001800014f0 f i binding.obj
 0001:000004f0       ??4Int8Array@v8@@QEAAAEAV01@$$QEAV01@@Z 00000001800014f0 f i binding.obj
 0001:000004f0       ??4StringObject@v8@@QEAAAEAV01@AEBV01@@Z 00000001800014f0 f i binding.obj
 0001:000004f0       ??4V8@v8@@QEAAAEAV01@AEBV01@@Z 00000001800014f0 f i binding.obj
 0001:000004f0       ??4ArrayBufferView@v8@@QEAAAEAV01@AEBV01@@Z 00000001800014f0 f i binding.obj
 0001:000004f0       ??4FunctionTemplate@v8@@QEAAAEAV01@$$QEAV01@@Z 00000001800014f0 f i binding.obj
 0001:000004f0       ??4Object@v8@@QEAAAEAV01@AEBV01@@Z 00000001800014f0 f i binding.obj
 0001:000004f0       ??4String@v8@@QEAAAEAV01@AEBV01@@Z 00000001800014f0 f i binding.obj
 0001:000004f0       ??4Boolean@v8@@QEAAAEAV01@AEBV01@@Z 00000001800014f0 f i binding.obj
 0001:000004f0       ??4External@v8@@QEAAAEAV01@AEBV01@@Z 00000001800014f0 f i binding.obj
 0001:000004f0       ??4PersistentHandleVisitor@v8@@QEAAAEAV01@AEBV01@@Z 00000001800014f0 f i binding.obj
 0001:000004f0       ??4RegExp@v8@@QEAAAEAV01@AEBV01@@Z 00000001800014f0 f i binding.obj
 0001:000004f0       ??4SymbolObject@v8@@QEAAAEAV01@AEBV01@@Z 00000001800014f0 f i binding.obj
 0001:000004f0       ?Cast@Resolver@Promise@v8@@SAPEAV123@PEAVValue@3@@Z 00000001800014f0 f i binding.obj
 0001:000004f0       ??4Primitive@v8@@QEAAAEAV01@AEBV01@@Z 00000001800014f0 f i binding.obj
 0001:000004f0       ??4Symbol@v8@@QEAAAEAV01@AEBV01@@Z 00000001800014f0 f i binding.obj
 0001:000004f0       ??4StackFrame@v8@@QEAAAEAV01@AEBV01@@Z 00000001800014f0 f i binding.obj
 0001:000004f0       ??4Int8Array@v8@@QEAAAEAV01@AEBV01@@Z 00000001800014f0 f i binding.obj
 0001:000004f0       ??4Name@v8@@QEAAAEAV01@AEBV01@@Z 00000001800014f0 f i binding.obj
 0001:000004f0       ?Cast@Function@v8@@SAPEAV12@PEAVValue@2@@Z 00000001800014f0 f i binding.obj
 0001:000004f0       ?Cast@Symbol@v8@@SAPEAV12@PEAVValue@2@@Z 00000001800014f0 f i binding.obj
 0001:000004f0       ??4V8@v8@@QEAAAEAV01@$$QEAV01@@Z 00000001800014f0 f i binding.obj
 0001:000004f0       ??4ObjectTemplate@v8@@QEAAAEAV01@$$QEAV01@@Z 00000001800014f0 f i binding.obj
 0001:000004f0       ??4Exception@v8@@QEAAAEAV01@$$QEAV01@@Z 00000001800014f0 f i binding.obj
 0001:000004f0       ??4FunctionTemplate@v8@@QEAAAEAV01@AEBV01@@Z 00000001800014f0 f i binding.obj
 0001:000004f0       ??4SharedArrayBuffer@v8@@QEAAAEAV01@$$QEAV01@@Z 00000001800014f0 f i binding.obj
 0001:000004f0       ??4Value@v8@@QEAAAEAV01@AEBV01@@Z 00000001800014f0 f i binding.obj
 0001:000004f0       ??4Data@v8@@QEAAAEAV01@$$QEAV01@@Z 00000001800014f0 f i binding.obj
 0001:000004f0       ??4DataView@v8@@QEAAAEAV01@AEBV01@@Z 00000001800014f0 f i binding.obj
 0001:000004f0       ??4Float64Array@v8@@QEAAAEAV01@AEBV01@@Z 00000001800014f0 f i binding.obj
 0001:000004f0       ?Cast@Name@v8@@SAPEAV12@PEAVValue@2@@Z 00000001800014f0 f i binding.obj
 0001:000004f0       ?Cast@NumberObject@v8@@SAPEAV12@PEAVValue@2@@Z 00000001800014f0 f i binding.obj
 0001:000004f0       ??4Integer@v8@@QEAAAEAV01@$$QEAV01@@Z 00000001800014f0 f i binding.obj
 0001:000004f0       ??4NumberObject@v8@@QEAAAEAV01@AEBV01@@Z 00000001800014f0 f i binding.obj
 0001:000004f0       ??4Template@v8@@QEAAAEAV01@$$QEAV01@@Z 00000001800014f0 f i binding.obj
 0001:000004f0       ??4UnboundScript@v8@@QEAAAEAV01@$$QEAV01@@Z 00000001800014f0 f i binding.obj
 0001:000004f0       ??4Set@v8@@QEAAAEAV01@$$QEAV01@@Z 00000001800014f0 f i binding.obj
 0001:000004f0       ??4Int32@v8@@QEAAAEAV01@$$QEAV01@@Z 00000001800014f0 f i binding.obj
 0001:000004f0       ?Cast@Number@v8@@SAPEAV12@PEAVValue@2@@Z 00000001800014f0 f i binding.obj
 0001:000004f0       ??4StringObject@v8@@QEAAAEAV01@$$QEAV01@@Z 00000001800014f0 f i binding.obj
 0001:000004f0       ?Cast@StringObject@v8@@SAPEAV12@PEAVValue@2@@Z 00000001800014f0 f i binding.obj
 0001:000004f0       ??4Uint32@v8@@QEAAAEAV01@$$QEAV01@@Z 00000001800014f0 f i binding.obj
 0001:000004f0       ??4Uint32Array@v8@@QEAAAEAV01@AEBV01@@Z 00000001800014f0 f i binding.obj
 0001:000004f0       ??4ArrayBufferView@v8@@QEAAAEAV01@$$QEAV01@@Z 00000001800014f0 f i binding.obj
 0001:000004f0       ?Cast@Int8Array@v8@@SAPEAV12@PEAVValue@2@@Z 00000001800014f0 f i binding.obj
 0001:000004f0       ??4UnboundScript@v8@@QEAAAEAV01@AEBV01@@Z 00000001800014f0 f i binding.obj
 0001:000004f0       ??4Date@v8@@QEAAAEAV01@$$QEAV01@@Z 00000001800014f0 f i binding.obj
 0001:000004f0       ??4TypeSwitch@v8@@QEAAAEAV01@AEBV01@@Z 00000001800014f0 f i binding.obj
 0001:000004f0       ?Cast@Uint32@v8@@SAPEAV12@PEAVValue@2@@Z 00000001800014f0 f i binding.obj
 0001:000004f0       ?Cast@Uint8ClampedArray@v8@@SAPEAV12@PEAVValue@2@@Z 00000001800014f0 f i binding.obj
 0001:000004f0       ?Cast@Promise@v8@@SAPEAV12@PEAVValue@2@@Z 00000001800014f0 f i binding.obj
 0001:000004f0       ??4RegExp@v8@@QEAAAEAV01@$$QEAV01@@Z 00000001800014f0 f i binding.obj
 0001:000004f0       ?Cast@ArrayBufferView@v8@@SAPEAV12@PEAVValue@2@@Z 00000001800014f0 f i binding.obj
 0001:000004f0       ??4Promise@v8@@QEAAAEAV01@$$QEAV01@@Z 00000001800014f0 f i binding.obj
 0001:000004f0       ??4BooleanObject@v8@@QEAAAEAV01@AEBV01@@Z 00000001800014f0 f i binding.obj
 0001:000004f0       ??4ArrayBuffer@v8@@QEAAAEAV01@$$QEAV01@@Z 00000001800014f0 f i binding.obj
 0001:00000500       ??1EscapableHandleScope@v8@@QEAA@XZ 0000000180001500 f i binding.obj
 0001:00000510       ??0CachedData@ScriptCompiler@v8@@QEAA@XZ 0000000180001510 f i binding.obj
 0001:00000530       ??1ExternalSourceStream@ScriptCompiler@v8@@UEAA@XZ 0000000180001530 f i binding.obj
 0001:00000540       ??0ExternalSourceStream@ScriptCompiler@v8@@QEAA@XZ 0000000180001540 f i binding.obj
 0001:00000540       ??0ExternalSourceStream@ScriptCompiler@v8@@QEAA@AEBV012@@Z 0000000180001540 f i binding.obj
 0001:00000550       ??_EExternalSourceStream@ScriptCompiler@v8@@UEAAPEAXI@Z 0000000180001550 f i binding.obj
 0001:000005e0       ??1ExternalStringResourceBase@String@v8@@UEAA@XZ 00000001800015e0 f i binding.obj
 0001:000005e0       ??1ExternalOneByteStringResourceImpl@v8@@UEAA@XZ 00000001800015e0 f i binding.obj
 0001:000005e0       ??1ExternalStringResource@String@v8@@UEAA@XZ 00000001800015e0 f i binding.obj
 0001:000005e0       ??1ExternalOneByteStringResource@String@v8@@UEAA@XZ 00000001800015e0 f i binding.obj
 0001:000005f0       ??0ExternalStringResourceBase@String@v8@@IEAA@XZ 00000001800015f0 f i binding.obj
 0001:00000600       ?Dispose@ExternalStringResourceBase@String@v8@@MEAAXXZ 0000000180001600 f i binding.obj
 0001:00000620       ??0ExternalStringResource@String@v8@@IEAA@XZ 0000000180001620 f i binding.obj
 0001:00000620       ??0ExternalOneByteStringResource@String@v8@@IEAA@XZ 0000000180001620 f i binding.obj
 0001:00000630       ?length@Utf8Value@String@v8@@QEBAHXZ 0000000180001630 f i binding.obj
 0001:00000630       ?length@Value@String@v8@@QEBAHXZ 0000000180001630 f i binding.obj
 0001:00000630       ?max_executable_size@ResourceConstraints@v8@@QEBAHXZ 0000000180001630 f i binding.obj
 0001:00000640       ?InternalFieldCount@Object@v8@@SAHAEBV?$PersistentBase@VObject@v8@@@2@@Z 0000000180001640 f i binding.obj
 0001:00000650       ?GetAlignedPointerFromInternalField@Object@v8@@SAPEAXAEBV?$PersistentBase@VObject@v8@@@2@H@Z 0000000180001650 f i binding.obj
 0001:00000680       ?NewInstance@Function@v8@@QEBA?AV?$MaybeLocal@VObject@v8@@@2@V?$Local@VContext@v8@@@2@@Z 0000000180001680 f i binding.obj
 0001:000006b0       ??1Allocator@ArrayBuffer@v8@@UEAA@XZ 00000001800016b0 f i binding.obj
 0001:000006c0       ??0Contents@ArrayBuffer@v8@@QEAA@XZ 00000001800016c0 f i binding.obj
 0001:000006c0       ??0Contents@SharedArrayBuffer@v8@@QEAA@XZ 00000001800016c0 f i binding.obj
 0001:000006d0       ?name@Extension@v8@@QEBAPEBDXZ 00000001800016d0 f i binding.obj
 0001:000006d0       ?total_heap_size_executable@HeapStatistics@v8@@QEAA_KXZ 00000001800016d0 f i binding.obj
 0001:000006d0       ?data@ExternalOneByteStringResourceImpl@v8@@UEBAPEBDXZ 00000001800016d0 f i binding.obj
 0001:000006d0       ?begin@ExtensionConfiguration@v8@@QEBAPEAPEBDXZ 00000001800016d0 f i binding.obj
 0001:000006d0       ?ByteLength@Contents@ArrayBuffer@v8@@QEBA_KXZ 00000001800016d0 f i binding.obj
 0001:000006d0       ?ByteLength@Contents@SharedArrayBuffer@v8@@QEBA_KXZ 00000001800016d0 f i binding.obj
 0001:000006d0       ?space_size@HeapSpaceStatistics@v8@@QEAA_KXZ 00000001800016d0 f i binding.obj
 0001:000006d0       ?object_sub_type@HeapObjectStatistics@v8@@QEAAPEBDXZ 00000001800016d0 f i binding.obj
 0001:000006e0       ?SetIndexedPropertyHandler@ObjectTemplate@v8@@QEAAXP6AXIAEBV?$PropertyCallbackInfo@VValue@v8@@@2@@ZP6AXIV?$Local@VValue@v8@@@2@0@ZP6AXIAEBV?$PropertyCallbackInfo@VInteger@v8@@@2@@ZP6AXIAEBV?$PropertyCallbackInfo@VBoolean@v8@@@2@@ZP6AXAEBV?$PropertyCallbackInfo@VArray@v8@@@2@@Z2@Z 00000001800016e0 f i binding.obj
 0001:00000730       ??0ExternalOneByteStringResourceImpl@v8@@QEAA@XZ 0000000180001730 f i binding.obj
 0001:00000750       ??0ExternalOneByteStringResourceImpl@v8@@QEAA@PEBD_K@Z 0000000180001750 f i binding.obj
 0001:00000770       ?length@ExternalOneByteStringResourceImpl@v8@@UEBA_KXZ 0000000180001770 f i binding.obj
 0001:00000770       ?stack_limit@ResourceConstraints@v8@@QEBAPEAIXZ 0000000180001770 f i binding.obj
 0001:00000770       ?space_used_size@HeapSpaceStatistics@v8@@QEAA_KXZ 0000000180001770 f i binding.obj
 0001:00000770       ?source_length@Extension@v8@@QEBA_KXZ 0000000180001770 f i binding.obj
 0001:00000770       ?total_physical_size@HeapStatistics@v8@@QEAA_KXZ 0000000180001770 f i binding.obj
 0001:00000770       ?object_count@HeapObjectStatistics@v8@@QEAA_KXZ 0000000180001770 f i binding.obj
 0001:00000780       ??1Extension@v8@@UEAA@XZ   0000000180001780 f i binding.obj
 0001:000007a0       ?GetNativeFunctionTemplate@Extension@v8@@UEAA?AV?$Local@VFunctionTemplate@v8@@@2@PEAVIsolate@2@V?$Local@VString@v8@@@2@@Z 00000001800017a0 f i binding.obj
 0001:000007b0       ?source@Extension@v8@@QEBAPEBVExternalOneByteStringResource@String@2@XZ 00000001800017b0 f i binding.obj
 0001:000007c0       ?dependency_count@Extension@v8@@QEAAHXZ 00000001800017c0 f i binding.obj
 0001:000007d0       ?dependencies@Extension@v8@@QEAAPEAPEBDXZ 00000001800017d0 f i binding.obj
 0001:000007e0       ?set_auto_enable@Extension@v8@@QEAAX_N@Z 00000001800017e0 f i binding.obj
 0001:000007f0       ?auto_enable@Extension@v8@@QEAA_NXZ 00000001800017f0 f i binding.obj
 0001:00000800       ?max_semi_space_size@ResourceConstraints@v8@@QEBAHXZ 0000000180001800 f i binding.obj
 0001:00000810       ?set_max_semi_space_size@ResourceConstraints@v8@@QEAAXH@Z 0000000180001810 f i binding.obj
 0001:00000820       ?max_old_space_size@ResourceConstraints@v8@@QEBAHXZ 0000000180001820 f i binding.obj
 0001:00000830       ?set_max_old_space_size@ResourceConstraints@v8@@QEAAXH@Z 0000000180001830 f i binding.obj
 0001:00000840       ?set_max_executable_size@ResourceConstraints@v8@@QEAAXH@Z 0000000180001840 f i binding.obj
 0001:00000850       ?set_stack_limit@ResourceConstraints@v8@@QEAAXPEAI@Z 0000000180001850 f i binding.obj
 0001:00000860       ?code_range_size@ResourceConstraints@v8@@QEBA_KXZ 0000000180001860 f i binding.obj
 0001:00000860       ?total_available_size@HeapStatistics@v8@@QEAA_KXZ 0000000180001860 f i binding.obj
 0001:00000860       ?space_available_size@HeapSpaceStatistics@v8@@QEAA_KXZ 0000000180001860 f i binding.obj
 0001:00000860       ?object_size@HeapObjectStatistics@v8@@QEAA_KXZ 0000000180001860 f i binding.obj
 0001:00000870       ?set_code_range_size@ResourceConstraints@v8@@QEAAX_K@Z 0000000180001870 f i binding.obj
 0001:00000880       ?physical_space_size@HeapSpaceStatistics@v8@@QEAA_KXZ 0000000180001880 f i binding.obj
 0001:00000880       ?used_heap_size@HeapStatistics@v8@@QEAA_KXZ 0000000180001880 f i binding.obj
 0001:00000890       ?heap_size_limit@HeapStatistics@v8@@QEAA_KXZ 0000000180001890 f i binding.obj
 0001:000008a0       ??1PersistentHandleVisitor@v8@@UEAA@XZ 00000001800018a0 f i binding.obj
 0001:000008a0       ??1ExternalResourceVisitor@v8@@UEAA@XZ 00000001800018a0 f i binding.obj
 0001:000008b0       ?VisitPersistentHandle@PersistentHandleVisitor@v8@@UEAAXPEAV?$Persistent@VValue@v8@@V?$NonCopyablePersistentTraits@VValue@v8@@@2@@2@G@Z 00000001800018b0 f i binding.obj
 0001:000008b0       _guard_check_icall_nop     00000001800018b0 f i LIBCMT:guard_support.obj
 0001:000008b0       ?_Doraise@exception@stdext@@MEBAXXZ 00000001800018b0 f i binding.obj
 0001:000008b0       ??$destroy@PEAU?$_Tree_node@HPEAX@std@@@?$_Wrap_alloc@V?$allocator@U?$_Tree_node@HPEAX@std@@@std@@@std@@QEAAXPEAPEAU?$_Tree_node@HPEAX@1@@Z 00000001800018b0 f i binding.obj
 0001:000008b0       ?VisitExternalString@ExternalResourceVisitor@v8@@UEAAXV?$Local@VString@v8@@@2@@Z 00000001800018b0 f i binding.obj
 0001:000008b0       __except_validate_context_record 00000001800018b0 f i libvcruntime:jbcxrval.obj
 0001:000008c0       ??0Scope@Isolate@v8@@QEAA@PEAV12@@Z 00000001800018c0 f i binding.obj
 0001:000008e0       ??1Scope@Isolate@v8@@QEAA@XZ 00000001800018e0 f i binding.obj
 0001:000008f0       ?JSStackComparableAddress@TryCatch@v8@@SAPEAXPEAV12@@Z 00000001800018f0 f i binding.obj
 0001:00000900       ??0ExtensionConfiguration@v8@@QEAA@XZ 0000000180001900 f i binding.obj
 0001:00000910       ??0ExtensionConfiguration@v8@@QEAA@HQEAPEBD@Z 0000000180001910 f i binding.obj
 0001:00000920       ?end@ExtensionConfiguration@v8@@QEBAPEAPEBDXZ 0000000180001920 f i binding.obj
 0001:00000930       ??0Unlocker@v8@@QEAA@PEAVIsolate@1@@Z 0000000180001930 f i binding.obj
 0001:00000950       ??0Locker@v8@@QEAA@PEAVIsolate@1@@Z 0000000180001950 f i binding.obj
 0001:00000970       ?New@Boolean@v8@@SA?AV?$Local@VBoolean@v8@@@2@PEAVIsolate@2@_N@Z 0000000180001970 f i binding.obj
 0001:00000990       ?Set@Template@v8@@QEAAXPEAVIsolate@2@PEBDV?$Local@VData@v8@@@2@@Z 0000000180001990 f i binding.obj
 0001:000009f0       ?GetInternalField@Object@v8@@QEAA?AV?$Local@VValue@v8@@@2@H@Z 00000001800019f0 f i binding.obj
 0001:00000a40       ?GetAlignedPointerFromInternalField@Object@v8@@QEAAPEAXH@Z 0000000180001a40 f i binding.obj
 0001:00000a60       ?Empty@String@v8@@SA?AV?$Local@VString@v8@@@2@PEAVIsolate@2@@Z 0000000180001a60 f i binding.obj
 0001:00000a70       ?GetExternalStringResource@String@v8@@QEBAPEAVExternalStringResource@12@XZ 0000000180001a70 f i binding.obj
 0001:00000a90       ?GetExternalStringResourceBase@String@v8@@QEBAPEAVExternalStringResourceBase@12@PEAW4Encoding@12@@Z 0000000180001a90 f i binding.obj
 0001:00000ac0       ?IsUndefined@Value@v8@@QEBA_NXZ 0000000180001ac0 f i binding.obj
 0001:00000af0       ?QuickIsUndefined@Value@v8@@AEBA_NXZ 0000000180001af0 f i binding.obj
 0001:00000b20       ?IsNull@Value@v8@@QEBA_NXZ 0000000180001b20 f i binding.obj
 0001:00000b50       ?QuickIsNull@Value@v8@@AEBA_NXZ 0000000180001b50 f i binding.obj
 0001:00000b80       ?IsString@Value@v8@@QEBA_NXZ 0000000180001b80 f i binding.obj
 0001:00000bb0       ?QuickIsString@Value@v8@@AEBA_NXZ 0000000180001bb0 f i binding.obj
 0001:00000be0       ?ToBoolean@Value@v8@@QEBA?AV?$Local@VBoolean@v8@@@2@XZ 0000000180001be0 f i binding.obj
 0001:00000c30       ?ToNumber@Value@v8@@QEBA?AV?$Local@VNumber@v8@@@2@XZ 0000000180001c30 f i binding.obj
 0001:00000c80       ?ToString@Value@v8@@QEBA?AV?$Local@VString@v8@@@2@XZ 0000000180001c80 f i binding.obj
 0001:00000cd0       ?ToDetailString@Value@v8@@QEBA?AV?$Local@VString@v8@@@2@XZ 0000000180001cd0 f i binding.obj
 0001:00000d20       ?ToObject@Value@v8@@QEBA?AV?$Local@VObject@v8@@@2@XZ 0000000180001d20 f i binding.obj
 0001:00000d70       ?ToInteger@Value@v8@@QEBA?AV?$Local@VInteger@v8@@@2@XZ 0000000180001d70 f i binding.obj
 0001:00000dc0       ?ToUint32@Value@v8@@QEBA?AV?$Local@VUint32@v8@@@2@XZ 0000000180001dc0 f i binding.obj
 0001:00000e10       ?ToInt32@Value@v8@@QEBA?AV?$Local@VInt32@v8@@@2@XZ 0000000180001e10 f i binding.obj
 0001:00000e60       ?SetData@Isolate@v8@@QEAAXIPEAX@Z 0000000180001e60 f i binding.obj
 0001:00000e70       ?GetData@Isolate@v8@@QEAAPEAXI@Z 0000000180001e70 f i binding.obj
 0001:00000e80       ?GetNumberOfDataSlots@Isolate@v8@@SAIXZ 0000000180001e80 f i binding.obj
 0001:00000e90       ?AdjustAmountOfExternalAllocatedMemory@Isolate@v8@@QEAA_J_J@Z 0000000180001e90 f i binding.obj
 0001:00000ef0       ?GetEmbedderData@Context@v8@@QEAA?AV?$Local@VValue@v8@@@2@H@Z 0000000180001ef0 f i binding.obj
 0001:00000f20       ?GetAlignedPointerFromEmbedderData@Context@v8@@QEAAPEAXH@Z 0000000180001f20 f i binding.obj
 0001:00000f40       ?SetAllowCodeGenerationFromStringsCallback@V8@v8@@SAXP6A_NV?$Local@VContext@v8@@@2@@Z@Z 0000000180001f40 f i binding.obj
 0001:00000f70       ?IsDead@V8@v8@@SA_NXZ      0000000180001f70 f i binding.obj
 0001:00000f90       ?AddMessageListener@V8@v8@@SA_NP6AXV?$Local@VMessage@v8@@@2@V?$Local@VValue@v8@@@2@@Z1@Z 0000000180001f90 f i binding.obj
 0001:00000fc0       ?RemoveMessageListeners@V8@v8@@SAXP6AXV?$Local@VMessage@v8@@@2@V?$Local@VValue@v8@@@2@@Z@Z 0000000180001fc0 f i binding.obj
 0001:00000ff0       ?SetFailedAccessCheckCallbackFunction@V8@v8@@SAXP6AXV?$Local@VObject@v8@@@2@W4AccessType@2@V?$Local@VValue@v8@@@2@@Z@Z 0000000180001ff0 f i binding.obj
 0001:00001020       ?SetCaptureStackTraceForUncaughtExceptions@V8@v8@@SAX_NHW4StackTraceOptions@StackTrace@2@@Z 0000000180002020 f i binding.obj
 0001:00001060       ?SetFatalErrorHandler@V8@v8@@SAXP6AXPEBD0@Z@Z 0000000180002060 f i binding.obj
 0001:00001090       ?RemoveGCPrologueCallback@V8@v8@@SAXP6AXW4GCType@2@W4GCCallbackFlags@2@@Z@Z 0000000180002090 f i binding.obj
 0001:000010c0       ?RemoveGCEpilogueCallback@V8@v8@@SAXP6AXW4GCType@2@W4GCCallbackFlags@2@@Z@Z 00000001800020c0 f i binding.obj
 0001:000010f0       ?AddMemoryAllocationCallback@V8@v8@@SAXP6AXW4ObjectSpace@2@W4AllocationAction@2@H@Z01@Z 00000001800020f0 f i binding.obj
 0001:00001130       ?RemoveMemoryAllocationCallback@V8@v8@@SAXP6AXW4ObjectSpace@2@W4AllocationAction@2@H@Z@Z 0000000180002130 f i binding.obj
 0001:00001160       ?TerminateExecution@V8@v8@@SAXPEAVIsolate@2@@Z 0000000180002160 f i binding.obj
 0001:00001170       ?IsExecutionTerminating@V8@v8@@SA_NPEAVIsolate@2@@Z 0000000180002170 f i binding.obj
 0001:00001190       ?CancelTerminateExecution@V8@v8@@SAXPEAVIsolate@2@@Z 0000000180002190 f i binding.obj
 0001:000011a0       ?VisitExternalResources@V8@v8@@SAXPEAVExternalResourceVisitor@2@@Z 00000001800021a0 f i binding.obj
 0001:000011d0       ?VisitHandlesWithClassIds@V8@v8@@SAXPEAVPersistentHandleVisitor@2@@Z 00000001800021d0 f i binding.obj
 0001:00001200       ?VisitHandlesWithClassIds@V8@v8@@SAXPEAVIsolate@2@PEAVPersistentHandleVisitor@2@@Z 0000000180002200 f i binding.obj
 0001:00001210       ?VisitHandlesForPartialDependence@V8@v8@@SAXPEAVIsolate@2@PEAVPersistentHandleVisitor@2@@Z 0000000180002210 f i binding.obj
 0001:00001220       ??_EExternalOneByteStringResource@String@v8@@UEAAPEAXI@Z 0000000180002220 f i binding.obj
 0001:00001220       ??_EExternalStringResourceBase@String@v8@@UEAAPEAXI@Z 0000000180002220 f i binding.obj
 0001:00001220       ??_EExternalStringResource@String@v8@@UEAAPEAXI@Z 0000000180002220 f i binding.obj
 0001:000012b0       ??0Allocator@ArrayBuffer@v8@@QEAA@AEBV012@@Z 00000001800022b0 f i binding.obj
 0001:000012b0       ??0Allocator@ArrayBuffer@v8@@QEAA@XZ 00000001800022b0 f i binding.obj
 0001:000012c0       ??_EAllocator@ArrayBuffer@v8@@UEAAPEAXI@Z 00000001800022c0 f i binding.obj
 0001:00001350       ??4Contents@SharedArrayBuffer@v8@@QEAAAEAV012@AEBV012@@Z 0000000180002350 f i binding.obj
 0001:00001350       ??4Contents@ArrayBuffer@v8@@QEAAAEAV012@AEBV012@@Z 0000000180002350 f i binding.obj
 0001:00001350       ??4StartupData@v8@@QEAAAEAV01@AEBV01@@Z 0000000180002350 f i binding.obj
 0001:00001360       ??4Contents@SharedArrayBuffer@v8@@QEAAAEAV012@$$QEAV012@@Z 0000000180002360 f i binding.obj
 0001:00001360       ??4Contents@ArrayBuffer@v8@@QEAAAEAV012@$$QEAV012@@Z 0000000180002360 f i binding.obj
 0001:00001380       ??_EExternalOneByteStringResourceImpl@v8@@UEAAPEAXI@Z 0000000180002380 f i binding.obj
 0001:00001410       ??_EExtension@v8@@UEAAPEAXI@Z 0000000180002410 f i binding.obj
 0001:000014c0       ??4HeapObjectStatistics@v8@@QEAAAEAV01@AEBV01@@Z 00000001800024c0 f i binding.obj
 0001:000014c0       ??4ResourceConstraints@v8@@QEAAAEAV01@AEBV01@@Z 00000001800024c0 f i binding.obj
 0001:000014e0       ??4ResourceConstraints@v8@@QEAAAEAV01@$$QEAV01@@Z 00000001800024e0 f i binding.obj
 0001:00001510       ??4HeapStatistics@v8@@QEAAAEAV01@AEBV01@@Z 0000000180002510 f i binding.obj
 0001:00001530       ??4HeapStatistics@v8@@QEAAAEAV01@$$QEAV01@@Z 0000000180002530 f i binding.obj
 0001:00001570       ??4HeapSpaceStatistics@v8@@QEAAAEAV01@AEBV01@@Z 0000000180002570 f i binding.obj
 0001:00001590       ??4HeapSpaceStatistics@v8@@QEAAAEAV01@$$QEAV01@@Z 0000000180002590 f i binding.obj
 0001:000015c0       ??4HeapObjectStatistics@v8@@QEAAAEAV01@$$QEAV01@@Z 00000001800025c0 f i binding.obj
 0001:000015f0       ??0ExternalResourceVisitor@v8@@QEAA@XZ 00000001800025f0 f i binding.obj
 0001:000015f0       ??0ExternalResourceVisitor@v8@@QEAA@AEBV01@@Z 00000001800025f0 f i binding.obj
 0001:000015f0       ??0PersistentHandleVisitor@v8@@QEAA@AEBV01@@Z 00000001800025f0 f i binding.obj
 0001:000015f0       ??0PersistentHandleVisitor@v8@@QEAA@XZ 00000001800025f0 f i binding.obj
 0001:00001600       ??_EExternalResourceVisitor@v8@@UEAAPEAXI@Z 0000000180002600 f i binding.obj
 0001:00001600       ??_EPersistentHandleVisitor@v8@@UEAAPEAXI@Z 0000000180002600 f i binding.obj
 0001:00001690       ??4StartupData@v8@@QEAAAEAV01@$$QEAV01@@Z 0000000180002690 f i binding.obj
 0001:000016a0       ??4Unlocker@v8@@QEAAAEAV01@AEBV01@@Z 00000001800026a0 f i binding.obj
 0001:000016b0       ??0exception@stdext@@QEAA@AEBV01@@Z 00000001800026b0 f i binding.obj
 0001:000016d0       ?what@exception@stdext@@UEBAPEBDXZ 00000001800026d0 f i binding.obj
 0001:000016f0       ??_Gexception@stdext@@UEAAPEAXI@Z 00000001800026f0 f i binding.obj
 0001:000016f0       ??_Eexception@stdext@@UEAAPEAXI@Z 00000001800026f0 f i * CIL library *:* CIL module *
 0001:000016f0       ??_Gruntime_error@std@@UEAAPEAXI@Z 00000001800026f0 f i binding.obj
 0001:000016f0       ??_Eruntime_error@std@@UEAAPEAXI@Z 00000001800026f0 f i * CIL library *:* CIL module *
 0001:00001720       ??1runtime_error@std@@UEAA@XZ 0000000180002720 f i binding.obj
 0001:00001950       ?New@?$Factory@VFunctionTemplate@v8@@@imp@Nan@@SA?AV?$Local@VFunctionTemplate@v8@@@v8@@P6AXAEBV?$FunctionCallbackInfo@VValue@v8@@@3@@ZV?$Local@VValue@v8@@@5@V?$Local@VSignature@v8@@@5@@Z 0000000180002950 f i binding.obj
 0001:00001ae0       ?SetAccessor@Nan@@YAXV?$Local@VObjectTemplate@v8@@@v8@@V?$Local@VString@v8@@@3@P6AX1AEBV?$PropertyCallbackInfo@VValue@v8@@@1@@ZP6AX1V?$Local@VValue@v8@@@3@AEBV?$PropertyCallbackInfo@X@1@@Z4W4AccessControl@3@W4PropertyAttribute@3@V?$Local@VAccessorSignature@v8@@@3@@Z 0000000180002ae0 f i binding.obj
 0001:00001c60       ?Wrap@ObjectWrap@Nan@@IEAAXV?$Local@VObject@v8@@@v8@@@Z 0000000180002c60 f i binding.obj
 0001:00001d40       ?Ref@ObjectWrap@Nan@@MEAAXXZ 0000000180002d40 f i binding.obj
 0001:00001d80       ?Unref@ObjectWrap@Nan@@MEAAXXZ 0000000180002d80 f i binding.obj
 0001:00001e30       ?WeakCallback@ObjectWrap@Nan@@CAXAEBV?$WeakCallbackInfo@VObjectWrap@Nan@@@v8@@@Z 0000000180002e30 f i binding.obj
 0001:00001ec0       ??_EObjectWrap@Nan@@UEAAPEAXI@Z 0000000180002ec0 f i * CIL library *:* CIL module *
 0001:00001ec0       ??_GObjectWrap@Nan@@UEAAPEAXI@Z 0000000180002ec0 f i binding.obj
 0001:00001ff0       ?Initialize@Context@zmq@@SAXV?$Local@VObject@v8@@@v8@@@Z 0000000180002ff0 f   binding.obj
 0001:000023d0       ??1Context@zmq@@UEAA@XZ    00000001800033d0 f   binding.obj
 0001:000024a0       ??_EContext@zmq@@UEAAPEAXI@Z 00000001800034a0 f i * CIL library *:* CIL module *
 0001:000024a0       ??_GContext@zmq@@UEAAPEAXI@Z 00000001800034a0 f i binding.obj
 0001:000024e0       ?New@Context@zmq@@CAXAEBV?$FunctionCallbackInfo@VValue@v8@@@Nan@@@Z 00000001800034e0 f   binding.obj
 0001:00002740       ??0runtime_error@std@@QEAA@AEBV01@@Z 0000000180003740 f i binding.obj
 0001:00002760       ?GetContext@Context@zmq@@CAPEAV12@AEBV?$FunctionCallbackInfo@VValue@v8@@@Nan@@@Z 0000000180003760 f   binding.obj
 0001:00002760       ?GetSocket@Socket@zmq@@CAPEAV12@AEBV?$FunctionCallbackInfo@VValue@v8@@@Nan@@@Z 0000000180003760 f   binding.obj
 0001:000027e0       ?Close@Context@zmq@@CAXAEBV?$FunctionCallbackInfo@VValue@v8@@@Nan@@@Z 00000001800037e0 f   binding.obj
 0001:000028b0       ?SetOpt@Context@zmq@@CAXAEBV?$FunctionCallbackInfo@VValue@v8@@@Nan@@@Z 00000001800038b0 f   binding.obj
 0001:00002ae0       ?GetOpt@Context@zmq@@CAXAEBV?$FunctionCallbackInfo@VValue@v8@@@Nan@@@Z 0000000180003ae0 f   binding.obj
 0001:00002ce0       ?Initialize@Socket@zmq@@SAXV?$Local@VObject@v8@@@v8@@@Z 0000000180003ce0 f   binding.obj
 0001:00003c20       ??1Socket@zmq@@UEAA@XZ     0000000180004c20 f   binding.obj
 0001:00003ca0       ??_ESocket@zmq@@UEAAPEAXI@Z 0000000180004ca0 f i * CIL library *:* CIL module *
 0001:00003ca0       ??_GSocket@zmq@@UEAAPEAXI@Z 0000000180004ca0 f i binding.obj
 0001:00003ce0       ?New@Socket@zmq@@CAXAEBV?$FunctionCallbackInfo@VValue@v8@@@Nan@@@Z 0000000180004ce0 f   binding.obj
 0001:00003f50       ?IsReady@Socket@zmq@@AEAA_NXZ 0000000180004f50 f   binding.obj
 0001:00003ff0       ?CallbackIfReady@Socket@zmq@@QEAAXXZ 0000000180004ff0 f   binding.obj
 0001:00004120       ?UV_PollCallback@Socket@zmq@@CAXPEAUuv_poll_s@@HH@Z 0000000180005120 f   binding.obj
 0001:000041d0       ?MonitorEvent@Socket@zmq@@QEAAXGHPEAD@Z 00000001800051d0 f   binding.obj
 0001:00004410       ?MonitorError@Socket@zmq@@QEAAXPEBD@Z 0000000180005410 f   binding.obj
 0001:000045a0       ?UV_MonitorCallback@Socket@zmq@@CAXPEAUuv_timer_s@@H@Z 00000001800055a0 f   binding.obj
 0001:000047d0       ??0Socket@zmq@@AEAA@PEAVContext@1@H@Z 00000001800057d0 f   binding.obj
 0001:000049d0       ?GetState@Socket@zmq@@CAXV?$Local@VString@v8@@@v8@@AEBV?$PropertyCallbackInfo@VValue@v8@@@Nan@@@Z 00000001800059d0 f   binding.obj
 0001:00004ad0       ?GetPending@Socket@zmq@@CAXV?$Local@VString@v8@@@v8@@AEBV?$PropertyCallbackInfo@VValue@v8@@@Nan@@@Z 0000000180005ad0 f   binding.obj
 0001:00004bd0       ?SetPending@Socket@zmq@@CAXV?$Local@VString@v8@@@v8@@V?$Local@VValue@v8@@@4@AEBV?$PropertyCallbackInfo@X@Nan@@@Z 0000000180005bd0 f   binding.obj
 0001:00004d30       ??$GetSockOpt@PEAD@Socket@zmq@@AEAA?AV?$Local@VValue@v8@@@v8@@H@Z 0000000180005d30 f   binding.obj
 0001:00004eb0       ??$SetSockOpt@PEAD@Socket@zmq@@AEAA?AV?$Local@VValue@v8@@@v8@@HV23@@Z 0000000180005eb0 f   binding.obj
 0001:00004ff0       ?GetSockOpt@Socket@zmq@@CAXAEBV?$FunctionCallbackInfo@VValue@v8@@@Nan@@@Z 0000000180005ff0 f   binding.obj
 0001:00005480       ?SetSockOpt@Socket@zmq@@CAXAEBV?$FunctionCallbackInfo@VValue@v8@@@Nan@@@Z 0000000180006480 f   binding.obj
 0001:00005970       ??0BindState@Socket@zmq@@QEAA@PEAV12@V?$Local@VFunction@v8@@@v8@@V?$Local@VString@v8@@@4@@Z 0000000180006970 f i binding.obj
 0001:00005b30       ?Bind@Socket@zmq@@CAXAEBV?$FunctionCallbackInfo@VValue@v8@@@Nan@@@Z 0000000180006b30 f   binding.obj
 0001:00005db0       ?UV_BindAsync@Socket@zmq@@CAXPEAUuv_work_s@@@Z 0000000180006db0 f   binding.obj
 0001:00005de0       ?UV_BindAsyncAfter@Socket@zmq@@CAXPEAUuv_work_s@@@Z 0000000180006de0 f   binding.obj
 0001:000060a0       ?BindSync@Socket@zmq@@CAXAEBV?$FunctionCallbackInfo@VValue@v8@@@Nan@@@Z 00000001800070a0 f   binding.obj
 0001:00006490       ?Unbind@Socket@zmq@@CAXAEBV?$FunctionCallbackInfo@VValue@v8@@@Nan@@@Z 0000000180007490 f   binding.obj
 0001:00006710       ?UV_UnbindAsync@Socket@zmq@@CAXPEAUuv_work_s@@@Z 0000000180007710 f   binding.obj
 0001:00006740       ?UV_UnbindAsyncAfter@Socket@zmq@@CAXPEAUuv_work_s@@@Z 0000000180007740 f   binding.obj
 0001:000069b0       ?UnbindSync@Socket@zmq@@CAXAEBV?$FunctionCallbackInfo@VValue@v8@@@Nan@@@Z 00000001800079b0 f   binding.obj
 0001:00006da0       ?Connect@Socket@zmq@@CAXAEBV?$FunctionCallbackInfo@VValue@v8@@@Nan@@@Z 0000000180007da0 f   binding.obj
 0001:000071d0       ?Disconnect@Socket@zmq@@CAXAEBV?$FunctionCallbackInfo@VValue@v8@@@Nan@@@Z 00000001800081d0 f   binding.obj
 0001:00007600       ?FreeCallback@IncomingMessage@Socket@zmq@@CAXPEADPEAX@Z 0000000180008600 f i binding.obj
 0001:00007660       ??_GMessageReference@IncomingMessage@Socket@zmq@@QEAAPEAXI@Z 0000000180008660 f i binding.obj
 0001:000076c0       ?Monitor@Socket@zmq@@CAXAEBV?$FunctionCallbackInfo@VValue@v8@@@Nan@@@Z 00000001800086c0 f   binding.obj
 0001:00007c20       ?Unmonitor@Socket@zmq@@AEAAXXZ 0000000180008c20 f   binding.obj
 0001:00007ca0       ?Unmonitor@Socket@zmq@@CAXAEBV?$FunctionCallbackInfo@VValue@v8@@@Nan@@@Z 0000000180008ca0 f   binding.obj
 0001:00007d30       ?Recv@Socket@zmq@@CAXAEBV?$FunctionCallbackInfo@VValue@v8@@@Nan@@@Z 0000000180008d30 f   binding.obj
 0001:00008260       ?Send@Socket@zmq@@CAXAEBV?$FunctionCallbackInfo@VValue@v8@@@Nan@@@Z 0000000180009260 f   binding.obj
 0001:00008710       ?Close@Socket@zmq@@AEAAXXZ 0000000180009710 f   binding.obj
 0001:000087c0       ?Close@Socket@zmq@@CAXAEBV?$FunctionCallbackInfo@VValue@v8@@@Nan@@@Z 00000001800097c0 f   binding.obj
 0001:0000a330       init                       000000018000b330 f   binding.obj
 0001:0000a520       ?count@?$_Tree@V?$_Tset_traits@HU?$less@H@std@@V?$allocator@H@2@$0A@@std@@@std@@QEBA_KAEBH@Z 000000018000b520 f i binding.obj
 0001:0000a600       ?erase@?$_Tree@V?$_Tset_traits@HU?$less@H@std@@V?$allocator@H@2@$0A@@std@@@std@@QEAA?AV?$_Tree_const_iterator@V?$_Tree_val@U?$_Tree_simple_types@H@std@@@std@@@2@V32@0@Z 000000018000b600 f i binding.obj
 0001:0000a730       ?erase@?$_Tree@V?$_Tset_traits@HU?$less@H@std@@V?$allocator@H@2@$0A@@std@@@std@@QEAA?AV?$_Tree_const_iterator@V?$_Tree_val@U?$_Tree_simple_types@H@std@@@std@@@2@V32@@Z 000000018000b730 f i binding.obj
 0001:0000ab80       ?_Rrotate@?$_Tree@V?$_Tset_traits@HU?$less@H@std@@V?$allocator@H@2@$0A@@std@@@std@@IEAAXPEAU?$_Tree_node@HPEAX@2@@Z 000000018000bb80 f i binding.obj
 0001:0000abe0       ?_Lrotate@?$_Tree@V?$_Tset_traits@HU?$less@H@std@@V?$allocator@H@2@$0A@@std@@@std@@IEAAXPEAU?$_Tree_node@HPEAX@2@@Z 000000018000bbe0 f i binding.obj
 0001:0000ac40       ?_Erase@?$_Tree@V?$_Tset_traits@HU?$less@H@std@@V?$allocator@H@2@$0A@@std@@@std@@IEAAXPEAU?$_Tree_node@HPEAX@2@@Z 000000018000bc40 f i binding.obj
 0001:0000ac90       ??$Unwrap@VContext@zmq@@@ObjectWrap@Nan@@SAPEAVContext@zmq@@V?$Local@VObject@v8@@@v8@@@Z 000000018000bc90 f i binding.obj
 0001:0000ad10       ??$GetSockOpt@H@Socket@zmq@@AEAA?AV?$Local@VValue@v8@@@v8@@H@Z 000000018000bd10 f i binding.obj
 0001:0000ae70       ??$GetSockOpt@I@Socket@zmq@@AEAA?AV?$Local@VValue@v8@@@v8@@H@Z 000000018000be70 f i binding.obj
 0001:0000afe0       ??$GetSockOpt@_J@Socket@zmq@@AEAA?AV?$Local@VValue@v8@@@v8@@H@Z 000000018000bfe0 f i binding.obj
 0001:0000b140       ??$GetSockOpt@_K@Socket@zmq@@AEAA?AV?$Local@VValue@v8@@@v8@@H@Z 000000018000c140 f i binding.obj
 0001:0000b2b0       ??$SetSockOpt@H@Socket@zmq@@AEAA?AV?$Local@VValue@v8@@@v8@@HV23@@Z 000000018000c2b0 f i binding.obj
 0001:0000b410       ??$SetSockOpt@I@Socket@zmq@@AEAA?AV?$Local@VValue@v8@@@v8@@HV23@@Z 000000018000c410 f i binding.obj
 0001:0000b570       ??$SetSockOpt@_J@Socket@zmq@@AEAA?AV?$Local@VValue@v8@@@v8@@HV23@@Z 000000018000c570 f i binding.obj
 0001:0000b6e0       ??$_snprintf_s@$0BA@@@YAHAEAY0BA@D_KPEBDZZ 000000018000c6e0 f i binding.obj
 0001:0000b740       ??$_Insert_nohint@HU_Nil@std@@@?$_Tree@V?$_Tset_traits@HU?$less@H@std@@V?$allocator@H@2@$0A@@std@@@std@@IEAA?AU?$pair@V?$_Tree_const_iterator@V?$_Tree_val@U?$_Tree_simple_types@H@std@@@std@@@std@@_N@1@_N$$QEAHU_Nil@1@@Z 000000018000c740 f i binding.obj
 0001:0000b890       ??$_Insert_at@HU_Nil@std@@@?$_Tree@V?$_Tset_traits@HU?$less@H@std@@V?$allocator@H@2@$0A@@std@@@std@@IEAA?AV?$_Tree_const_iterator@V?$_Tree_val@U?$_Tree_simple_types@H@std@@@std@@@1@_NPEAU?$_Tree_node@HPEAX@1@$$QEAHU_Nil@1@@Z 000000018000c890 f i binding.obj
 0001:0000bbec       ?DloadAcquireSectionWriteAccess@@YAXXZ 000000018000cbec f i DelayImp:delayhlp.obj
 0001:0000bca8       ?DloadGetSRWLockFunctionPointers@@YAEXZ 000000018000cca8 f i DelayImp:delayhlp.obj
 0001:0000bd44       ?DloadMakePermanentImageCommit@@YAXPEAX_K@Z 000000018000cd44 f i DelayImp:delayhlp.obj
 0001:0000bddc       ?DloadObtainSection@@YAPEAXPEAK0@Z 000000018000cddc f i DelayImp:delayhlp.obj
 0001:0000be74       ?DloadProtectSection@@YAXKPEAK@Z 000000018000ce74 f i DelayImp:delayhlp.obj
 0001:0000bf04       ?DloadReleaseSectionWriteAccess@@YAXXZ 000000018000cf04 f i DelayImp:delayhlp.obj
 0001:0000c048       __HrLoadAllImportsForDll   000000018000d048 f   DelayImp:delayhlp.obj
 0001:0000c0bc       __delayLoadHelper2         000000018000d0bc f   DelayImp:delayhlp.obj
 0001:0000c3c2       __imp_load_uv_queue_work   000000018000d3c2 f   node:node.exe
 0001:0000c3ce       __tailMerge_node_exe       000000018000d3ce f i node:node.exe
 0001:0000c447       __imp_load_?Global@Context@v8@@QEAA?AV?$Local@VObject@v8@@@2@XZ 000000018000d447 f   node:node.exe
 0001:0000c453       __imp_load_?Value@External@v8@@QEBAPEAXXZ 000000018000d453 f   node:node.exe
 0001:0000c45f       __imp_load_?New@External@v8@@SA?AV?$Local@VExternal@v8@@@2@PEAVIsolate@2@PEAX@Z 000000018000d45f f   node:node.exe
 0001:0000c46b       __imp_load_?New@Integer@v8@@SA?AV?$Local@VInteger@v8@@@2@PEAVIsolate@2@H@Z 000000018000d46b f   node:node.exe
 0001:0000c477       __imp_load_?New@Signature@v8@@SA?AV?$Local@VSignature@v8@@@2@PEAVIsolate@2@V?$Local@VFunctionTemplate@v8@@@2@@Z 000000018000d477 f   node:node.exe
 0001:0000c483       __imp_load_?CollectAllGarbage@Isolate@v8@@AEAAXPEBD@Z 000000018000d483 f   node:node.exe
 0001:0000c48f       __imp_load_?VisitHandlesForPartialDependence@Isolate@v8@@QEAAXPEAVPersistentHandleVisitor@2@@Z 000000018000d48f f   node:node.exe
 0001:0000c49b       __imp_load_?VisitHandlesWithClassIds@Isolate@v8@@QEAAXPEAVPersistentHandleVisitor@2@@Z 000000018000d49b f   node:node.exe
 0001:0000c4a7       __imp_load_?VisitExternalResources@Isolate@v8@@QEAAXPEAVExternalResourceVisitor@2@@Z 000000018000d4a7 f   node:node.exe
 0001:0000c4b3       __imp_load_?RemoveMemoryAllocationCallback@Isolate@v8@@QEAAXP6AXW4ObjectSpace@2@W4AllocationAction@2@H@Z@Z 000000018000d4b3 f   node:node.exe
 0001:0000c4bf       __imp_load_?AddMemoryAllocationCallback@Isolate@v8@@QEAAXP6AXW4ObjectSpace@2@W4AllocationAction@2@H@Z01@Z 000000018000d4bf f   node:node.exe
 0001:0000c4cb       __imp_load_?SetCaptureStackTraceForUncaughtExceptions@Isolate@v8@@QEAAX_NHW4StackTraceOptions@StackTrace@2@@Z 000000018000d4cb f   node:node.exe
 0001:0000c4d7       __imp_load_?SetFailedAccessCheckCallbackFunction@Isolate@v8@@QEAAXP6AXV?$Local@VObject@v8@@@2@W4AccessType@2@V?$Local@VValue@v8@@@2@@Z@Z 000000018000d4d7 f   node:node.exe
 0001:0000c4e3       __imp_load_?RemoveMessageListeners@Isolate@v8@@QEAAXP6AXV?$Local@VMessage@v8@@@2@V?$Local@VValue@v8@@@2@@Z@Z 000000018000d4e3 f   node:node.exe
 0001:0000c4ef       __imp_load_?AddMessageListener@Isolate@v8@@QEAA_NP6AXV?$Local@VMessage@v8@@@2@V?$Local@VValue@v8@@@2@@Z1@Z 000000018000d4ef f   node:node.exe
 0001:0000c4fb       __imp_load_?IsDead@Isolate@v8@@QEAA_NXZ 000000018000d4fb f   node:node.exe
 0001:0000c507       __imp_load_?SetAllowCodeGenerationFromStringsCallback@Isolate@v8@@QEAAXP6A_NV?$Local@VContext@v8@@@2@@Z@Z 000000018000d507 f   node:node.exe
 0001:0000c513       __imp_load_?SetFatalErrorHandler@Isolate@v8@@QEAAXP6AXPEBD0@Z@Z 000000018000d513 f   node:node.exe
 0001:0000c51f       __imp_load_?CancelTerminateExecution@Isolate@v8@@QEAAXXZ 000000018000d51f f   node:node.exe
 0001:0000c52b       __imp_load_?IsExecutionTerminating@Isolate@v8@@QEAA_NXZ 000000018000d52b f   node:node.exe
 0001:0000c537       __imp_load_?TerminateExecution@Isolate@v8@@QEAAXXZ 000000018000d537 f   node:node.exe
 0001:0000c543       __imp_load_?RemoveGCEpilogueCallback@Isolate@v8@@QEAAXP6AXPEAV12@W4GCType@2@W4GCCallbackFlags@2@@Z@Z 000000018000d543 f   node:node.exe
 0001:0000c54f       __imp_load_?RemoveGCPrologueCallback@Isolate@v8@@QEAAXP6AXPEAV12@W4GCType@2@W4GCCallbackFlags@2@@Z@Z 000000018000d54f f   node:node.exe
 0001:0000c55b       __imp_load_?ThrowException@Isolate@v8@@QEAA?AV?$Local@VValue@v8@@@2@V32@@Z 000000018000d55b f   node:node.exe
 0001:0000c567       __imp_load_?GetCurrentContext@Isolate@v8@@QEAA?AV?$Local@VContext@v8@@@2@XZ 000000018000d567 f   node:node.exe
 0001:0000c573       __imp_load_?Exit@Isolate@v8@@QEAAXXZ 000000018000d573 f   node:node.exe
 0001:0000c57f       __imp_load_?Enter@Isolate@v8@@QEAAXXZ 000000018000d57f f   node:node.exe
 0001:0000c58b       __imp_load_?GetCurrent@Isolate@v8@@SAPEAV12@XZ 000000018000d58b f   node:node.exe
 0001:0000c597       __imp_load_?ResetToBookmark@ExternalSourceStream@ScriptCompiler@v8@@UEAAXXZ 000000018000d597 f   node:node.exe
 0001:0000c5a3       ?ResetToBookmark@ExternalSourceStream@ScriptCompiler@v8@@UEAAXXZ 000000018000d5a3 f   node:node.exe
 0001:0000c5a9       __imp_load_?SetBookmark@ExternalSourceStream@ScriptCompiler@v8@@UEAA_NXZ 000000018000d5a9 f   node:node.exe
 0001:0000c5b5       ?SetBookmark@ExternalSourceStream@ScriptCompiler@v8@@UEAA_NXZ 000000018000d5b5 f   node:node.exe
 0001:0000c5bb       __imp_load_?CreateHandle@HandleScope@v8@@KAPEAPEAVObject@internal@2@PEAVIsolate@42@PEAV342@@Z 000000018000d5bb f   node:node.exe
 0001:0000c5c7       __imp_load_?CreateHandle@HandleScope@v8@@CAPEAPEAVObject@internal@2@PEAVHeapObject@42@PEAV342@@Z 000000018000d5c7 f   node:node.exe
 0001:0000c5d3       __imp_load_??1HandleScope@v8@@QEAA@XZ 000000018000d5d3 f   node:node.exe
 0001:0000c5df       __imp_load_??0HandleScope@v8@@QEAA@PEAVIsolate@1@@Z 000000018000d5df f   node:node.exe
 0001:0000c5eb       __imp_load_?Set@Template@v8@@QEAAXV?$Local@VName@v8@@@2@V?$Local@VData@v8@@@2@W4PropertyAttribute@2@@Z 000000018000d5eb f   node:node.exe
 0001:0000c5f7       __imp_load_?Error@Exception@v8@@SA?AV?$Local@VValue@v8@@@2@V?$Local@VString@v8@@@2@@Z 000000018000d5f7 f   node:node.exe
 0001:0000c603       __imp_load_?TypeError@Exception@v8@@SA?AV?$Local@VValue@v8@@@2@V?$Local@VString@v8@@@2@@Z 000000018000d603 f   node:node.exe
 0001:0000c60f       __imp_load_?RangeError@Exception@v8@@SA?AV?$Local@VValue@v8@@@2@V?$Local@VString@v8@@@2@@Z 000000018000d60f f   node:node.exe
 0001:0000c61b       __imp_load_?Initialize@Locker@v8@@AEAAXPEAVIsolate@2@@Z 000000018000d61b f   node:node.exe
 0001:0000c627       __imp_load_?Initialize@Unlocker@v8@@AEAAXPEAVIsolate@2@@Z 000000018000d627 f   node:node.exe
 0001:0000c633       __imp_load_?PrototypeTemplate@FunctionTemplate@v8@@QEAA?AV?$Local@VObjectTemplate@v8@@@2@XZ 000000018000d633 f   node:node.exe
 0001:0000c63f       __imp_load_?InstanceTemplate@FunctionTemplate@v8@@QEAA?AV?$Local@VObjectTemplate@v8@@@2@XZ 000000018000d63f f   node:node.exe
 0001:0000c64b       __imp_load_?GetFunction@FunctionTemplate@v8@@QEAA?AV?$MaybeLocal@VFunction@v8@@@2@V?$Local@VContext@v8@@@2@@Z 000000018000d64b f   node:node.exe
 0001:0000c657       __imp_load_?New@FunctionTemplate@v8@@SA?AV?$Local@VFunctionTemplate@v8@@@2@PEAVIsolate@2@P6AXAEBV?$FunctionCallbackInfo@VValue@v8@@@2@@ZV?$Local@VValue@v8@@@2@V?$Local@VSignature@v8@@@2@H@Z 000000018000d657 f   node:node.exe
 0001:0000c663       __imp_load_?ToLocalEmpty@V8@v8@@CAXXZ 000000018000d663 f   node:node.exe
 0001:0000c66f       __imp_load_?FromJustIsNothing@V8@v8@@CAXXZ 000000018000d66f f   node:node.exe
 0001:0000c67b       __imp_load_?ClearWeak@V8@v8@@CAPEAXPEAPEAVObject@internal@2@@Z 000000018000d67b f   node:node.exe
 0001:0000c687       __imp_load_?MakeWeak@V8@v8@@CAXPEAPEAVObject@internal@2@PEAXP6AXAEBV?$WeakCallbackInfo@X@2@@ZW4WeakCallbackType@2@@Z 000000018000d687 f   node:node.exe
 0001:0000c693       __imp_load_?DisposeGlobal@V8@v8@@CAXPEAPEAVObject@internal@2@@Z 000000018000d693 f   node:node.exe
 0001:0000c69f       __imp_load_?GlobalizeReference@V8@v8@@CAPEAPEAVObject@internal@2@PEAVIsolate@42@PEAPEAV342@@Z 000000018000d69f f   node:node.exe
 0001:0000c6ab       __imp_load_?Int32Value@Value@v8@@QEBA?AV?$Maybe@H@2@V?$Local@VContext@v8@@@2@@Z 000000018000d6ab f   node:node.exe
 0001:0000c6b7       __imp_load_?Uint32Value@Value@v8@@QEBA?AV?$Maybe@I@2@V?$Local@VContext@v8@@@2@@Z 000000018000d6b7 f   node:node.exe
 0001:0000c6c3       __imp_load_?IntegerValue@Value@v8@@QEBA?AV?$Maybe@_J@2@V?$Local@VContext@v8@@@2@@Z 000000018000d6c3 f   node:node.exe
 0001:0000c6cf       __imp_load_?ToInt32@Value@v8@@QEBA?AV?$MaybeLocal@VInt32@v8@@@2@V?$Local@VContext@v8@@@2@@Z 000000018000d6cf f   node:node.exe
 0001:0000c6db       __imp_load_?ToUint32@Value@v8@@QEBA?AV?$MaybeLocal@VUint32@v8@@@2@V?$Local@VContext@v8@@@2@@Z 000000018000d6db f   node:node.exe
 0001:0000c6e7       __imp_load_?ToInteger@Value@v8@@QEBA?AV?$MaybeLocal@VInteger@v8@@@2@V?$Local@VContext@v8@@@2@@Z 000000018000d6e7 f   node:node.exe
 0001:0000c6f3       __imp_load_?ToObject@Value@v8@@QEBA?AV?$MaybeLocal@VObject@v8@@@2@V?$Local@VContext@v8@@@2@@Z 000000018000d6f3 f   node:node.exe
 0001:0000c6ff       __imp_load_?ToDetailString@Value@v8@@QEBA?AV?$MaybeLocal@VString@v8@@@2@V?$Local@VContext@v8@@@2@@Z 000000018000d6ff f   node:node.exe
 0001:0000c70b       __imp_load_?ToString@Value@v8@@QEBA?AV?$MaybeLocal@VString@v8@@@2@V?$Local@VContext@v8@@@2@@Z 000000018000d70b f   node:node.exe
 0001:0000c717       __imp_load_?ToNumber@Value@v8@@QEBA?AV?$MaybeLocal@VNumber@v8@@@2@V?$Local@VContext@v8@@@2@@Z 000000018000d717 f   node:node.exe
 0001:0000c723       __imp_load_?ToBoolean@Value@v8@@QEBA?AV?$MaybeLocal@VBoolean@v8@@@2@V?$Local@VContext@v8@@@2@@Z 000000018000d723 f   node:node.exe
 0001:0000c72f       __imp_load_?IsNumber@Value@v8@@QEBA_NXZ 000000018000d72f f   node:node.exe
 0001:0000c73b       __imp_load_?IsFunction@Value@v8@@QEBA_NXZ 000000018000d73b f   node:node.exe
 0001:0000c747       __imp_load_?Escape@EscapableHandleScope@v8@@AEAAPEAPEAVObject@internal@2@PEAPEAV342@@Z 000000018000d747 f   node:node.exe
 0001:0000c753       __imp_load_??0EscapableHandleScope@v8@@QEAA@PEAVIsolate@1@@Z 000000018000d753 f   node:node.exe
 0001:0000c75f       __imp_load_?NewFromUtf8@String@v8@@SA?AV?$Local@VString@v8@@@2@PEAVIsolate@2@PEBDW4NewStringType@12@H@Z 000000018000d75f f   node:node.exe
 0001:0000c76b       __imp_load_?NewFromUtf8@String@v8@@SA?AV?$MaybeLocal@VString@v8@@@2@PEAVIsolate@2@PEBDW4NewStringType@2@H@Z 000000018000d76b f   node:node.exe
 0001:0000c777       __imp_load_?WriteUtf8@String@v8@@QEBAHPEADHPEAHH@Z 000000018000d777 f   node:node.exe
 0001:0000c783       __imp_load_?Length@String@v8@@QEBAHXZ 000000018000d783 f   node:node.exe
 0001:0000c78f       __imp_load_?New@Number@v8@@SA?AV?$Local@VNumber@v8@@@2@PEAVIsolate@2@N@Z 000000018000d78f f   node:node.exe
 0001:0000c79b       __imp_load_?SlowGetAlignedPointerFromInternalField@Object@v8@@AEAAPEAXH@Z 000000018000d79b f   node:node.exe
 0001:0000c7a7       __imp_load_?SlowGetInternalField@Object@v8@@AEAA?AV?$Local@VValue@v8@@@2@H@Z 000000018000d7a7 f   node:node.exe
 0001:0000c7b3       __imp_load_?New@Object@v8@@SA?AV?$Local@VObject@v8@@@2@PEAVIsolate@2@@Z 000000018000d7b3 f   node:node.exe
 0001:0000c7bf       __imp_load_?GetIsolate@Object@v8@@QEAAPEAVIsolate@2@XZ 000000018000d7bf f   node:node.exe
 0001:0000c7cb       __imp_load_?SetAlignedPointerInInternalField@Object@v8@@QEAAXHPEAX@Z 000000018000d7cb f   node:node.exe
 0001:0000c7d7       __imp_load_?SetInternalField@Object@v8@@QEAAXHV?$Local@VValue@v8@@@2@@Z 000000018000d7d7 f   node:node.exe
 0001:0000c7e3       __imp_load_?InternalFieldCount@Object@v8@@QEAAHXZ 000000018000d7e3 f   node:node.exe
 0001:0000c7ef       __imp_load_?Get@Object@v8@@QEAA?AV?$MaybeLocal@VValue@v8@@@2@V?$Local@VContext@v8@@@2@V?$Local@VValue@v8@@@2@@Z 000000018000d7ef f   node:node.exe
 0001:0000c7fb       __imp_load_?ForceSet@Object@v8@@QEAA_NV?$Local@VValue@v8@@@2@0W4PropertyAttribute@2@@Z 000000018000d7fb f   node:node.exe
 0001:0000c807       __imp_load_?Set@Object@v8@@QEAA_NV?$Local@VValue@v8@@@2@0@Z 000000018000d807 f   node:node.exe
 0001:0000c813       __imp_load_?Set@Object@v8@@QEAA?AV?$Maybe@_N@2@V?$Local@VContext@v8@@@2@V?$Local@VValue@v8@@@2@1@Z 000000018000d813 f   node:node.exe
 0001:0000c81f       __imp_load_?SetName@Function@v8@@QEAAXV?$Local@VString@v8@@@2@@Z 000000018000d81f f   node:node.exe
 0001:0000c82b       __imp_load_?NewInstance@Function@v8@@QEBA?AV?$MaybeLocal@VObject@v8@@@2@V?$Local@VContext@v8@@@2@HQEAV?$Local@VValue@v8@@@2@@Z 000000018000d82b f   node:node.exe
 0001:0000c837       __imp_load_?SetInternalFieldCount@ObjectTemplate@v8@@QEAAXH@Z 000000018000d837 f   node:node.exe
 0001:0000c843       __imp_load_?SetHandler@ObjectTemplate@v8@@QEAAXAEBUIndexedPropertyHandlerConfiguration@2@@Z 000000018000d843 f   node:node.exe
 0001:0000c84f       __imp_load_?SetAccessor@ObjectTemplate@v8@@QEAAXV?$Local@VName@v8@@@2@P6AX0AEBV?$PropertyCallbackInfo@VValue@v8@@@2@@ZP6AX0V?$Local@VValue@v8@@@2@AEBV?$PropertyCallbackInfo@X@2@@Z3W4AccessControl@2@W4PropertyAttribute@2@V?$Local@VAccessorSignature@v8@@@2@@Z 000000018000d84f f   node:node.exe
 0001:0000c85b       __imp_load_?NewInstance@ObjectTemplate@v8@@QEAA?AV?$MaybeLocal@VObject@v8@@@2@V?$Local@VContext@v8@@@2@@Z 000000018000d85b f   node:node.exe
 0001:0000c867       __imp_load_?New@ObjectTemplate@v8@@SA?AV?$Local@VObjectTemplate@v8@@@2@PEAVIsolate@2@V?$Local@VFunctionTemplate@v8@@@2@@Z 000000018000d867 f   node:node.exe
 0001:0000c873       __imp_load_uv_close        000000018000d873 f   node:node.exe
 0001:0000c87f       __imp_load_uv_poll_stop    000000018000d87f f   node:node.exe
 0001:0000c88b       __imp_load_node_module_register 000000018000d88b f   node:node.exe
 0001:0000c897       __imp_load_?HasInstance@Buffer@node@@YA_NV?$Local@VValue@v8@@@v8@@@Z 000000018000d897 f   node:node.exe
 0001:0000c8a3       __imp_load_?New@Buffer@node@@YA?AV?$MaybeLocal@VObject@v8@@@v8@@PEAVIsolate@4@PEAD_KP6AX1PEAX@Z3@Z 000000018000d8a3 f   node:node.exe
 0001:0000c8af       __imp_load_?Data@Buffer@node@@YAPEADV?$Local@VObject@v8@@@v8@@@Z 000000018000d8af f   node:node.exe
 0001:0000c8bb       __imp_load_?Length@Buffer@node@@YA_KV?$Local@VObject@v8@@@v8@@@Z 000000018000d8bb f   node:node.exe
 0001:0000c8c7       __imp_load_?MakeCallback@node@@YA?AV?$Local@VValue@v8@@@v8@@PEAVIsolate@3@V?$Local@VObject@v8@@@3@V?$Local@VFunction@v8@@@3@HPEAV23@@Z 000000018000d8c7 f   node:node.exe
 0001:0000c8d3       __imp_load_uv_timer_init   000000018000d8d3 f   node:node.exe
 0001:0000c8df       __imp_load_uv_timer_stop   000000018000d8df f   node:node.exe
 0001:0000c8eb       __imp_load_uv_timer_start  000000018000d8eb f   node:node.exe
 0001:0000c8f7       __imp_load_uv_poll_init_socket 000000018000d8f7 f   node:node.exe
 0001:0000c903       __imp_load_uv_poll_start   000000018000d903 f   node:node.exe
 0001:0000c90f       __imp_load_uv_default_loop 000000018000d90f f   node:node.exe
 0001:0000c91b       __imp_load_zmq_bind        000000018000d91b f   libzmq-v100-mt-4_0_4:libzmq-v100-mt-4_0_4.dll
 0001:0000c927       __tailMerge_libzmq_v100_mt_4_0_4_dll 000000018000d927 f i libzmq-v100-mt-4_0_4:libzmq-v100-mt-4_0_4.dll
 0001:0000c9a0       __imp_load_zmq_setsockopt  000000018000d9a0 f   libzmq-v100-mt-4_0_4:libzmq-v100-mt-4_0_4.dll
 0001:0000c9ac       __imp_load_zmq_poll        000000018000d9ac f   libzmq-v100-mt-4_0_4:libzmq-v100-mt-4_0_4.dll
 0001:0000c9b8       __imp_load_zmq_socket      000000018000d9b8 f   libzmq-v100-mt-4_0_4:libzmq-v100-mt-4_0_4.dll
 0001:0000c9c4       __imp_load_zmq_strerror    000000018000d9c4 f   libzmq-v100-mt-4_0_4:libzmq-v100-mt-4_0_4.dll
 0001:0000c9d0       __imp_load_zmq_recvmsg     000000018000d9d0 f   libzmq-v100-mt-4_0_4:libzmq-v100-mt-4_0_4.dll
 0001:0000c9dc       __imp_load_zmq_close       000000018000d9dc f   libzmq-v100-mt-4_0_4:libzmq-v100-mt-4_0_4.dll
 0001:0000c9e8       __imp_load_zmq_connect     000000018000d9e8 f   libzmq-v100-mt-4_0_4:libzmq-v100-mt-4_0_4.dll
 0001:0000c9f4       __imp_load_zmq_ctx_set     000000018000d9f4 f   libzmq-v100-mt-4_0_4:libzmq-v100-mt-4_0_4.dll
 0001:0000ca00       __imp_load_zmq_errno       000000018000da00 f   libzmq-v100-mt-4_0_4:libzmq-v100-mt-4_0_4.dll
 0001:0000ca0c       __imp_load_zmq_msg_init    000000018000da0c f   libzmq-v100-mt-4_0_4:libzmq-v100-mt-4_0_4.dll
 0001:0000ca18       __imp_load_zmq_curve_keypair 000000018000da18 f   libzmq-v100-mt-4_0_4:libzmq-v100-mt-4_0_4.dll
 0001:0000ca24       __imp_load_zmq_msg_init_size 000000018000da24 f   libzmq-v100-mt-4_0_4:libzmq-v100-mt-4_0_4.dll
 0001:0000ca30       __imp_load_zmq_msg_data    000000018000da30 f   libzmq-v100-mt-4_0_4:libzmq-v100-mt-4_0_4.dll
 0001:0000ca3c       __imp_load_zmq_msg_more    000000018000da3c f   libzmq-v100-mt-4_0_4:libzmq-v100-mt-4_0_4.dll
 0001:0000ca48       __imp_load_zmq_ctx_get     000000018000da48 f   libzmq-v100-mt-4_0_4:libzmq-v100-mt-4_0_4.dll
 0001:0000ca54       __imp_load_zmq_msg_send    000000018000da54 f   libzmq-v100-mt-4_0_4:libzmq-v100-mt-4_0_4.dll
 0001:0000ca60       __imp_load_zmq_socket_monitor 000000018000da60 f   libzmq-v100-mt-4_0_4:libzmq-v100-mt-4_0_4.dll
 0001:0000ca6c       __imp_load_zmq_msg_size    000000018000da6c f   libzmq-v100-mt-4_0_4:libzmq-v100-mt-4_0_4.dll
 0001:0000ca78       __imp_load_zmq_disconnect  000000018000da78 f   libzmq-v100-mt-4_0_4:libzmq-v100-mt-4_0_4.dll
 0001:0000ca84       __imp_load_zmq_init        000000018000da84 f   libzmq-v100-mt-4_0_4:libzmq-v100-mt-4_0_4.dll
 0001:0000ca90       __imp_load_zmq_version     000000018000da90 f   libzmq-v100-mt-4_0_4:libzmq-v100-mt-4_0_4.dll
 0001:0000ca9c       __imp_load_zmq_term        000000018000da9c f   libzmq-v100-mt-4_0_4:libzmq-v100-mt-4_0_4.dll
 0001:0000caa8       __imp_load_zmq_msg_close   000000018000daa8 f   libzmq-v100-mt-4_0_4:libzmq-v100-mt-4_0_4.dll
 0001:0000cab4       __imp_load_zmq_getsockopt  000000018000dab4 f   libzmq-v100-mt-4_0_4:libzmq-v100-mt-4_0_4.dll
 0001:0000cac0       __imp_load_zmq_unbind      000000018000dac0 f   libzmq-v100-mt-4_0_4:libzmq-v100-mt-4_0_4.dll
 0001:0000cacc       ??0bad_alloc@std@@QEAA@AEBV01@@Z 000000018000dacc f i libcpmt:xthrow.obj
 0001:0000cb0c       ??0bad_alloc@std@@QEAA@XZ  000000018000db0c f i libcpmt:xthrow.obj
 0001:0000cb2c       ??0exception@std@@QEAA@AEBV01@@Z 000000018000db2c f i libcpmt:xthrow.obj
 0001:0000cb64       ??0length_error@std@@QEAA@AEBV01@@Z 000000018000db64 f i libcpmt:xthrow.obj
 0001:0000cba4       ??0length_error@std@@QEAA@PEBD@Z 000000018000dba4 f i libcpmt:xthrow.obj
 0001:0000cbf0       ??0logic_error@std@@QEAA@AEBV01@@Z 000000018000dbf0 f i libcpmt:xthrow.obj
 0001:0000cc30       ??1bad_array_new_length@std@@UEAA@XZ 000000018000dc30 f i LIBCMT:throw_bad_alloc.obj
 0001:0000cc30       ??1length_error@std@@UEAA@XZ 000000018000dc30 f i libcpmt:xthrow.obj
 0001:0000cc30       ??1bad_alloc@std@@UEAA@XZ  000000018000dc30 f i libcpmt:xthrow.obj
 0001:0000cc44       ??_Gbad_array_new_length@std@@UEAAPEAXI@Z 000000018000dc44 f i LIBCMT:throw_bad_alloc.obj
 0001:0000cc44       ??_Glength_error@std@@UEAAPEAXI@Z 000000018000dc44 f i libcpmt:xthrow.obj
 0001:0000cc44       ??_Eexception@std@@UEAAPEAXI@Z 000000018000dc44 f i libcpmt:xthrow.obj
 0001:0000cc44       ??_Glogic_error@std@@UEAAPEAXI@Z 000000018000dc44 f i libcpmt:xthrow.obj
 0001:0000cc44       ??_Gbad_alloc@std@@UEAAPEAXI@Z 000000018000dc44 f i libcpmt:xthrow.obj
 0001:0000cc44       ??_Ebad_array_new_length@std@@UEAAPEAXI@Z 000000018000dc44 f i LIBCMT:throw_bad_alloc.obj
 0001:0000cc44       ??_Gexception@std@@UEAAPEAXI@Z 000000018000dc44 f i libcpmt:xthrow.obj
 0001:0000cc44       ??_Elogic_error@std@@UEAAPEAXI@Z 000000018000dc44 f i libcpmt:xthrow.obj
 0001:0000cc44       ??_Ebad_alloc@std@@UEAAPEAXI@Z 000000018000dc44 f i libcpmt:xthrow.obj
 0001:0000cc44       ??_Elength_error@std@@UEAAPEAXI@Z 000000018000dc44 f i libcpmt:xthrow.obj
 0001:0000cc88       ?_Xlength_error@std@@YAXPEBD@Z 000000018000dc88 f   libcpmt:xthrow.obj
 0001:0000ccac       ?what@exception@std@@UEBAPEBDXZ 000000018000dcac f i libcpmt:xthrow.obj
 0001:0000ccd0       __security_check_cookie    000000018000dcd0 f   LIBCMT:_amdsecgs_.obj
 0001:0000ccf4       ??3@YAXPEAX_K@Z            000000018000dcf4 f   LIBCMT:delete_scalar_size.obj
 0001:0000ccf4       ??_V@YAXPEAX@Z             000000018000dcf4 f   LIBCMT:delete_array.obj
 0001:0000ccfc       ??_V@YAXPEAX_K@Z           000000018000dcfc f   LIBCMT:delete_array_size.obj
 0001:0000cd04       __raise_securityfailure    000000018000dd04 f   LIBCMT:gs_report.obj
 0001:0000cd38       __report_gsfailure         000000018000dd38 f   LIBCMT:gs_report.obj
 0001:0000ce0c       __report_rangecheckfailure 000000018000de0c f   LIBCMT:gs_report.obj
 0001:0000ce20       __report_securityfailure   000000018000de20 f   LIBCMT:gs_report.obj
 0001:0000cfa0       ??2@YAPEAX_K@Z             000000018000dfa0 f   LIBCMT:new_scalar.obj
 0001:0000cfdc       __scrt_acquire_startup_lock 000000018000dfdc f   LIBCMT:utility.obj
 0001:0000d018       __scrt_dllmain_after_initialize_c 000000018000e018 f   LIBCMT:utility.obj
 0001:0000d038       __scrt_dllmain_before_initialize_c 000000018000e038 f   LIBCMT:utility.obj
 0001:0000d050       __scrt_dllmain_crt_thread_attach 000000018000e050 f   LIBCMT:utility.obj
 0001:0000d078       __scrt_dllmain_crt_thread_detach 000000018000e078 f   LIBCMT:utility.obj
 0001:0000d090       __scrt_dllmain_exception_filter 000000018000e090 f   LIBCMT:utility.obj
 0001:0000d0f4       __scrt_dllmain_uninitialize_c 000000018000e0f4 f   LIBCMT:utility.obj
 0001:0000d124       __scrt_dllmain_uninitialize_critical 000000018000e124 f   LIBCMT:utility.obj
 0001:0000d138       __scrt_initialize_crt      000000018000e138 f   LIBCMT:utility.obj
 0001:0000d184       __scrt_initialize_onexit_tables 000000018000e184 f   LIBCMT:utility.obj
 0001:0000d250       __scrt_is_nonwritable_in_current_image 000000018000e250 f   LIBCMT:utility.obj
 0001:0000d2ec       __scrt_release_startup_lock 000000018000e2ec f   LIBCMT:utility.obj
 0001:0000d310       __scrt_uninitialize_crt    000000018000e310 f   LIBCMT:utility.obj
 0001:0000d33c       _onexit                    000000018000e33c f   LIBCMT:utility.obj
 0001:0000d38c       atexit                     000000018000e38c f   LIBCMT:utility.obj
 0001:0000d3a4       ??3@YAXPEAX@Z              000000018000e3a4 f   LIBCMT:delete_scalar.obj
 0001:0000d3ac       ??_Gtype_info@@UEAAPEAXI@Z 000000018000e3ac f i LIBCMT:std_type_info_static.obj
 0001:0000d3ac       ??_Etype_info@@UEAAPEAXI@Z 000000018000e3ac f i LIBCMT:std_type_info_static.obj
 0001:0000d734       _DllMainCRTStartup         000000018000e734 f   LIBCMT:dll_dllmain.obj
 0001:0000d774       ??0bad_array_new_length@std@@QEAA@AEBV01@@Z 000000018000e774 f i LIBCMT:throw_bad_alloc.obj
 0001:0000d7b4       ??0bad_array_new_length@std@@QEAA@XZ 000000018000e7b4 f i LIBCMT:throw_bad_alloc.obj
 0001:0000d7d4       ?__scrt_throw_std_bad_alloc@@YAXXZ 000000018000e7d4 f   LIBCMT:throw_bad_alloc.obj
 0001:0000d7f4       ?__scrt_throw_std_bad_array_new_length@@YAXXZ 000000018000e7f4 f   LIBCMT:throw_bad_alloc.obj
 0001:0000d814       __isa_available_init       000000018000e814 f   LIBCMT:_cpu_disp_.obj
 0001:0000d9d8       __scrt_is_ucrt_dll_in_use  000000018000e9d8 f   LIBCMT:ucrt_detection.obj
 0001:0000d9e4       __crt_debugger_hook        000000018000e9e4 f   LIBCMT:utility_desktop.obj
 0001:0000d9ec       __scrt_fastfail            000000018000e9ec f   LIBCMT:utility_desktop.obj
 0001:0000db34       _guard_check_icall         000000018000eb34 f i LIBCMT:checkcfg.obj
 0001:0000db3c       __security_init_cookie     000000018000eb3c f   LIBCMT:gs_support.obj
 0001:0000dbe8       DllMain                    000000018000ebe8 f   LIBCMT:dll_dllmain_stub.obj
 0001:0000dbf0       ?__scrt_initialize_type_info@@YAXXZ 000000018000ebf0 f   LIBCMT:tncleanup.obj
 0001:0000dc00       ?__scrt_uninitialize_type_info@@YAXXZ 000000018000ec00 f   LIBCMT:tncleanup.obj
 0001:0000dc0c       __local_stdio_scanf_options 000000018000ec0c f i LIBCMT:default_local_stdio_options.obj
 0001:0000dc14       __scrt_initialize_default_local_stdio_options 000000018000ec14 f   LIBCMT:default_local_stdio_options.obj
 0001:0000dc30       __scrt_get_dyn_tls_init_callback 000000018000ec30 f   LIBCMT:dyn_tls_init.obj
 0001:0000dc38       _RTC_Initialize            000000018000ec38 f   LIBCMT:_initsect_.obj
 0001:0000dc84       _RTC_Terminate             000000018000ec84 f   LIBCMT:_initsect_.obj
 0001:0000dce0       memmove                    000000018000ece0 f   libvcruntime:memcpy.obj
 0001:0000dce0       memcpy                     000000018000ece0 f   libvcruntime:memcpy.obj
 0001:0000e118       _purecall                  000000018000f118 f   libvcruntime:purevirt.obj
 0001:0000e154       wcsrchr                    000000018000f154 f   libvcruntime:wcsrchr.obj
 0001:0000e204       __std_exception_copy       000000018000f204 f   libvcruntime:std_exception.obj
 0001:0000e294       __std_exception_destroy    000000018000f294 f   libvcruntime:std_exception.obj
 0001:0000e2bc       _CxxThrowException         000000018000f2bc f   libvcruntime:throw.obj
 0001:0000e394       __vcrt_initialize          000000018000f394 f   libvcruntime:initialization.obj
 0001:0000e3cc       __vcrt_thread_attach       000000018000f3cc f   libvcruntime:initialization.obj
 0001:0000e3e0       __vcrt_thread_detach       000000018000f3e0 f   libvcruntime:initialization.obj
 0001:0000e3f4       __vcrt_uninitialize        000000018000f3f4 f   libvcruntime:initialization.obj
 0001:0000e420       __vcrt_uninitialize_critical 000000018000f420 f   libvcruntime:initialization.obj
 0001:0000e430       __C_specific_handler       000000018000f430 f   libvcruntime:_chandler_.obj
 0001:0000e624       __telemetry_main_invoke_trigger 000000018000f624 f   libvcruntime:telemetry.obj
 0001:0000e73c       __telemetry_main_return_trigger 000000018000f73c f   libvcruntime:telemetry.obj
 0001:0000e854       __vcrt_initialize_telemetry_provider 000000018000f854 f   libvcruntime:telemetry.obj
 0001:0000e868       __vcrt_uninitialize_telemetry_provider 000000018000f868 f   libvcruntime:telemetry.obj
 0001:0000e8a0       memset                     000000018000f8a0 f   libvcruntime:memset.obj
 0001:0000ea40       __std_type_info_destroy_list 000000018000fa40 f   libvcruntime:std_type_info.obj
 0001:0000ea6c       __vcrt_initialize_pure_virtual_call_handler 000000018000fa6c f   libvcruntime:purevirt_data.obj
 0001:0000ea90       __vcrt_freefls             000000018000fa90 f   libvcruntime:per_thread_data.obj
 0001:0000eab0       __vcrt_freeptd             000000018000fab0 f   libvcruntime:per_thread_data.obj
 0001:0000eb00       __vcrt_getptd_noexit       000000018000fb00 f   libvcruntime:per_thread_data.obj
 0001:0000eba8       __vcrt_initialize_ptd      000000018000fba8 f   libvcruntime:per_thread_data.obj
 0001:0000ebe8       __vcrt_uninitialize_ptd    000000018000fbe8 f   libvcruntime:per_thread_data.obj
 0001:0000ec0c       __vcrt_initialize_locks    000000018000fc0c f   libvcruntime:locks.obj
 0001:0000ec54       __vcrt_uninitialize_locks  000000018000fc54 f   libvcruntime:locks.obj
 0001:0000ee54       __vcrt_EventRegister       000000018000fe54 f   libvcruntime:winapi_downlevel.obj
 0001:0000eed8       __vcrt_EventSetInformation 000000018000fed8 f   libvcruntime:winapi_downlevel.obj
 0001:0000ef5c       __vcrt_EventUnregister     000000018000ff5c f   libvcruntime:winapi_downlevel.obj
 0001:0000efb0       __vcrt_EventWriteTransfer  000000018000ffb0 f   libvcruntime:winapi_downlevel.obj
 0001:0000f048       __vcrt_FlsAlloc            0000000180010048 f   libvcruntime:winapi_downlevel.obj
 0001:0000f09c       __vcrt_FlsFree             000000018001009c f   libvcruntime:winapi_downlevel.obj
 0001:0000f0f0       __vcrt_FlsGetValue         00000001800100f0 f   libvcruntime:winapi_downlevel.obj
 0001:0000f144       __vcrt_FlsSetValue         0000000180010144 f   libvcruntime:winapi_downlevel.obj
 0001:0000f1ac       __vcrt_InitializeCriticalSectionEx 00000001800101ac f   libvcruntime:winapi_downlevel.obj
 0001:0000f224       __vcrt_initialize_winapi_thunks 0000000180010224 f   libvcruntime:winapi_downlevel.obj
 0001:0000f25c       __vcrt_uninitialize_winapi_thunks 000000018001025c f   libvcruntime:winapi_downlevel.obj
 0001:0000f2b0       _local_unwind              00000001800102b0 f   libvcruntime:_jmpuwind_.obj
 0001:0000f2e0       _NLG_Notify                00000001800102e0 f   libvcruntime:_jmpuwind_.obj
 0001:0000f300       __NLG_Dispatch2            0000000180010300 f   libvcruntime:_jmpuwind_.obj
 0001:0000f310       __NLG_Return2              0000000180010310 f   libvcruntime:_jmpuwind_.obj
 0001:0000f314       __acrt_call_reportfault    0000000180010314 f   libucrt:invalid_parameter.obj
 0001:0000f470       __acrt_initialize_invalid_parameter_handler 0000000180010470 f   libucrt:invalid_parameter.obj
 0001:0000f478       _invalid_parameter         0000000180010478 f   libucrt:invalid_parameter.obj
 0001:0000f520       _invalid_parameter_noinfo  0000000180010520 f   libucrt:invalid_parameter.obj
 0001:0000f540       _invalid_parameter_noinfo_noreturn 0000000180010540 f   libucrt:invalid_parameter.obj
 0001:0000f570       _invoke_watson             0000000180010570 f   libucrt:invalid_parameter.obj
 0001:0000f5b8       wcsncpy                    00000001800105b8 f   libucrt:wcsncpy.obj
 0001:0000f600       ??$?RV<lambda_7b91131dde12e1c3dfc74ff76b3f2eac>@@AEAV<lambda_dd75445284c072d0bd3768540cc698fa>@@V<lambda_16bc4ecb55b4718497c16bceaea2ceaf>@@@?$__crt_seh_guarded_call@H@@QEAAH$$QEAV<lambda_7b91131dde12e1c3dfc74ff76b3f2eac>@@AEAV<lambda_dd75445284c072d0bd3768540cc698fa>@@$$QEAV<lambda_16bc4ecb55b4718497c16bceaea2ceaf>@@@Z 0000000180010600 f i libucrt:output.obj
 0001:0000f7e8       ??$ensure_buffer_is_big_enough@D@formatting_buffer@__crt_stdio_output@@QEAA_N_K@Z 00000001800107e8 f i libucrt:output.obj
 0001:0000f894       ??$is_wide_character_specifier@D@__crt_stdio_output@@YA_N_KDW4length_modifier@0@@Z 0000000180010894 f i libucrt:output.obj
 0001:0000f8c4       ??$is_wide_character_specifier@_W@__crt_stdio_output@@YA_N_K_WW4length_modifier@0@@Z 00000001800108c4 f i libucrt:output.obj
 0001:0000f908       ??$type_case_integer_parse_into_buffer@I@?$output_processor@_WV?$stream_output_adapter@_W@__crt_stdio_output@@V?$standard_base@_WV?$stream_output_adapter@_W@__crt_stdio_output@@@2@@__crt_stdio_output@@AEAAXII_N@Z 0000000180010908 f i libucrt:output.obj
 0001:0000f908       ??$type_case_integer_parse_into_buffer@I@?$output_processor@DV?$string_output_adapter@D@__crt_stdio_output@@V?$standard_base@DV?$string_output_adapter@D@__crt_stdio_output@@@2@@__crt_stdio_output@@AEAAXII_N@Z 0000000180010908 f i libucrt:output.obj
 0001:0000f908       ??$type_case_integer_parse_into_buffer@I@?$output_processor@DV?$string_output_adapter@D@__crt_stdio_output@@V?$format_validation_base@DV?$string_output_adapter@D@__crt_stdio_output@@@2@@__crt_stdio_output@@AEAAXII_N@Z 0000000180010908 f i libucrt:output.obj
 0001:0000f908       ??$type_case_integer_parse_into_buffer@I@?$output_processor@_WV?$string_output_adapter@_W@__crt_stdio_output@@V?$standard_base@_WV?$string_output_adapter@_W@__crt_stdio_output@@@2@@__crt_stdio_output@@AEAAXII_N@Z 0000000180010908 f i libucrt:output.obj
 0001:0000f9a4       ??$type_case_integer_parse_into_buffer@_K@?$output_processor@_WV?$string_output_adapter@_W@__crt_stdio_output@@V?$standard_base@_WV?$string_output_adapter@_W@__crt_stdio_output@@@2@@__crt_stdio_output@@AEAAX_KI_N@Z 00000001800109a4 f i libucrt:output.obj
 0001:0000f9a4       ??$type_case_integer_parse_into_buffer@_K@?$output_processor@DV?$string_output_adapter@D@__crt_stdio_output@@V?$standard_base@DV?$string_output_adapter@D@__crt_stdio_output@@@2@@__crt_stdio_output@@AEAAX_KI_N@Z 00000001800109a4 f i libucrt:output.obj
 0001:0000f9a4       ??$type_case_integer_parse_into_buffer@_K@?$output_processor@DV?$string_output_adapter@D@__crt_stdio_output@@V?$format_validation_base@DV?$string_output_adapter@D@__crt_stdio_output@@@2@@__crt_stdio_output@@AEAAX_KI_N@Z 00000001800109a4 f i libucrt:output.obj
 0001:0000f9a4       ??$type_case_integer_parse_into_buffer@_K@?$output_processor@_WV?$stream_output_adapter@_W@__crt_stdio_output@@V?$standard_base@_WV?$stream_output_adapter@_W@__crt_stdio_output@@@2@@__crt_stdio_output@@AEAAX_KI_N@Z 00000001800109a4 f i libucrt:output.obj
 0001:0000fa40       ??$write_multiple_characters@V?$stream_output_adapter@_W@__crt_stdio_output@@D@__crt_stdio_output@@YAXAEBV?$stream_output_adapter@_W@0@DHQEAH@Z 0000000180010a40 f i libucrt:output.obj
 0001:0000fad0       ??$write_multiple_characters@V?$string_output_adapter@D@__crt_stdio_output@@D@__crt_stdio_output@@YAXAEBV?$string_output_adapter@D@0@DHQEAH@Z 0000000180010ad0 f i libucrt:output.obj
 0001:0000fb2c       ??$write_multiple_characters@V?$string_output_adapter@_W@__crt_stdio_output@@D@__crt_stdio_output@@YAXAEBV?$string_output_adapter@_W@0@DHQEAH@Z 0000000180010b2c f i libucrt:output.obj
 0001:0000fb9c       ??0?$output_processor@DV?$string_output_adapter@D@__crt_stdio_output@@V?$format_validation_base@DV?$string_output_adapter@D@__crt_stdio_output@@@2@@__crt_stdio_output@@QEAA@AEBV?$string_output_adapter@D@1@_KQEBDQEAU__crt_locale_pointers@@QEAD@Z 0000000180010b9c f i libucrt:output.obj
 0001:0000fb9c       ??0?$output_processor@DV?$string_output_adapter@D@__crt_stdio_output@@V?$standard_base@DV?$string_output_adapter@D@__crt_stdio_output@@@2@@__crt_stdio_output@@QEAA@AEBV?$string_output_adapter@D@1@_KQEBDQEAU__crt_locale_pointers@@QEAD@Z 0000000180010b9c f i libucrt:output.obj
 0001:0000fc18       ??0?$output_processor@_WV?$string_output_adapter@_W@__crt_stdio_output@@V?$standard_base@_WV?$string_output_adapter@_W@__crt_stdio_output@@@2@@__crt_stdio_output@@QEAA@AEBV?$string_output_adapter@_W@1@_KQEB_WQEAU__crt_locale_pointers@@QEAD@Z 0000000180010c18 f i libucrt:output.obj
 0001:0000fc18       ??0?$output_processor@_WV?$stream_output_adapter@_W@__crt_stdio_output@@V?$standard_base@_WV?$stream_output_adapter@_W@__crt_stdio_output@@@2@@__crt_stdio_output@@QEAA@AEBV?$stream_output_adapter@_W@1@_KQEB_WQEAU__crt_locale_pointers@@QEAD@Z 0000000180010c18 f i libucrt:output.obj
 0001:0000fc98       ??0_LocaleUpdate@@QEAA@QEAU__crt_locale_pointers@@@Z 0000000180010c98 f i libucrt:output.obj
 0001:0000fe18       ?force_decimal_point@__crt_stdio_output@@YAXPEADQEAU__crt_locale_pointers@@@Z 0000000180010e18 f i libucrt:output.obj
 0001:0000fe88       ?parse_int_from_format_string@?$output_processor@DV?$string_output_adapter@D@__crt_stdio_output@@V?$standard_base@DV?$string_output_adapter@D@__crt_stdio_output@@@2@@__crt_stdio_output@@AEAA_NQEAH@Z 0000000180010e88 f i libucrt:output.obj
 0001:0000fe88       ?parse_int_from_format_string@?$output_processor@DV?$string_output_adapter@D@__crt_stdio_output@@V?$format_validation_base@DV?$string_output_adapter@D@__crt_stdio_output@@@2@@__crt_stdio_output@@AEAA_NQEAH@Z 0000000180010e88 f i libucrt:output.obj
 0001:0000ff0c       ?parse_int_from_format_string@?$output_processor@_WV?$stream_output_adapter@_W@__crt_stdio_output@@V?$standard_base@_WV?$stream_output_adapter@_W@__crt_stdio_output@@@2@@__crt_stdio_output@@AEAA_NQEAH@Z 0000000180010f0c f i libucrt:output.obj
 0001:0000ff0c       ?parse_int_from_format_string@?$output_processor@_WV?$string_output_adapter@_W@__crt_stdio_output@@V?$standard_base@_WV?$string_output_adapter@_W@__crt_stdio_output@@@2@@__crt_stdio_output@@AEAA_NQEAH@Z 0000000180010f0c f i libucrt:output.obj
 0001:0000ff8c       ?process@?$output_processor@DV?$string_output_adapter@D@__crt_stdio_output@@V?$format_validation_base@DV?$string_output_adapter@D@__crt_stdio_output@@@2@@__crt_stdio_output@@QEAAHXZ 0000000180010f8c f i libucrt:output.obj
 0001:000101a0       ?process@?$output_processor@DV?$string_output_adapter@D@__crt_stdio_output@@V?$standard_base@DV?$string_output_adapter@D@__crt_stdio_output@@@2@@__crt_stdio_output@@QEAAHXZ 00000001800111a0 f i libucrt:output.obj
 0001:000103a4       ?process@?$output_processor@_WV?$stream_output_adapter@_W@__crt_stdio_output@@V?$standard_base@_WV?$stream_output_adapter@_W@__crt_stdio_output@@@2@@__crt_stdio_output@@QEAAHXZ 00000001800113a4 f i libucrt:output.obj
 0001:0001061c       ?process@?$output_processor@_WV?$string_output_adapter@_W@__crt_stdio_output@@V?$standard_base@_WV?$string_output_adapter@_W@__crt_stdio_output@@@2@@__crt_stdio_output@@QEAAHXZ 000000018001161c f i libucrt:output.obj
 0001:00010898       ?state_case_normal@?$output_processor@DV?$string_output_adapter@D@__crt_stdio_output@@V?$format_validation_base@DV?$string_output_adapter@D@__crt_stdio_output@@@2@@__crt_stdio_output@@AEAA_NXZ 0000000180011898 f i libucrt:output.obj
 0001:00010898       ?state_case_normal@?$output_processor@DV?$string_output_adapter@D@__crt_stdio_output@@V?$standard_base@DV?$string_output_adapter@D@__crt_stdio_output@@@2@@__crt_stdio_output@@AEAA_NXZ 0000000180011898 f i libucrt:output.obj
 0001:0001090c       ?state_case_normal_tchar@?$output_processor@DV?$string_output_adapter@D@__crt_stdio_output@@V?$standard_base@DV?$string_output_adapter@D@__crt_stdio_output@@@2@@__crt_stdio_output@@AEAA_ND@Z 000000018001190c f i libucrt:output.obj
 0001:0001090c       ?state_case_normal_tchar@?$output_processor@DV?$string_output_adapter@D@__crt_stdio_output@@V?$format_validation_base@DV?$string_output_adapter@D@__crt_stdio_output@@@2@@__crt_stdio_output@@AEAA_ND@Z 000000018001190c f i libucrt:output.obj
 0001:000109a4       ?state_case_size@?$output_processor@DV?$string_output_adapter@D@__crt_stdio_output@@V?$format_validation_base@DV?$string_output_adapter@D@__crt_stdio_output@@@2@@__crt_stdio_output@@AEAA_NXZ 00000001800119a4 f i libucrt:output.obj
 0001:000109a4       ?state_case_size@?$output_processor@DV?$string_output_adapter@D@__crt_stdio_output@@V?$standard_base@DV?$string_output_adapter@D@__crt_stdio_output@@@2@@__crt_stdio_output@@AEAA_NXZ 00000001800119a4 f i libucrt:output.obj
 0001:00010b20       ?state_case_size@?$output_processor@_WV?$stream_output_adapter@_W@__crt_stdio_output@@V?$standard_base@_WV?$stream_output_adapter@_W@__crt_stdio_output@@@2@@__crt_stdio_output@@AEAA_NXZ 0000000180011b20 f i libucrt:output.obj
 0001:00010cc4       ?state_case_size@?$output_processor@_WV?$string_output_adapter@_W@__crt_stdio_output@@V?$standard_base@_WV?$string_output_adapter@_W@__crt_stdio_output@@@2@@__crt_stdio_output@@AEAA_NXZ 0000000180011cc4 f i libucrt:output.obj
 0001:00010e68       ?state_case_type@?$output_processor@DV?$string_output_adapter@D@__crt_stdio_output@@V?$format_validation_base@DV?$string_output_adapter@D@__crt_stdio_output@@@2@@__crt_stdio_output@@AEAA_NXZ 0000000180011e68 f i libucrt:output.obj
 0001:00010e68       ?state_case_type@?$output_processor@DV?$string_output_adapter@D@__crt_stdio_output@@V?$standard_base@DV?$string_output_adapter@D@__crt_stdio_output@@@2@@__crt_stdio_output@@AEAA_NXZ 0000000180011e68 f i libucrt:output.obj
 0001:000110e4       ?state_case_type@?$output_processor@_WV?$stream_output_adapter@_W@__crt_stdio_output@@V?$standard_base@_WV?$stream_output_adapter@_W@__crt_stdio_output@@@2@@__crt_stdio_output@@AEAA_NXZ 00000001800120e4 f i libucrt:output.obj
 0001:000113b0       ?state_case_type@?$output_processor@_WV?$string_output_adapter@_W@__crt_stdio_output@@V?$standard_base@_WV?$string_output_adapter@_W@__crt_stdio_output@@@2@@__crt_stdio_output@@AEAA_NXZ 00000001800123b0 f i libucrt:output.obj
 0001:0001167c       ?type_case_Z@?$output_processor@DV?$string_output_adapter@D@__crt_stdio_output@@V?$format_validation_base@DV?$string_output_adapter@D@__crt_stdio_output@@@2@@__crt_stdio_output@@AEAA_NXZ 000000018001267c f i libucrt:output.obj
 0001:0001167c       ?type_case_Z@?$output_processor@DV?$string_output_adapter@D@__crt_stdio_output@@V?$standard_base@DV?$string_output_adapter@D@__crt_stdio_output@@@2@@__crt_stdio_output@@AEAA_NXZ 000000018001267c f i libucrt:output.obj
 0001:000116fc       ?type_case_Z@?$output_processor@_WV?$stream_output_adapter@_W@__crt_stdio_output@@V?$standard_base@_WV?$stream_output_adapter@_W@__crt_stdio_output@@@2@@__crt_stdio_output@@AEAA_NXZ 00000001800126fc f i libucrt:output.obj
 0001:000116fc       ?type_case_Z@?$output_processor@_WV?$string_output_adapter@_W@__crt_stdio_output@@V?$standard_base@_WV?$string_output_adapter@_W@__crt_stdio_output@@@2@@__crt_stdio_output@@AEAA_NXZ 00000001800126fc f i libucrt:output.obj
 0001:0001177c       ?type_case_a@?$output_processor@DV?$string_output_adapter@D@__crt_stdio_output@@V?$standard_base@DV?$string_output_adapter@D@__crt_stdio_output@@@2@@__crt_stdio_output@@AEAA_NXZ 000000018001277c f i libucrt:output.obj
 0001:0001177c       ?type_case_a@?$output_processor@DV?$string_output_adapter@D@__crt_stdio_output@@V?$format_validation_base@DV?$string_output_adapter@D@__crt_stdio_output@@@2@@__crt_stdio_output@@AEAA_NXZ 000000018001277c f i libucrt:output.obj
 0001:00011998       ?type_case_a@?$output_processor@_WV?$string_output_adapter@_W@__crt_stdio_output@@V?$standard_base@_WV?$string_output_adapter@_W@__crt_stdio_output@@@2@@__crt_stdio_output@@AEAA_NXZ 0000000180012998 f i libucrt:output.obj
 0001:00011998       ?type_case_a@?$output_processor@_WV?$stream_output_adapter@_W@__crt_stdio_output@@V?$standard_base@_WV?$stream_output_adapter@_W@__crt_stdio_output@@@2@@__crt_stdio_output@@AEAA_NXZ 0000000180012998 f i libucrt:output.obj
 0001:00011bdc       ?type_case_c_tchar@?$output_processor@DV?$string_output_adapter@D@__crt_stdio_output@@V?$format_validation_base@DV?$string_output_adapter@D@__crt_stdio_output@@@2@@__crt_stdio_output@@AEAA_ND@Z 0000000180012bdc f i libucrt:output.obj
 0001:00011bdc       ?type_case_c_tchar@?$output_processor@DV?$string_output_adapter@D@__crt_stdio_output@@V?$standard_base@DV?$string_output_adapter@D@__crt_stdio_output@@@2@@__crt_stdio_output@@AEAA_ND@Z 0000000180012bdc f i libucrt:output.obj
 0001:00011c90       ?type_case_c_tchar@?$output_processor@_WV?$stream_output_adapter@_W@__crt_stdio_output@@V?$standard_base@_WV?$stream_output_adapter@_W@__crt_stdio_output@@@2@@__crt_stdio_output@@AEAA_N_W@Z 0000000180012c90 f i libucrt:output.obj
 0001:00011c90       ?type_case_c_tchar@?$output_processor@_WV?$string_output_adapter@_W@__crt_stdio_output@@V?$standard_base@_WV?$string_output_adapter@_W@__crt_stdio_output@@@2@@__crt_stdio_output@@AEAA_N_W@Z 0000000180012c90 f i libucrt:output.obj
 0001:00011d38       ?type_case_integer@?$output_processor@_WV?$string_output_adapter@_W@__crt_stdio_output@@V?$standard_base@_WV?$string_output_adapter@_W@__crt_stdio_output@@@2@@__crt_stdio_output@@AEAA_NI_N@Z 0000000180012d38 f i libucrt:output.obj
 0001:00011d38       ?type_case_integer@?$output_processor@_WV?$stream_output_adapter@_W@__crt_stdio_output@@V?$standard_base@_WV?$stream_output_adapter@_W@__crt_stdio_output@@@2@@__crt_stdio_output@@AEAA_NI_N@Z 0000000180012d38 f i libucrt:output.obj
 0001:00011d38       ?type_case_integer@?$output_processor@DV?$string_output_adapter@D@__crt_stdio_output@@V?$standard_base@DV?$string_output_adapter@D@__crt_stdio_output@@@2@@__crt_stdio_output@@AEAA_NI_N@Z 0000000180012d38 f i libucrt:output.obj
 0001:00011d38       ?type_case_integer@?$output_processor@DV?$string_output_adapter@D@__crt_stdio_output@@V?$format_validation_base@DV?$string_output_adapter@D@__crt_stdio_output@@@2@@__crt_stdio_output@@AEAA_NI_N@Z 0000000180012d38 f i libucrt:output.obj
 0001:00011ed8       ?type_case_n@?$output_processor@_WV?$stream_output_adapter@_W@__crt_stdio_output@@V?$standard_base@_WV?$stream_output_adapter@_W@__crt_stdio_output@@@2@@__crt_stdio_output@@AEAA_NXZ 0000000180012ed8 f i libucrt:output.obj
 0001:00011ed8       ?type_case_n@?$output_processor@_WV?$string_output_adapter@_W@__crt_stdio_output@@V?$standard_base@_WV?$string_output_adapter@_W@__crt_stdio_output@@@2@@__crt_stdio_output@@AEAA_NXZ 0000000180012ed8 f i libucrt:output.obj
 0001:00011ed8       ?type_case_n@?$output_processor@DV?$string_output_adapter@D@__crt_stdio_output@@V?$format_validation_base@DV?$string_output_adapter@D@__crt_stdio_output@@@2@@__crt_stdio_output@@AEAA_NXZ 0000000180012ed8 f i libucrt:output.obj
 0001:00011ed8       ?type_case_n@?$output_processor@DV?$string_output_adapter@D@__crt_stdio_output@@V?$standard_base@DV?$string_output_adapter@D@__crt_stdio_output@@@2@@__crt_stdio_output@@AEAA_NXZ 0000000180012ed8 f i libucrt:output.obj
 0001:00011fb4       ?type_case_s@?$output_processor@DV?$string_output_adapter@D@__crt_stdio_output@@V?$format_validation_base@DV?$string_output_adapter@D@__crt_stdio_output@@@2@@__crt_stdio_output@@AEAA_NXZ 0000000180012fb4 f i libucrt:output.obj
 0001:00011fb4       ?type_case_s@?$output_processor@DV?$string_output_adapter@D@__crt_stdio_output@@V?$standard_base@DV?$string_output_adapter@D@__crt_stdio_output@@@2@@__crt_stdio_output@@AEAA_NXZ 0000000180012fb4 f i libucrt:output.obj
 0001:00012044       ?type_case_s@?$output_processor@_WV?$string_output_adapter@_W@__crt_stdio_output@@V?$standard_base@_WV?$string_output_adapter@_W@__crt_stdio_output@@@2@@__crt_stdio_output@@AEAA_NXZ 0000000180013044 f i libucrt:output.obj
 0001:00012044       ?type_case_s@?$output_processor@_WV?$stream_output_adapter@_W@__crt_stdio_output@@V?$standard_base@_WV?$stream_output_adapter@_W@__crt_stdio_output@@@2@@__crt_stdio_output@@AEAA_NXZ 0000000180013044 f i libucrt:output.obj
 0001:0001210c       ?write_stored_string_tchar@?$output_processor@DV?$string_output_adapter@D@__crt_stdio_output@@V?$standard_base@DV?$string_output_adapter@D@__crt_stdio_output@@@2@@__crt_stdio_output@@AEAA_ND@Z 000000018001310c f i libucrt:output.obj
 0001:0001210c       ?write_stored_string_tchar@?$output_processor@DV?$string_output_adapter@D@__crt_stdio_output@@V?$format_validation_base@DV?$string_output_adapter@D@__crt_stdio_output@@@2@@__crt_stdio_output@@AEAA_ND@Z 000000018001310c f i libucrt:output.obj
 0001:000121e4       ?write_stored_string_tchar@?$output_processor@_WV?$stream_output_adapter@_W@__crt_stdio_output@@V?$standard_base@_WV?$stream_output_adapter@_W@__crt_stdio_output@@@2@@__crt_stdio_output@@AEAA_N_W@Z 00000001800131e4 f i libucrt:output.obj
 0001:000122d0       ?write_stored_string_tchar@?$output_processor@_WV?$string_output_adapter@_W@__crt_stdio_output@@V?$standard_base@_WV?$string_output_adapter@_W@__crt_stdio_output@@@2@@__crt_stdio_output@@AEAA_N_W@Z 00000001800132d0 f i libucrt:output.obj
 0001:000123c0       ?write_string@?$stream_output_adapter@_W@__crt_stdio_output@@QEBAXQEB_WHQEAH1@Z 00000001800133c0 f i libucrt:output.obj
 0001:000124cc       ?write_string@?$string_output_adapter@D@__crt_stdio_output@@QEBAXQEBDHQEAH1@Z 00000001800134cc f i libucrt:output.obj
 0001:00012588       ?write_string@?$string_output_adapter@_W@__crt_stdio_output@@QEBAXQEB_WHQEAH1@Z 0000000180013588 f i libucrt:output.obj
 0001:00012648       __stdio_common_vfwprintf   0000000180013648 f   libucrt:output.obj
 0001:000126d4       __stdio_common_vsnprintf_s 00000001800136d4 f   libucrt:output.obj
 0001:00012830       __stdio_common_vsprintf    0000000180013830 f   libucrt:output.obj
 0001:00012a64       __stdio_common_vswprintf   0000000180013a64 f   libucrt:output.obj
 0001:00012c9c       free                       0000000180013c9c f   libucrt:free.obj
 0001:00012d20       _wfullpath                 0000000180013d20 f   libucrt:fullpath.obj
 0001:000137ec       ??$ftprintf@PEAU_iobuf@@PEB_WAEBQEB_WAEBQEB_WAEBI@?$__crt_char_traits@_W@@SAH$$QEAPEAU_iobuf@@$$QEAPEB_WAEBQEB_W2AEBI@Z 00000001800147ec f i libucrt:assert.obj
 0001:00013814       _wassert                   0000000180014814 f   libucrt:assert.obj
 0001:00013898       fwprintf                   0000000180014898 f i libucrt:assert.obj
 0001:000138dc       swprintf                   00000001800148dc f i libucrt:assert.obj
 0001:00013930       malloc                     0000000180014930 f   libucrt:malloc.obj
 0001:00013938       __ascii_stricmp            0000000180014938 f   libucrt:stricmp.obj
 0001:00013974       _stricmp                   0000000180014974 f   libucrt:stricmp.obj
 0001:000139bc       _stricmp_l                 00000001800149bc f   libucrt:stricmp.obj
 0001:00013a70       __acrt_initialize_new_handler 0000000180014a70 f   libucrt:new_handler.obj
 0001:00013a78       _callnewh                  0000000180014a78 f   libucrt:new_handler.obj
 0001:00013ab8       _query_new_handler         0000000180014ab8 f   libucrt:new_handler.obj
 0001:00013aec       _seh_filter_dll            0000000180014aec f   libucrt:exception_filter.obj
 0001:00013b00       _seh_filter_exe            0000000180014b00 f   libucrt:exception_filter.obj
 0001:00013ec0       __acrt_initialize_thread_local_exit_callback 0000000180014ec0 f   libucrt:exit.obj
 0001:00013ec8       _cexit                     0000000180014ec8 f   libucrt:exit.obj
 0001:00013ed8       _exit                      0000000180014ed8 f   libucrt:exit.obj
 0001:00013ee4       _is_c_termination_complete 0000000180014ee4 f   libucrt:exit.obj
 0001:000140d0       __dcrt_uninitialize_environments_nolock 00000001800150d0 f   libucrt:environment_initialization.obj
 0001:00014108       _initialize_narrow_environment 0000000180015108 f   libucrt:environment_initialization.obj
 0001:00014110       ??$?RV<lambda_b8c45f8f788dd370798f47cfe8ac3a86>@@AEAV<lambda_4e60a939b0d047cfe11ddc22648dfba9>@@V<lambda_332c3edc96d0294ec56c57d38c1cdfd5>@@@?$__crt_seh_guarded_call@H@@QEAAH$$QEAV<lambda_b8c45f8f788dd370798f47cfe8ac3a86>@@AEAV<lambda_4e60a939b0d047cfe11ddc22648dfba9>@@$$QEAV<lambda_332c3edc96d0294ec56c57d38c1cdfd5>@@@Z 0000000180015110 f i libucrt:onexit.obj
 0001:0001414c       ??$?RV<lambda_e24bbb7b643b32fcea6fa61b31d4c984>@@AEAV<lambda_275893d493268fdec8709772e3fcec0e>@@V<lambda_9d71df4d7cf3f480f8d633942495c3b0>@@@?$__crt_seh_guarded_call@H@@QEAAH$$QEAV<lambda_e24bbb7b643b32fcea6fa61b31d4c984>@@AEAV<lambda_275893d493268fdec8709772e3fcec0e>@@$$QEAV<lambda_9d71df4d7cf3f480f8d633942495c3b0>@@@Z 000000018001514c f i libucrt:onexit.obj
 0001:000144c8       _crt_atexit                00000001800154c8 f   libucrt:onexit.obj
 0001:000144d8       _execute_onexit_table      00000001800154d8 f   libucrt:onexit.obj
 0001:00014514       _initialize_onexit_table   0000000180015514 f   libucrt:onexit.obj
 0001:00014554       _register_onexit_function  0000000180015554 f   libucrt:onexit.obj
 0001:000145e4       __acrt_uninitialize_command_line 00000001800155e4 f   libucrt:argv_data.obj
 0001:000146d4       __acrt_initialize          00000001800156d4 f   libucrt:initialization.obj
 0001:000146e8       __acrt_thread_attach       00000001800156e8 f   libucrt:initialization.obj
 0001:000146fc       __acrt_thread_detach       00000001800156fc f   libucrt:initialization.obj
 0001:0001470c       __acrt_uninitialize        000000018001570c f   libucrt:initialization.obj
 0001:00014720       __acrt_uninitialize_critical 0000000180015720 f   libucrt:initialization.obj
 0001:00014730       _initterm                  0000000180015730 f   libucrt:initterm.obj
 0001:000147a8       _initterm_e                00000001800157a8 f   libucrt:initterm.obj
 0001:000147f4       terminate                  00000001800157f4 f   libucrt:terminate.obj
 0001:0001481c       abort                      000000018001581c f   libucrt:abort.obj
 0001:00014874       strcpy_s                   0000000180015874 f   libucrt:strcpy_s.obj
 0001:000148d4       _free_base                 00000001800158d4 f   libucrt:free_base.obj
 0001:00014914       _malloc_base               0000000180015914 f   libucrt:malloc_base.obj
 0001:00014974       _calloc_base               0000000180015974 f   libucrt:calloc_base.obj
 0001:000149ec       ??$is_overflow_condition@K@__crt_strtox@@YA_NIK@Z 00000001800159ec f i libucrt:atox.obj
 0001:00014a18       ??$parse_integer@KV?$c_string_character_source@D@__crt_strtox@@@__crt_strtox@@YAKQEAU__crt_locale_pointers@@V?$c_string_character_source@D@0@H_N@Z 0000000180015a18 f i libucrt:atox.obj
 0001:00014d2c       ??$parse_integer@KV?$c_string_character_source@_W@__crt_strtox@@@__crt_strtox@@YAKQEAU__crt_locale_pointers@@V?$c_string_character_source@_W@0@H_N@Z 0000000180015d2c f i libucrt:atox.obj
 0001:00015400       ??$?RV<lambda_46352004c1216016012b18bd6f87e700>@@AEAV<lambda_3bd07e1a1191394380780325891bf33f>@@V<lambda_334532d3f185bcaa59b5be82d7d22bff>@@@?$__crt_seh_guarded_call@X@@QEAAX$$QEAV<lambda_46352004c1216016012b18bd6f87e700>@@AEAV<lambda_3bd07e1a1191394380780325891bf33f>@@$$QEAV<lambda_334532d3f185bcaa59b5be82d7d22bff>@@@Z 0000000180016400 f i libucrt:per_thread_data.obj
 0001:00015460       ??$?RV<lambda_5e887d1dcbef67a5eb4283622ba103bf>@@AEAV<lambda_4466841279450cc726390878d4a41900>@@V<lambda_341c25c0346d94847f1f3c463c57e077>@@@?$__crt_seh_guarded_call@X@@QEAAX$$QEAV<lambda_5e887d1dcbef67a5eb4283622ba103bf>@@AEAV<lambda_4466841279450cc726390878d4a41900>@@$$QEAV<lambda_341c25c0346d94847f1f3c463c57e077>@@@Z 0000000180016460 f i libucrt:per_thread_data.obj
 0001:000154a8       ??$?RV<lambda_72d1df2b273a38828b1ce30cbf4cdab5>@@AEAV<lambda_876a65b173b8412d3a47c70a915b0cf4>@@V<lambda_41932305e351933ebe8f8be3ed8bb5dc>@@@?$__crt_seh_guarded_call@X@@QEAAX$$QEAV<lambda_72d1df2b273a38828b1ce30cbf4cdab5>@@AEAV<lambda_876a65b173b8412d3a47c70a915b0cf4>@@$$QEAV<lambda_41932305e351933ebe8f8be3ed8bb5dc>@@@Z 00000001800164a8 f i libucrt:per_thread_data.obj
 0001:000154e8       ??$?RV<lambda_fb3a7dec4e47f37f22dae91bb15c9095>@@AEAV<lambda_698284760c8add0bfb0756c19673e34b>@@V<lambda_dfb8eca1e75fef3034a8fb18dd509707>@@@?$__crt_seh_guarded_call@X@@QEAAX$$QEAV<lambda_fb3a7dec4e47f37f22dae91bb15c9095>@@AEAV<lambda_698284760c8add0bfb0756c19673e34b>@@$$QEAV<lambda_dfb8eca1e75fef3034a8fb18dd509707>@@@Z 00000001800164e8 f i libucrt:per_thread_data.obj
 0001:00015778       __acrt_freeptd             0000000180016778 f   libucrt:per_thread_data.obj
 0001:000157bc       __acrt_getptd              00000001800167bc f   libucrt:per_thread_data.obj
 0001:00015850       __acrt_getptd_noexit       0000000180016850 f   libucrt:per_thread_data.obj
 0001:000158f0       __acrt_initialize_ptd      00000001800168f0 f   libucrt:per_thread_data.obj
 0001:0001592c       __acrt_uninitialize_ptd    000000018001692c f   libucrt:per_thread_data.obj
 0001:00015950       isdigit                    0000000180016950 f i libucrt:_ctype.obj
 0001:00015a14       _tolower_l                 0000000180016a14 f   libucrt:tolower_toupper.obj
 0001:00015b54       tolower                    0000000180016b54 f   libucrt:tolower_toupper.obj
 0001:00015b80       __acrt_errno_from_os_error 0000000180016b80 f   libucrt:errno.obj
 0001:00015bc8       __acrt_errno_map_os_error  0000000180016bc8 f   libucrt:errno.obj
 0001:00015c18       __doserrno                 0000000180016c18 f   libucrt:errno.obj
 0001:00015c38       _errno                     0000000180016c38 f   libucrt:errno.obj
 0001:00015c58       ??$make_c_string_character_source@_WPEAPEA_W@__crt_strtox@@YA?AV?$c_string_character_source@_W@0@QEB_WQEAPEA_W@Z 0000000180016c58 f i libucrt:strtox.obj
 0001:00015c58       ??$make_c_string_character_source@DPEAPEAD@__crt_strtox@@YA?AV?$c_string_character_source@D@0@QEBDQEAPEAD@Z 0000000180016c58 f i libucrt:strtox.obj
 0001:00015c6c       strtol                     0000000180016c6c f   libucrt:strtox.obj
 0001:00015c9c       wcstol                     0000000180016c9c f   libucrt:strtox.obj
 0001:00015ccc       _mbtowc_l                  0000000180016ccc f   libucrt:mbtowc.obj
 0001:00015e14       mbtowc                     0000000180016e14 f   libucrt:mbtowc.obj
 0001:00015e1c       _wctomb_s_l                0000000180016e1c f   libucrt:wctomb.obj
 0001:00015fa0       wctomb_s                   0000000180016fa0 f   libucrt:wctomb.obj
 0001:00015fb4       strnlen                    0000000180016fb4 f   libucrt:strnlen.obj
 0001:00016110       wcsnlen                    0000000180017110 f   libucrt:strnlen.obj
 0001:00016300       __acrt_update_locale_info  0000000180017300 f   libucrt:locale_update.obj
 0001:00016334       __acrt_update_multibyte_info 0000000180017334 f   libucrt:locale_update.obj
 0001:00016368       ?__acrt_fp_classify@@YA?AW4__acrt_fp_class@@AEBN@Z 0000000180017368 f i libucrt:cvt.obj
 0001:00016da0       __acrt_fp_format           0000000180017da0 f   libucrt:cvt.obj
 0001:00016fe4       _fputwc_nolock             0000000180017fe4 f   libucrt:fputwc.obj
 0001:00017160       _fileno                    0000000180018160 f   libucrt:fileno.obj
 0001:00017188       __acrt_initialize_stdio    0000000180018188 f   libucrt:_file.obj
 0001:000172a8       __acrt_iob_func            00000001800182a8 f   libucrt:_file.obj
 0001:000172bc       __acrt_uninitialize_stdio  00000001800182bc f   libucrt:_file.obj
 0001:00017318       _lock_file                 0000000180018318 f   libucrt:_file.obj
 0001:00017324       _unlock_file               0000000180018324 f   libucrt:_file.obj
 0001:00017330       _fputc_nolock              0000000180018330 f   libucrt:fputc.obj
 0001:00017348       _get_printf_count_output   0000000180018348 f   libucrt:printf_count_output.obj
 0001:00017360       __acrt_stdio_begin_temporary_buffering_nolock 0000000180018360 f   libucrt:_sftbuf.obj
 0001:00017430       __acrt_stdio_end_temporary_buffering_nolock 0000000180018430 f   libucrt:_sftbuf.obj
 0001:0001746c       __acrt_set_locale_changed  000000018001846c f   libucrt:wsetlocale.obj
 0001:00017478       __acrt_uninitialize_locale 0000000180018478 f   libucrt:wsetlocale.obj
 0001:000176a8       __acrt_initialize_lowio    00000001800186a8 f   libucrt:ioinit.obj
 0001:000176e4       __acrt_uninitialize_lowio  00000001800186e4 f   libucrt:ioinit.obj
 0001:00017964       _wgetcwd                   0000000180018964 f   libucrt:getcwd.obj
 0001:0001798c       calloc                     000000018001898c f   libucrt:calloc.obj
 0001:00017994       _query_app_type            0000000180018994 f   libucrt:report_runtime_error.obj
 0001:00017ac4       _itow_s                    0000000180018ac4 f   libucrt:xtoa.obj
 0001:00017ae4       _set_error_mode            0000000180018ae4 f   libucrt:set_error_mode.obj
 0001:00017b24       wcscat_s                   0000000180018b24 f   libucrt:wcscat_s.obj
 0001:00017ba4       wcscpy_s                   0000000180018ba4 f   libucrt:wcscpy_s.obj
 0001:00017c0c       wcsncat_s                  0000000180018c0c f   libucrt:wcsncat_s.obj
 0001:00017d34       __acrt_show_wide_message_box 0000000180018d34 f   libucrt:crtmbox.obj
 0001:00017e50       __acrt_stdio_flush_nolock  0000000180018e50 f   libucrt:fflush.obj
 0001:00017ec8       _fflush_nolock             0000000180018ec8 f   libucrt:fflush.obj
 0001:00017f14       _flushall                  0000000180018f14 f   libucrt:fflush.obj
 0001:00018004       fflush                     0000000180019004 f   libucrt:fflush.obj
 0001:00018048       ??$?RV<lambda_7a5ef57ff966f610505f1d28a3d40618>@@AEAV<lambda_b721fa326cdb32351d23dfa67958c160>@@V<lambda_5e0fb27672408a07956fe59e48ccb2aa>@@@?$__crt_seh_guarded_call@H@@QEAAH$$QEAV<lambda_7a5ef57ff966f610505f1d28a3d40618>@@AEAV<lambda_b721fa326cdb32351d23dfa67958c160>@@$$QEAV<lambda_5e0fb27672408a07956fe59e48ccb2aa>@@@Z 0000000180019048 f i libucrt:setvbuf.obj
 0001:00018178       setvbuf                    0000000180019178 f   libucrt:setvbuf.obj
 0001:00018218       ??$?RV<lambda_c36588078e9f5dfd39652860aa6b3aaf>@@AEAV<lambda_ec61778202f4f5fc7e7711acc23c3bca>@@V<lambda_dc9d2797ccde5d239b4a0efae8ebd7db>@@@?$__crt_seh_guarded_call@P6AXH@Z@@QEAAP6AXH@Z$$QEAV<lambda_c36588078e9f5dfd39652860aa6b3aaf>@@AEAV<lambda_ec61778202f4f5fc7e7711acc23c3bca>@@$$QEAV<lambda_dc9d2797ccde5d239b4a0efae8ebd7db>@@@Z 0000000180019218 f i libucrt:signal.obj
 0001:00018260       __acrt_get_sigabrt_handler 0000000180019260 f   libucrt:signal.obj
 0001:00018290       __acrt_initialize_signal_handlers 0000000180019290 f   libucrt:signal.obj
 0001:000182b0       raise                      00000001800192b0 f   libucrt:signal.obj
 0001:0001854c       __acrt_initialize_locks    000000018001954c f   libucrt:locks.obj
 0001:00018594       __acrt_lock                0000000180019594 f   libucrt:locks.obj
 0001:000185b0       __acrt_uninitialize_locks  00000001800195b0 f   libucrt:locks.obj
 0001:000185e8       __acrt_unlock              00000001800195e8 f   libucrt:locks.obj
 0001:000187a4       __acrt_FlsAlloc            00000001800197a4 f   libucrt:winapi_thunks.obj
 0001:000187fc       __acrt_FlsFree             00000001800197fc f   libucrt:winapi_thunks.obj
 0001:00018854       __acrt_FlsGetValue         0000000180019854 f   libucrt:winapi_thunks.obj
 0001:000188ac       __acrt_FlsSetValue         00000001800198ac f   libucrt:winapi_thunks.obj
 0001:00018914       __acrt_InitializeCriticalSectionEx 0000000180019914 f   libucrt:winapi_thunks.obj
 0001:0001898c       __acrt_LCMapStringEx       000000018001998c f   libucrt:winapi_thunks.obj
 0001:00018a7c       __acrt_LocaleNameToLCID    0000000180019a7c f   libucrt:winapi_thunks.obj
 0001:00018ae4       __acrt_MessageBoxW         0000000180019ae4 f   libucrt:winapi_thunks.obj
 0001:00018b6c       __acrt_can_show_message_box 0000000180019b6c f   libucrt:winapi_thunks.obj
 0001:00018bc8       __acrt_get_parent_window   0000000180019bc8 f   libucrt:winapi_thunks.obj
 0001:00018c58       __acrt_initialize_winapi_thunks 0000000180019c58 f   libucrt:winapi_thunks.obj
 0001:00018c90       __acrt_is_interactive      0000000180019c90 f   libucrt:winapi_thunks.obj
 0001:00018d64       __acrt_is_packaged_app     0000000180019d64 f   libucrt:winapi_thunks.obj
 0001:00018dec       __acrt_uninitialize_winapi_thunks 0000000180019dec f   libucrt:winapi_thunks.obj
 0001:00018e30       ??$?RV<lambda_99476a1ad63dd22509b5d3e65b0ffc95>@@AEAV<lambda_ad1ced32f4ac17aa236e5ef05d6b3b7c>@@V<lambda_f7424dd8d45958661754dc4f2697e9c3>@@@?$__crt_seh_guarded_call@X@@QEAAX$$QEAV<lambda_99476a1ad63dd22509b5d3e65b0ffc95>@@AEAV<lambda_ad1ced32f4ac17aa236e5ef05d6b3b7c>@@$$QEAV<lambda_f7424dd8d45958661754dc4f2697e9c3>@@@Z 0000000180019e30 f i libucrt:mbctype.obj
 0001:0001952c       __acrt_initialize_multibyte 000000018001a52c f   libucrt:mbctype.obj
 0001:00019554       __acrt_update_thread_multibyte_data 000000018001a554 f   libucrt:mbctype.obj
 0001:00019614       _setmbcp_nolock            000000018001a614 f   libucrt:mbctype.obj
 0001:000198bc       __dcrt_get_narrow_environment_from_os 000000018001a8bc f   libucrt:get_environment_from_os.obj
 0001:000199c0       _recalloc                  000000018001a9c0 f   libucrt:recalloc.obj
 0001:000199c8       _recalloc_base             000000018001a9c8 f   libucrt:recalloc.obj
 0001:00019a60       __acrt_initialize_heap     000000018001aa60 f   libucrt:heap_handle.obj
 0001:00019a7c       __acrt_uninitialize_heap   000000018001aa7c f   libucrt:heap_handle.obj
 0001:00019a88       __acrt_initialize_command_line 000000018001aa88 f   libucrt:argv_data.obj
 0001:00019ab0       __acrt_execute_initializers 000000018001aab0 f   libucrt:shared_initialization.obj
 0001:00019b44       __acrt_execute_uninitializers 000000018001ab44 f   libucrt:shared_initialization.obj
 0001:00019b94       __acrt_has_user_matherr    000000018001ab94 f   libucrt:matherr.obj
 0001:00019bb4       __acrt_initialize_user_matherr 000000018001abb4 f   libucrt:matherr.obj
 0001:00019bbc       __acrt_invoke_user_matherr 000000018001abbc f   libucrt:matherr.obj
 0001:00019c04       _query_new_mode            000000018001ac04 f   libucrt:new_mode.obj
 0001:00019c0c       __pctype_func              000000018001ac0c f   libucrt:ctype.obj
 0001:00019c3c       iswctype                   000000018001ac3c f   libucrt:iswctype.obj
 0001:00019cac       _isctype_l                 000000018001acac f   libucrt:isctype.obj
 0001:00019dbc       __acrt_add_locale_ref      000000018001adbc f   libucrt:locale_refcounting.obj
 0001:00019e48       __acrt_free_locale         000000018001ae48 f   libucrt:locale_refcounting.obj
 0001:00019fc0       __acrt_locale_add_lc_time_reference 000000018001afc0 f   libucrt:locale_refcounting.obj
 0001:00019fe8       __acrt_locale_free_lc_time_if_unreferenced 000000018001afe8 f   libucrt:locale_refcounting.obj
 0001:0001a020       __acrt_locale_release_lc_time_reference 000000018001b020 f   libucrt:locale_refcounting.obj
 0001:0001a048       __acrt_release_locale_ref  000000018001b048 f   libucrt:locale_refcounting.obj
 0001:0001a0f0       __acrt_update_thread_locale_data 000000018001b0f0 f   libucrt:locale_refcounting.obj
 0001:0001a160       _updatetlocinfoEx_nolock   000000018001b160 f   libucrt:locale_refcounting.obj
 0001:0001a1c8       _isleadbyte_l              000000018001b1c8 f i libucrt:_wctype.obj
 0001:0001a564       __acrt_LCMapStringA        000000018001b564 f   libucrt:lcmapstringa.obj
 0001:0001a5fc       __acrt_fp_strflt_to_string 000000018001b5fc f   libucrt:_fptostr.obj
 0001:0001a6c0       ?divide@__crt_strtox@@YA_KAEAUbig_integer@1@AEBU21@@Z 000000018001b6c0 f i libucrt:cfout.obj
 0001:0001ab90       __acrt_fltout              000000018001bb90 f   libucrt:cfout.obj
 0001:0001c194       __acrt_stdio_flush_and_write_narrow_nolock 000000018001d194 f   libucrt:_flsbuf.obj
 0001:0001c27c       __acrt_stdio_flush_and_write_wide_nolock 000000018001d27c f   libucrt:_flsbuf.obj
 0001:0001c368       _fcloseall                 000000018001d368 f   libucrt:closeall.obj
 0001:0001c41c       __acrt_stdio_free_buffer_nolock 000000018001d41c f   libucrt:_freebuf.obj
 0001:0001c45c       _isatty                    000000018001d45c f   libucrt:isatty.obj
 0001:0001c4bc       __acrt_locale_free_monetary 000000018001d4bc f   libucrt:initmon.obj
 0001:0001c5c8       __acrt_locale_free_numeric 000000018001d5c8 f   libucrt:initnum.obj
 0001:0001c68c       __acrt_locale_free_time    000000018001d68c f   libucrt:inittime.obj
 0001:0001c794       __acrt_GetStringTypeA      000000018001d794 f   libucrt:getstringtypea.obj
 0001:0001c948       __acrt_lowio_create_handle_array 000000018001d948 f   libucrt:osfinfo.obj
 0001:0001c9e0       __acrt_lowio_destroy_handle_array 000000018001d9e0 f   libucrt:osfinfo.obj
 0001:0001ca30       __acrt_lowio_ensure_fh_exists 000000018001da30 f   libucrt:osfinfo.obj
 0001:0001cae8       __acrt_lowio_lock_fh       000000018001dae8 f   libucrt:osfinfo.obj
 0001:0001cb0c       __acrt_lowio_unlock_fh     000000018001db0c f   libucrt:osfinfo.obj
 0001:0001cb30       _free_osfhnd               000000018001db30 f   libucrt:osfinfo.obj
 0001:0001cbec       _get_osfhandle             000000018001dbec f   libucrt:osfinfo.obj
 0001:0001cc64       _getdrive                  000000018001dc64 f   libucrt:drive.obj
 0001:0001cd64       ??$?RV<lambda_b521505b218e5242e90febf6bfebc422>@@AEAV<lambda_6978c1fb23f02e42e1d9e99668cc68aa>@@V<lambda_314360699dd331753a4119843814e9a7>@@@?$__crt_seh_guarded_call@H@@QEAAH$$QEAV<lambda_b521505b218e5242e90febf6bfebc422>@@AEAV<lambda_6978c1fb23f02e42e1d9e99668cc68aa>@@$$QEAV<lambda_314360699dd331753a4119843814e9a7>@@@Z 000000018001dd64 f i libucrt:commit.obj
 0001:0001cdf0       _commit                    000000018001ddf0 f   libucrt:commit.obj
 0001:0001d424       _write                     000000018001e424 f   libucrt:write.obj
 0001:0001d510       _write_nolock              000000018001e510 f   libucrt:write.obj
 0001:0001d8bc       __acrt_DownlevelLocaleNameToLCID 000000018001e8bc f   libucrt:lcidtoname_downlevel.obj
 0001:0001d908       _msize                     000000018001e908 f   libucrt:msize.obj
 0001:0001d944       _realloc_base              000000018001e944 f   libucrt:realloc_base.obj
 0001:0001d9c8       __strncnt                  000000018001e9c8 f   libucrt:strncnt.obj
 0001:0001d9e0       fegetenv                   000000018001e9e0 f   libucrt:fegetenv.obj
 0001:0001da00       fesetenv                   000000018001ea00 f   libucrt:fesetenv.obj
 0001:0001da4c       feholdexcept               000000018001ea4c f   libucrt:feholdexcept.obj
 0001:0001da9c       ceil                       000000018001ea9c f   libucrt:ceil.obj
 0001:0001db60       log10                      000000018001eb60 f   libucrt:log10.obj
 0001:0001e298       _lseeki64                  000000018001f298 f   libucrt:lseek.obj
 0001:0001e2a0       _lseeki64_nolock           000000018001f2a0 f   libucrt:lseek.obj
 0001:0001e2a8       __acrt_stdio_allocate_buffer_nolock 000000018001f2a8 f   libucrt:_getbuf.obj
 0001:0001e30c       _fclose_nolock             000000018001f30c f   libucrt:fclose.obj
 0001:0001e390       fclose                     000000018001f390 f   libucrt:fclose.obj
 0001:0001e3fc       _putwch_nolock             000000018001f3fc f   libucrt:putwch.obj
 0001:0001e458       _getfpcontrolword          000000018001f458 f   libucrt:_fenvutils.obj
 0001:0001e470       _getfpstatusword           000000018001f470 f   libucrt:_fenvutils.obj
 0001:0001e484       _setfpcontrolword          000000018001f484 f   libucrt:_fenvutils.obj
 0001:0001e490       _setfpstatusword           000000018001f490 f   libucrt:_fenvutils.obj
 0001:0001e4e0       _clearfp                   000000018001f4e0 f   libucrt:ieee.obj
 0001:0001e534       _controlfp                 000000018001f534 f   libucrt:ieee.obj
 0001:0001e540       _statusfp                  000000018001f540 f   libucrt:ieee.obj
 0001:0001e944       _handle_error              000000018001f944 f   libucrt:libm_error.obj
 0001:0001ea6c       _handle_nan                000000018001fa6c f   libucrt:libm_error.obj
 0001:0001ea90       __acrt_initialize_fma3     000000018001fa90 f   libucrt:fma3_available.obj
 0001:0001eb00       _log10_special             000000018001fb00 f   libucrt:log_special.obj
 0001:0001ebb8       ??$?RV<lambda_bfedae4ebbf01fab1bb6dcc6a9e276e0>@@AEAV<lambda_2fe9b910cf3cbf4a0ab98a02ba45b3ec>@@V<lambda_237c231691f317818eb88cc1d5d642d6>@@@?$__crt_seh_guarded_call@H@@QEAAH$$QEAV<lambda_bfedae4ebbf01fab1bb6dcc6a9e276e0>@@AEAV<lambda_2fe9b910cf3cbf4a0ab98a02ba45b3ec>@@$$QEAV<lambda_237c231691f317818eb88cc1d5d642d6>@@@Z 000000018001fbb8 f i libucrt:close.obj
 0001:0001ec2c       _close                     000000018001fc2c f   libucrt:close.obj
 0001:0001ecd0       _close_nolock              000000018001fcd0 f   libucrt:close.obj
 0001:0001ed8c       ?__acrt_stdio_free_stream@@YAXV__crt_stdio_stream@@@Z 000000018001fd8c f   libucrt:stream.obj
 0001:0001edd0       __dcrt_lowio_initialize_console_output 000000018001fdd0 f   libucrt:initcon.obj
 0001:0001ee0c       __dcrt_terminate_console_output 000000018001fe0c f   libucrt:initcon.obj
 0001:0001ee40       _get_fpsr                  000000018001fe40 f   libucrt:fpsr.obj
 0001:0001ee50       _set_fpsr                  000000018001fe50 f   libucrt:fpsr.obj
 0001:0001ee5a       _fclrf                     000000018001fe5a f   libucrt:fpsr.obj
 0001:0001ee6e       _frnd                      000000018001fe6e f   libucrt:fpsr.obj
 0001:0001ee90       _raise_exc                 000000018001fe90 f   libucrt:fpexcept.obj
 0001:0001eeb8       _raise_exc_ex              000000018001feb8 f   libucrt:fpexcept.obj
 0001:0001f1c0       _set_errno_from_matherr    00000001800201c0 f   libucrt:fpexcept.obj
 0001:0001f1f0       _clrfp                     00000001800201f0 f   libucrt:fpctrl.obj
 0001:0001f210       _ctrlfp                    0000000180020210 f   libucrt:fpctrl.obj
 0001:0001f28c       _set_statfp                000000018002028c f   libucrt:fpctrl.obj
 0001:0001f2ac       _statfp                    00000001800202ac f   libucrt:fpctrl.obj
 0001:0001f2be       IsProcessorFeaturePresent  00000001800202be f   kernel32:KERNEL32.dll
 0001:0001f2c4       RtlUnwindEx                00000001800202c4 f   kernel32:KERNEL32.dll
 0001:0001f2ca       SystemFunction036          00000001800202ca f   advapi32:ADVAPI32.dll
 0001:0001f2d0       _FindPESection             00000001800202d0 f   LIBCMT:pesect.obj
 0001:0001f320       _IsNonwritableInCurrentImage 0000000180020320 f   LIBCMT:pesect.obj
 0001:0001f370       _ValidateImageBase         0000000180020370 f   LIBCMT:pesect.obj
 0001:0001f3a0       __GSHandlerCheck           00000001800203a0 f   LIBCMT:_gshandler_.obj
 0001:0001f3c0       __GSHandlerCheckCommon     00000001800203c0 f   LIBCMT:_gshandler_.obj
 0001:0001f430       __chkstk                   0000000180020430 f   LIBCMT:_chkstk_.obj
 0001:0001f430       _alloca_probe              0000000180020430 f   LIBCMT:_chkstk_.obj
 0001:0001f484       strrchr                    0000000180020484 f   libvcruntime:strrchr.obj
 0001:0001f5e0       memcmp                     00000001800205e0 f   libvcruntime:memcmp.obj
 0001:0001f6c0       _guard_dispatch_icall_nop  00000001800206c0 f   LIBCMT:_guard_dispatch_.obj
 0002:00000000       __imp_SystemFunction036    0000000180021000     advapi32:ADVAPI32.dll
 0002:00000008       \177ADVAPI32_NULL_THUNK_DATA 0000000180021008     advapi32:ADVAPI32.dll
 0002:00000010       __imp_GetModuleHandleW     0000000180021010     kernel32:KERNEL32.dll
 0002:00000018       __imp_GetModuleHandleA     0000000180021018     kernel32:KERNEL32.dll
 0002:00000020       __imp_RaiseException       0000000180021020     kernel32:KERNEL32.dll
 0002:00000028       __imp_GetLastError         0000000180021028     kernel32:KERNEL32.dll
 0002:00000030       __imp_GetSystemInfo        0000000180021030     kernel32:KERNEL32.dll
 0002:00000038       __imp_VirtualProtect       0000000180021038     kernel32:KERNEL32.dll
 0002:00000040       __imp_VirtualQuery         0000000180021040     kernel32:KERNEL32.dll
 0002:00000048       __imp_FreeLibrary          0000000180021048     kernel32:KERNEL32.dll
 0002:00000050       __imp_LoadLibraryExA       0000000180021050     kernel32:KERNEL32.dll
 0002:00000058       __imp_RtlCaptureContext    0000000180021058     kernel32:KERNEL32.dll
 0002:00000060       __imp_RtlLookupFunctionEntry 0000000180021060     kernel32:KERNEL32.dll
 0002:00000068       __imp_RtlVirtualUnwind     0000000180021068     kernel32:KERNEL32.dll
 0002:00000070       __imp_UnhandledExceptionFilter 0000000180021070     kernel32:KERNEL32.dll
 0002:00000078       __imp_SetUnhandledExceptionFilter 0000000180021078     kernel32:KERNEL32.dll
 0002:00000080       __imp_GetCurrentProcess    0000000180021080     kernel32:KERNEL32.dll
 0002:00000088       __imp_TerminateProcess     0000000180021088     kernel32:KERNEL32.dll
 0002:00000090       __imp_IsProcessorFeaturePresent 0000000180021090     kernel32:KERNEL32.dll
 0002:00000098       __imp_IsDebuggerPresent    0000000180021098     kernel32:KERNEL32.dll
 0002:000000a0       __imp_GetStartupInfoW      00000001800210a0     kernel32:KERNEL32.dll
 0002:000000a8       __imp_QueryPerformanceCounter 00000001800210a8     kernel32:KERNEL32.dll
 0002:000000b0       __imp_GetCurrentProcessId  00000001800210b0     kernel32:KERNEL32.dll
 0002:000000b8       __imp_GetCurrentThreadId   00000001800210b8     kernel32:KERNEL32.dll
 0002:000000c0       __imp_GetSystemTimeAsFileTime 00000001800210c0     kernel32:KERNEL32.dll
 0002:000000c8       __imp_InitializeSListHead  00000001800210c8     kernel32:KERNEL32.dll
 0002:000000d0       __imp_RtlPcToFileHeader    00000001800210d0     kernel32:KERNEL32.dll
 0002:000000d8       __imp_RtlUnwindEx          00000001800210d8     kernel32:KERNEL32.dll
 0002:000000e0       __imp_InterlockedFlushSList 00000001800210e0     kernel32:KERNEL32.dll
 0002:000000e8       __imp_SetLastError         00000001800210e8     kernel32:KERNEL32.dll
 0002:000000f0       __imp_EnterCriticalSection 00000001800210f0     kernel32:KERNEL32.dll
 0002:000000f8       __imp_LeaveCriticalSection 00000001800210f8     kernel32:KERNEL32.dll
 0002:00000100       __imp_DeleteCriticalSection 0000000180021100     kernel32:KERNEL32.dll
 0002:00000108       __imp_InitializeCriticalSectionAndSpinCount 0000000180021108     kernel32:KERNEL32.dll
 0002:00000110       __imp_TlsAlloc             0000000180021110     kernel32:KERNEL32.dll
 0002:00000118       __imp_TlsGetValue          0000000180021118     kernel32:KERNEL32.dll
 0002:00000120       __imp_TlsSetValue          0000000180021120     kernel32:KERNEL32.dll
 0002:00000128       __imp_TlsFree              0000000180021128     kernel32:KERNEL32.dll
 0002:00000130       __imp_LoadLibraryExW       0000000180021130     kernel32:KERNEL32.dll
 0002:00000138       __imp_GetFullPathNameW     0000000180021138     kernel32:KERNEL32.dll
 0002:00000140       __imp_GetStdHandle         0000000180021140     kernel32:KERNEL32.dll
 0002:00000148       __imp_GetFileType          0000000180021148     kernel32:KERNEL32.dll
 0002:00000150       __imp_GetProcAddress       0000000180021150     kernel32:KERNEL32.dll
 0002:00000158       __imp_WriteConsoleW        0000000180021158     kernel32:KERNEL32.dll
 0002:00000160       __imp_ExitProcess          0000000180021160     kernel32:KERNEL32.dll
 0002:00000168       __imp_MultiByteToWideChar  0000000180021168     kernel32:KERNEL32.dll
 0002:00000170       __imp_WideCharToMultiByte  0000000180021170     kernel32:KERNEL32.dll
 0002:00000178       __imp_HeapFree             0000000180021178     kernel32:KERNEL32.dll
 0002:00000180       __imp_HeapAlloc            0000000180021180     kernel32:KERNEL32.dll
 0002:00000188       __imp_GetACP               0000000180021188     kernel32:KERNEL32.dll
 0002:00000190       __imp_GetDriveTypeW        0000000180021190     kernel32:KERNEL32.dll
 0002:00000198       __imp_WriteFile            0000000180021198     kernel32:KERNEL32.dll
 0002:000001a0       __imp_OutputDebugStringW   00000001800211a0     kernel32:KERNEL32.dll
 0002:000001a8       __imp_CloseHandle          00000001800211a8     kernel32:KERNEL32.dll
 0002:000001b0       __imp_WaitForSingleObjectEx 00000001800211b0     kernel32:KERNEL32.dll
 0002:000001b8       __imp_CreateThread         00000001800211b8     kernel32:KERNEL32.dll
 0002:000001c0       __imp_LCMapStringW         00000001800211c0     kernel32:KERNEL32.dll
 0002:000001c8       __imp_IsValidCodePage      00000001800211c8     kernel32:KERNEL32.dll
 0002:000001d0       __imp_GetOEMCP             00000001800211d0     kernel32:KERNEL32.dll
 0002:000001d8       __imp_GetCPInfo            00000001800211d8     kernel32:KERNEL32.dll
 0002:000001e0       __imp_GetEnvironmentStringsW 00000001800211e0     kernel32:KERNEL32.dll
 0002:000001e8       __imp_FreeEnvironmentStringsW 00000001800211e8     kernel32:KERNEL32.dll
 0002:000001f0       __imp_GetProcessHeap       00000001800211f0     kernel32:KERNEL32.dll
 0002:000001f8       __imp_GetCommandLineA      00000001800211f8     kernel32:KERNEL32.dll
 0002:00000200       __imp_GetCommandLineW      0000000180021200     kernel32:KERNEL32.dll
 0002:00000208       __imp_GetStringTypeW       0000000180021208     kernel32:KERNEL32.dll
 0002:00000210       __imp_SetStdHandle         0000000180021210     kernel32:KERNEL32.dll
 0002:00000218       __imp_GetCurrentDirectoryW 0000000180021218     kernel32:KERNEL32.dll
 0002:00000220       __imp_FlushFileBuffers     0000000180021220     kernel32:KERNEL32.dll
 0002:00000228       __imp_GetConsoleCP         0000000180021228     kernel32:KERNEL32.dll
 0002:00000230       __imp_GetConsoleMode       0000000180021230     kernel32:KERNEL32.dll
 0002:00000238       __imp_HeapSize             0000000180021238     kernel32:KERNEL32.dll
 0002:00000240       __imp_HeapReAlloc          0000000180021240     kernel32:KERNEL32.dll
 0002:00000248       __imp_SetFilePointerEx     0000000180021248     kernel32:KERNEL32.dll
 0002:00000250       __imp_CreateFileW          0000000180021250     kernel32:KERNEL32.dll
 0002:00000258       __imp_GetModuleHandleExW   0000000180021258     kernel32:KERNEL32.dll
 0002:00000260       __imp_GetModuleFileNameW   0000000180021260     kernel32:KERNEL32.dll
 0002:00000268       \177KERNEL32_NULL_THUNK_DATA 0000000180021268     kernel32:KERNEL32.dll
 0002:00000270       __guard_check_icall_fptr   0000000180021270     LIBCMT:guard_support.obj
 0002:00000278       __guard_dispatch_icall_fptr 0000000180021278     LIBCMT:guard_support.obj
 0002:00000280       __xc_a                     0000000180021280     LIBCMT:initializers.obj
 0002:000002c8       _register_zmq_             00000001800212c8     binding.obj
 0002:000002d0       __xc_z                     00000001800212d0     LIBCMT:initializers.obj
 0002:000002d8       __xi_a                     00000001800212d8     LIBCMT:initializers.obj
 0002:000002e0       __acrt_stdio_initializer   00000001800212e0     libucrt:stdio_initializer.obj
 0002:000002e8       __acrt_multibyte_initializer 00000001800212e8     libucrt:multibyte_initializer.obj
 0002:000002f0       __acrt_tran_fma3_initializer 00000001800212f0     libucrt:fma3_initializer.obj
 0002:000002f8       __xi_z                     00000001800212f8     LIBCMT:initializers.obj
 0002:00000300       __xp_a                     0000000180021300     LIBCMT:initializers.obj
 0002:00000308       __acrt_locale_terminator   0000000180021308     libucrt:locale_initializer.obj
 0002:00000310       __dcrt_console_output_terminator 0000000180021310     libucrt:console_output_initializer.obj
 0002:00000318       __acrt_stdio_terminator    0000000180021318     libucrt:stdio_initializer.obj
 0002:00000320       __xp_z                     0000000180021320     LIBCMT:initializers.obj
 0002:00000328       __xt_a                     0000000180021328     LIBCMT:initializers.obj
 0002:00000330       __xt_z                     0000000180021330     LIBCMT:initializers.obj
 0002:00000340       ??_C@_1BK@DBDEIDLH@?$AAK?$AAE?$AAR?$AAN?$AAE?$AAL?$AA3?$AA2?$AA?4?$AAD?$AAL?$AAL?$AA?$AA@ 0000000180021340     DelayImp:delayhlp.obj
 0002:00000360       ??_C@_0BI@OMNLIJDB@AcquireSRWLockExclusive?$AA@ 0000000180021360     DelayImp:delayhlp.obj
 0002:00000378       ??_C@_0BI@HMIEPCNJ@ReleaseSRWLockExclusive?$AA@ 0000000180021378     DelayImp:delayhlp.obj
 0002:00000390       __sz_node_exe              0000000180021390     node:node.exe
 0002:000003a0       __sz_libzmq_v100_mt_4_0_4_dll 00000001800213a0     libzmq-v100-mt-4_0_4:libzmq-v100-mt-4_0_4.dll
 0002:000003c8       ??_7exception@std@@6B@     00000001800213c8     libcpmt:xthrow.obj
 0002:000003d8       ??_C@_0BC@EOODALEL@Unknown?5exception?$AA@ 00000001800213d8     libcpmt:xthrow.obj
 0002:000003f8       ??_7bad_alloc@std@@6B@     00000001800213f8     libcpmt:xthrow.obj
 0002:00000408       ??_C@_0P@GHFPNOJB@bad?5allocation?$AA@ 0000000180021408     libcpmt:xthrow.obj
 0002:00000420       ??_7logic_error@std@@6B@   0000000180021420     libcpmt:xthrow.obj
 0002:00000438       ??_7length_error@std@@6B@  0000000180021438     libcpmt:xthrow.obj
 0002:00000450       ??_7runtime_error@std@@6B@ 0000000180021450     libcpmt:xthrow.obj
 0002:00000478       ??_7type_info@@6B@         0000000180021478     LIBCMT:std_type_info_static.obj
 0002:00000480       _pRawDllMain               0000000180021480     LIBCMT:dll_dllmain.obj
 0002:00000480       _pDefaultRawDllMain        0000000180021480     LIBCMT:dll_dllmain.obj
 0002:00000490       _load_config_used          0000000180021490     LIBCMT:loadcfg.obj
 0002:00000530       ??_7bad_array_new_length@std@@6B@ 0000000180021530     LIBCMT:throw_bad_alloc.obj
 0002:00000540       ??_C@_0BF@KINCDENJ@bad?5array?5new?5length?$AA@ 0000000180021540     LIBCMT:throw_bad_alloc.obj
 0002:000005a0       _Microsoft_CRTProvider     00000001800215a0     libvcruntime:telemetry.obj
 0002:000005a8       ??_C@_00CNPNBAHC@?$AA@     00000001800215a8     libvcruntime:telemetry.obj
 0002:000005b0       ??_C@_0O@JEOPJOMI@Main?5Invoked?4?$AA@ 00000001800215b0     libvcruntime:telemetry.obj
 0002:000005c0       ??_C@_0P@NEAEIBDO@Main?5Returned?4?$AA@ 00000001800215c0     libvcruntime:telemetry.obj
 0002:000005f0       ??_C@_1BC@DNHGCMLG@?$AAa?$AAd?$AAv?$AAa?$AAp?$AAi?$AA3?$AA2?$AA?$AA@ 00000001800215f0     libvcruntime:winapi_downlevel.obj
 0002:00000608       ??_C@_1DM@KHCHBNEB@?$AAa?$AAp?$AAi?$AA?9?$AAm?$AAs?$AA?9?$AAw?$AAi?$AAn?$AA?9?$AAc?$AAo?$AAr?$AAe?$AA?9?$AAf?$AAi?$AAb?$AAe?$AAr?$AAs?$AA?9?$AAl?$AA1?$AA?9?$AA1?$AA?9?$AA1?$AA?$AA@ 0000000180021608     libvcruntime:winapi_downlevel.obj
 0002:00000648       ??_C@_1DK@LPPGFMPP@?$AAa?$AAp?$AAi?$AA?9?$AAm?$AAs?$AA?9?$AAw?$AAi?$AAn?$AA?9?$AAc?$AAo?$AAr?$AAe?$AA?9?$AAs?$AAy?$AAn?$AAc?$AAh?$AA?9?$AAl?$AA1?$AA?9?$AA2?$AA?9?$AA0?$AA?$AA@ 0000000180021648     libvcruntime:winapi_downlevel.obj
 0002:00000688       ??_C@_1BC@GDMECMAK@?$AAk?$AAe?$AAr?$AAn?$AAe?$AAl?$AA3?$AA2?$AA?$AA@ 0000000180021688     libvcruntime:winapi_downlevel.obj
 0002:000006a0       ??_C@_0O@BAMBGLIE@EventRegister?$AA@ 00000001800216a0     libvcruntime:winapi_downlevel.obj
 0002:000006b8       ??_C@_0BE@BJEEGHGK@EventSetInformation?$AA@ 00000001800216b8     libvcruntime:winapi_downlevel.obj
 0002:000006d0       ??_C@_0BA@FAKLIPIC@EventUnregister?$AA@ 00000001800216d0     libvcruntime:winapi_downlevel.obj
 0002:000006e8       ??_C@_0BD@PKLHJPHD@EventWriteTransfer?$AA@ 00000001800216e8     libvcruntime:winapi_downlevel.obj
 0002:00000708       ??_C@_08KNHFBNJ@FlsAlloc?$AA@ 0000000180021708     libvcruntime:winapi_downlevel.obj
 0002:00000720       ??_C@_07PEJMOBNF@FlsFree?$AA@ 0000000180021720     libvcruntime:winapi_downlevel.obj
 0002:00000730       ??_C@_0M@GDNOONDI@FlsGetValue?$AA@ 0000000180021730     libvcruntime:winapi_downlevel.obj
 0002:00000748       ??_C@_0M@JCPCPOEF@FlsSetValue?$AA@ 0000000180021748     libvcruntime:winapi_downlevel.obj
 0002:00000760       ??_C@_0BM@HCFOFFN@InitializeCriticalSectionEx?$AA@ 0000000180021760     libvcruntime:winapi_downlevel.obj
 0002:0000077c       ??_C@_01JOAMLHOP@?9?$AA@   000000018002177c     libvcruntime:undname.obj
 0002:00000780       ??_C@_01MIFGBAGJ@?$CL?$AA@ 0000000180021780     libvcruntime:undname.obj
 0002:00000784       ??_C@_01HNPIGOCE@?$CG?$AA@ 0000000180021784     libvcruntime:undname.obj
 0002:00000788       ??_C@_03MNHNFDLC@?9?$DO?$CK?$AA@ 0000000180021788     libvcruntime:undname.obj
 0002:0000078c       ??_C@_01KMDKNFGN@?1?$AA@   000000018002178c     libvcruntime:undname.obj
 0002:00000790       ??_C@_01FGNFDNOH@?$CF?$AA@ 0000000180021790     libvcruntime:undname.obj
 0002:00000794       ??_C@_01MNNFJEPP@?$DM?$AA@ 0000000180021794     libvcruntime:undname.obj
 0002:00000798       ??_C@_02EHCHHCKH@?$DM?$DN?$AA@ 0000000180021798     libvcruntime:undname.obj
 0002:0000079c       ??_C@_01PPODPGHN@?$DO?$AA@ 000000018002179c     libvcruntime:undname.obj
 0002:000007a0       ??_C@_02EEKDKGMJ@?$DO?$DN?$AA@ 00000001800217a0     libvcruntime:undname.obj
 0002:000007a4       ??_C@_01IHBHIGKO@?0?$AA@   00000001800217a4     libvcruntime:undname.obj
 0002:000007a8       ??_C@_02HCKGKOFO@?$CI?$CJ?$AA@ 00000001800217a8     libvcruntime:undname.obj
 0002:000007ac       ??_C@_01PJKLJHI@?$HO?$AA@  00000001800217ac     libvcruntime:undname.obj
 0002:000007b0       ??_C@_01JKBOJNNK@?$FO?$AA@ 00000001800217b0     libvcruntime:undname.obj
 0002:000007b4       ??_C@_01DNKMNLPK@?$HM?$AA@ 00000001800217b4     libvcruntime:undname.obj
 0002:000007b8       ??_C@_02PPKAJPJL@?$CG?$CG?$AA@ 00000001800217b8     libvcruntime:undname.obj
 0002:000007bc       ??_C@_02NONPIBCD@?$HM?$HM?$AA@ 00000001800217bc     libvcruntime:undname.obj
 0002:000007c0       ??_C@_02FPIMKNGF@?$CK?$DN?$AA@ 00000001800217c0     libvcruntime:undname.obj
 0002:000007c4       ??_C@_02FOEOMHFC@?$CL?$DN?$AA@ 00000001800217c4     libvcruntime:undname.obj
 0002:000007c8       ??_C@_02FKMDLLOA@?9?$DN?$AA@ 00000001800217c8     libvcruntime:undname.obj
 0002:000007cc       ??_C@_02FJEHGPIO@?1?$DN?$AA@ 00000001800217cc     libvcruntime:undname.obj
 0002:000007d0       ??_C@_02FENAOKFI@?$CF?$DN?$AA@ 00000001800217d0     libvcruntime:undname.obj
 0002:000007d4       ??_C@_03IKFCCPFF@?$DO?$DO?$DN?$AA@ 00000001800217d4     libvcruntime:undname.obj
 0002:000007d8       ??_C@_03CDNPDDLA@?$DM?$DM?$DN?$AA@ 00000001800217d8     libvcruntime:undname.obj
 0002:000007dc       ??_C@_02FGJGFEAB@?$CG?$DN?$AA@ 00000001800217dc     libvcruntime:undname.obj
 0002:000007e0       ??_C@_02DHLNPPGH@?$HM?$DN?$AA@ 00000001800217e0     libvcruntime:undname.obj
 0002:000007e4       ??_C@_02MHEGNOJ@?$FO?$DN?$AA@ 00000001800217e4     libvcruntime:undname.obj
 0002:000007e8       ??_C@_09IFPLHPGF@?$GAvftable?8?$AA@ 00000001800217e8     libvcruntime:undname.obj
 0002:000007f8       ??_C@_09BLBHBJP@?$GAvbtable?8?$AA@ 00000001800217f8     libvcruntime:undname.obj
 0002:00000808       ??_C@_07FEEIOKP@?$GAvcall?8?$AA@ 0000000180021808     libvcruntime:undname.obj
 0002:00000810       ??_C@_08LLFFHHDJ@?$GAtypeof?8?$AA@ 0000000180021810     libvcruntime:undname.obj
 0002:00000820       ??_C@_0BF@KDPPACIK@?$GAlocal?5static?5guard?8?$AA@ 0000000180021820     libvcruntime:undname.obj
 0002:00000838       ??_C@_08OBABFOLI@?$GAstring?8?$AA@ 0000000180021838     libvcruntime:undname.obj
 0002:00000848       ??_C@_0BD@JDLKDPAB@?$GAvbase?5destructor?8?$AA@ 0000000180021848     libvcruntime:undname.obj
 0002:00000860       ??_C@_0BN@DEGPLNFK@?$GAvector?5deleting?5destructor?8?$AA@ 0000000180021860     libvcruntime:undname.obj
 0002:00000880       ??_C@_0BO@OBMKPJIG@?$GAdefault?5constructor?5closure?8?$AA@ 0000000180021880     libvcruntime:undname.obj
 0002:000008a0       ??_C@_0BN@IMDCHIKM@?$GAscalar?5deleting?5destructor?8?$AA@ 00000001800218a0     libvcruntime:undname.obj
 0002:000008c0       ??_C@_0BO@PFGOCPJJ@?$GAvector?5constructor?5iterator?8?$AA@ 00000001800218c0     libvcruntime:undname.obj
 0002:000008e0       ??_C@_0BN@LFPFMEDL@?$GAvector?5destructor?5iterator?8?$AA@ 00000001800218e0     libvcruntime:undname.obj
 0002:00000900       ??_C@_0CE@IKBNEHA@?$GAvector?5vbase?5constructor?5iterat@ 0000000180021900     libvcruntime:undname.obj
 0002:00000928       ??_C@_0BL@NILFHHPC@?$GAvirtual?5displacement?5map?8?$AA@ 0000000180021928     libvcruntime:undname.obj
 0002:00000948       ??_C@_0CB@JONCMFFK@?$GAeh?5vector?5constructor?5iterator?8@ 0000000180021948     libvcruntime:undname.obj
 0002:00000970       ??_C@_0CA@GCEOPDGL@?$GAeh?5vector?5destructor?5iterator?8?$AA@ 0000000180021970     libvcruntime:undname.obj
 0002:00000990       ??_C@_0CH@OOJPLCPH@?$GAeh?5vector?5vbase?5constructor?5ite@ 0000000180021990     libvcruntime:undname.obj
 0002:000009b8       ??_C@_0BL@LLKPOHJI@?$GAcopy?5constructor?5closure?8?$AA@ 00000001800219b8     libvcruntime:undname.obj
 0002:000009d8       ??_C@_0BA@KBCDOMBN@?$GAudt?5returning?8?$AA@ 00000001800219d8     libvcruntime:undname.obj
 0002:000009e8       ??_C@_03KLGMFNMG@?$GAEH?$AA@ 00000001800219e8     libvcruntime:undname.obj
 0002:000009ec       ??_C@_05KHLCHHI@?$GARTTI?$AA@ 00000001800219ec     libvcruntime:undname.obj
 0002:000009f8       ??_C@_0BA@KKLDJDLB@?$GAlocal?5vftable?8?$AA@ 00000001800219f8     libvcruntime:undname.obj
 0002:00000a08       ??_C@_0CE@IIHCMGGL@?$GAlocal?5vftable?5constructor?5closu@ 0000000180021a08     libvcruntime:undname.obj
 0002:00000a2c       ??_C@_06FHBGPFGH@?5new?$FL?$FN?$AA@ 0000000180021a2c     libvcruntime:undname.obj
 0002:00000a38       ??_C@_09LBNFPBCA@?5delete?$FL?$FN?$AA@ 0000000180021a38     libvcruntime:undname.obj
 0002:00000a48       ??_C@_0P@HJKNJFNN@?$GAomni?5callsig?8?$AA@ 0000000180021a48     libvcruntime:undname.obj
 0002:00000a58       ??_C@_0BL@CNOONJFP@?$GAplacement?5delete?5closure?8?$AA@ 0000000180021a58     libvcruntime:undname.obj
 0002:00000a78       ??_C@_0BN@CKNJLHMB@?$GAplacement?5delete?$FL?$FN?5closure?8?$AA@ 0000000180021a78     libvcruntime:undname.obj
 0002:00000a98       ??_C@_0CG@CFDHKGGD@?$GAmanaged?5vector?5constructor?5iter@ 0000000180021a98     libvcruntime:undname.obj
 0002:00000ac0       ??_C@_0CF@IMGKMJNO@?$GAmanaged?5vector?5destructor?5itera@ 0000000180021ac0     libvcruntime:undname.obj
 0002:00000ae8       ??_C@_0CG@HLDDJMAG@?$GAeh?5vector?5copy?5constructor?5iter@ 0000000180021ae8     libvcruntime:undname.obj
 0002:00000b10       ??_C@_0CM@FCBBDIGB@?$GAeh?5vector?5vbase?5copy?5constructo@ 0000000180021b10     libvcruntime:undname.obj
 0002:00000b40       ??_C@_0BL@CLIPGLGB@?$GAdynamic?5initializer?5for?5?8?$AA@ 0000000180021b40     libvcruntime:undname.obj
 0002:00000b60       ??_C@_0CB@PDBIFEP@?$GAdynamic?5atexit?5destructor?5for?5?8@ 0000000180021b60     libvcruntime:undname.obj
 0002:00000b88       ??_C@_0CD@CGAJBKEJ@?$GAvector?5copy?5constructor?5iterato@ 0000000180021b88     libvcruntime:undname.obj
 0002:00000bb0       ??_C@_0CJ@GJELGAMM@?$GAvector?5vbase?5copy?5constructor?5i@ 0000000180021bb0     libvcruntime:undname.obj
 0002:00000be0       ??_C@_0CL@FGIJHLCE@?$GAmanaged?5vector?5copy?5constructor@ 0000000180021be0     libvcruntime:undname.obj
 0002:00000c10       ??_C@_0BM@PMGGMLDN@?$GAlocal?5static?5thread?5guard?8?$AA@ 0000000180021c10     libvcruntime:undname.obj
 0002:00000c30       ??_C@_0N@BDNMDMOL@operator?5?$CC?$CC?5?$AA@ 0000000180021c30     libvcruntime:undname.obj
 0002:00000f68       ??_C@_0BC@DAFEJGAK@?5Type?5Descriptor?8?$AA@ 0000000180021f68     libvcruntime:undname.obj
 0002:00000f80       ??_C@_0BM@LDKODKLH@?5Base?5Class?5Descriptor?5at?5?$CI?$AA@ 0000000180021f80     libvcruntime:undname.obj
 0002:00000fa0       ??_C@_0BD@LGICGFMM@?5Base?5Class?5Array?8?$AA@ 0000000180021fa0     libvcruntime:undname.obj
 0002:00000fb8       ??_C@_0BN@MECKDCOJ@?5Class?5Hierarchy?5Descriptor?8?$AA@ 0000000180021fb8     libvcruntime:undname.obj
 0002:00000fd8       ??_C@_0BK@CFCOFLF@?5Complete?5Object?5Locator?8?$AA@ 0000000180021fd8     libvcruntime:undname.obj
 0002:00000ff8       ??_C@_08EHJDFFNH@__based?$CI?$AA@ 0000000180021ff8     libvcruntime:undname.obj
 0002:00001008       ??_C@_07KOLFKCDI@__cdecl?$AA@ 0000000180022008     libvcruntime:undname.obj
 0002:00001010       ??_C@_08GHMPAG@__pascal?$AA@ 0000000180022010     libvcruntime:undname.obj
 0002:00001020       ??_C@_09IFJBGAPI@__stdcall?$AA@ 0000000180022020     libvcruntime:undname.obj
 0002:00001030       ??_C@_0L@NPHFGOKO@__thiscall?$AA@ 0000000180022030     libvcruntime:undname.obj
 0002:00001040       ??_C@_0L@JMKHOMEK@__fastcall?$AA@ 0000000180022040     libvcruntime:undname.obj
 0002:00001050       ??_C@_0N@BCKKPABJ@__vectorcall?$AA@ 0000000180022050     libvcruntime:undname.obj
 0002:00001060       ??_C@_09HIJEGCPM@__clrcall?$AA@ 0000000180022060     libvcruntime:undname.obj
 0002:0000106c       ??_C@_06GHPCKEAG@__eabi?$AA@ 000000018002206c     libvcruntime:undname.obj
 0002:00001078       ??_C@_07JOMMBBKO@__ptr64?$AA@ 0000000180022078     libvcruntime:undname.obj
 0002:00001080       ??_C@_0L@PILCLIHE@__restrict?$AA@ 0000000180022080     libvcruntime:undname.obj
 0002:00001090       ??_C@_0M@GFIIJFMG@__unaligned?$AA@ 0000000180022090     libvcruntime:undname.obj
 0002:000010a0       ??_C@_09DHDLOLLB@restrict?$CI?$AA@ 00000001800220a0     libvcruntime:undname.obj
 0002:000010ac       ??_C@_04NIHEBCM@?5new?$AA@ 00000001800220ac     libvcruntime:undname.obj
 0002:000010b8       ??_C@_07FPCDHGMM@?5delete?$AA@ 00000001800220b8     libvcruntime:undname.obj
 0002:000010c0       ??_C@_01NEMOKFLO@?$DN?$AA@ 00000001800220c0     libvcruntime:undname.obj
 0002:000010c4       ??_C@_02GPIOPFAK@?$DO?$DO?$AA@ 00000001800220c4     libvcruntime:undname.obj
 0002:000010c8       ??_C@_02FODMEDOG@?$DM?$DM?$AA@ 00000001800220c8     libvcruntime:undname.obj
 0002:000010cc       ??_C@_01DCLJPIOD@?$CB?$AA@ 00000001800220cc     libvcruntime:undname.obj
 0002:000010d0       ??_C@_02EGOFBIJA@?$DN?$DN?$AA@ 00000001800220d0     libvcruntime:undname.obj
 0002:000010d4       ??_C@_02FDNJECIE@?$CB?$DN?$AA@ 00000001800220d4     libvcruntime:undname.obj
 0002:000010d8       ??_C@_02GPECMEKF@?$FL?$FN?$AA@ 00000001800220d8     libvcruntime:undname.obj
 0002:000010e0       ??_C@_08LHJFAFGD@operator?$AA@ 00000001800220e0     libvcruntime:undname.obj
 0002:000010ec       ??_C@_02HBOOOICD@?9?$DO?$AA@ 00000001800220ec     libvcruntime:undname.obj
 0002:000010f0       ??_C@_01NBENCBCI@?$CK?$AA@ 00000001800220f0     libvcruntime:undname.obj
 0002:000010f4       ??_C@_02ECNGHCIF@?$CL?$CL?$AA@ 00000001800220f4     libvcruntime:undname.obj
 0002:000010f8       ??_C@_02BAABKJLB@?9?9?$AA@ 00000001800220f8     libvcruntime:undname.obj
 0002:00001100       standard_lookup_table      0000000180022100     libucrt:output.obj
 0002:00001160       format_validation_lookup_table 0000000180022160     libucrt:output.obj
 0002:000011bc       ??_C@_06OJHGLDPL@?$CInull?$CJ?$AA@ 00000001800221bc     libucrt:output.obj
 0002:000011c8       ??_C@_1O@CEDCILHN@?$AA?$CI?$AAn?$AAu?$AAl?$AAl?$AA?$CJ?$AA?$AA@ 00000001800221c8     libucrt:output.obj
 0002:000011e0       ??_C@_1EK@MBDPDCGA@?$AAM?$AAi?$AAc?$AAr?$AAo?$AAs?$AAo?$AAf?$AAt?$AA?5?$AAV?$AAi?$AAs?$AAu?$AAa?$AAl?$AA?5?$AAC?$AA?$CL?$AA?$CL?$AA?5?$AAR?$AAu?$AAn?$AAt?$AAi?$AAm?$AAe?$AA?5?$AAL?$AAi?$AAb@ 00000001800221e0     libucrt:assert.obj
 0002:00001230       ??_C@_1FE@LHBLIKM@?$AAA?$AAs?$AAs?$AAe?$AAr?$AAt?$AAi?$AAo?$AAn?$AA?5?$AAf?$AAa?$AAi?$AAl?$AAe?$AAd?$AA?3?$AA?5?$AA?$CF?$AAT?$AAs?$AA?0?$AA?5?$AAf?$AAi?$AAl?$AAe?$AA?5?$AA?$CF?$AAT?$AAs?$AA?0@ 0000000180022230     libucrt:assert.obj
 0002:00001288       ??_C@_1CE@OJBNHDMO@?$AAA?$AAs?$AAs?$AAe?$AAr?$AAt?$AAi?$AAo?$AAn?$AA?5?$AAf?$AAa?$AAi?$AAl?$AAe?$AAd?$AA?$CB?$AA?$AA@ 0000000180022288     libucrt:assert.obj
 0002:000012b0       ??_C@_1BE@PHKBBGE@?$AAP?$AAr?$AAo?$AAg?$AAr?$AAa?$AAm?$AA?3?$AA?5?$AA?$AA@ 00000001800222b0     libucrt:assert.obj
 0002:000012c8       ??_C@_1O@HEMHKNDC@?$AAF?$AAi?$AAl?$AAe?$AA?3?$AA?5?$AA?$AA@ 00000001800222c8     libucrt:assert.obj
 0002:000012d8       ??_C@_1O@KCAFKHJE@?$AAL?$AAi?$AAn?$AAe?$AA?3?$AA?5?$AA?$AA@ 00000001800222d8     libucrt:assert.obj
 0002:000012e8       ??_C@_1BK@PEDCIPMA@?$AAE?$AAx?$AAp?$AAr?$AAe?$AAs?$AAs?$AAi?$AAo?$AAn?$AA?3?$AA?5?$AA?$AA@ 00000001800222e8     libucrt:assert.obj
 0002:00001310       ??_C@_1OA@EGMLFBHJ@?$AAF?$AAo?$AAr?$AA?5?$AAi?$AAn?$AAf?$AAo?$AAr?$AAm?$AAa?$AAt?$AAi?$AAo?$AAn?$AA?5?$AAo?$AAn?$AA?5?$AAh?$AAo?$AAw?$AA?5?$AAy?$AAo?$AAu?$AAr?$AA?5?$AAp?$AAr?$AAo?$AAg@ 0000000180022310     libucrt:assert.obj
 0002:000013f0       ??_C@_1HK@POCJMFGK@?$AA?$CI?$AAP?$AAr?$AAe?$AAs?$AAs?$AA?5?$AAR?$AAe?$AAt?$AAr?$AAy?$AA?5?$AAt?$AAo?$AA?5?$AAd?$AAe?$AAb?$AAu?$AAg?$AA?5?$AAt?$AAh?$AAe?$AA?5?$AAa?$AAp?$AAp?$AAl?$AAi?$AAc@ 00000001800223f0     libucrt:assert.obj
 0002:00001470       ??_C@_17LGKOMLJ@?$AA?4?$AA?4?$AA?4?$AA?$AA@ 0000000180022470     libucrt:assert.obj
 0002:00001478       ??_C@_13LBAGMAIH@?$AA?6?$AA?$AA@ 0000000180022478     libucrt:assert.obj
 0002:0000147c       ??_C@_15IABLJNFO@?$AA?6?$AA?6?$AA?$AA@ 000000018002247c     libucrt:assert.obj
 0002:00001488       ??_C@_1CO@EAEJAADC@?$AA?$DM?$AAp?$AAr?$AAo?$AAg?$AAr?$AAa?$AAm?$AA?5?$AAn?$AAa?$AAm?$AAe?$AA?5?$AAu?$AAn?$AAk?$AAn?$AAo?$AAw?$AAn?$AA?$DO?$AA?$AA@ 0000000180022488     libucrt:assert.obj
 0002:000014c0       __acrt_exception_action_table 00000001800224c0     libucrt:exception_filter.obj
 0002:00001580       __acrt_signal_action_table_count 0000000180022580     libucrt:exception_filter.obj
 0002:00001588       __acrt_signal_action_first_fpe_index 0000000180022588     libucrt:exception_filter.obj
 0002:00001590       __acrt_signal_action_fpe_count 0000000180022590     libucrt:exception_filter.obj
 0002:00001598       ??_C@_1BI@BGOHAHKC@?$AAm?$AAs?$AAc?$AAo?$AAr?$AAe?$AAe?$AA?4?$AAd?$AAl?$AAl?$AA?$AA@ 0000000180022598     libucrt:exit.obj
 0002:000015b0       ??_C@_0P@MIGLKIOC@CorExitProcess?$AA@ 00000001800225b0     libucrt:exit.obj
 0002:00001818       ??_C@_03OEIAHPBN@INF?$AA@  0000000180022818     libucrt:cvt.obj
 0002:0000181c       ??_C@_03OJHLLCGB@inf?$AA@  000000018002281c     libucrt:cvt.obj
 0002:00001820       ??_C@_03LKNCIKJB@NAN?$AA@  0000000180022820     libucrt:cvt.obj
 0002:00001824       ??_C@_03LHCJEHON@nan?$AA@  0000000180022824     libucrt:cvt.obj
 0002:00001828       ??_C@_09OFJJIMPC@NAN?$CISNAN?$CJ?$AA@ 0000000180022828     libucrt:cvt.obj
 0002:00001838       ??_C@_09IPFBKMDL@nan?$CIsnan?$CJ?$AA@ 0000000180022838     libucrt:cvt.obj
 0002:00001848       ??_C@_08IKHNHAJ@NAN?$CIIND?$CJ?$AA@ 0000000180022848     libucrt:cvt.obj
 0002:00001858       ??_C@_08OFCDMILK@nan?$CIind?$CJ?$AA@ 0000000180022858     libucrt:cvt.obj
 0002:00001864       ??_C@_05KLBDPFGC@e?$CL000?$AA@ 0000000180022864     libucrt:cvt.obj
 0002:00001870       __lc_time_c                0000000180022870     libucrt:nlsdata.obj
 0002:00001b30       ??_C@_03KOEHGMDN@Sun?$AA@  0000000180022b30     libucrt:nlsdata.obj
 0002:00001b34       ??_C@_03PDAGKDH@Mon?$AA@   0000000180022b34     libucrt:nlsdata.obj
 0002:00001b38       ??_C@_03NAGEINEP@Tue?$AA@  0000000180022b38     libucrt:nlsdata.obj
 0002:00001b3c       ??_C@_03MHOMLAJA@Wed?$AA@  0000000180022b3c     libucrt:nlsdata.obj
 0002:00001b40       ??_C@_03IOFIKPDN@Thu?$AA@  0000000180022b40     libucrt:nlsdata.obj
 0002:00001b44       ??_C@_03IDIOELNC@Fri?$AA@  0000000180022b44     libucrt:nlsdata.obj
 0002:00001b48       ??_C@_03FEFJNEK@Sat?$AA@   0000000180022b48     libucrt:nlsdata.obj
 0002:00001b4c       ??_C@_06OOPIFAJ@Sunday?$AA@ 0000000180022b4c     libucrt:nlsdata.obj
 0002:00001b54       ??_C@_06JLEDEDGH@Monday?$AA@ 0000000180022b54     libucrt:nlsdata.obj
 0002:00001b60       ??_C@_07BAAGCFCM@Tuesday?$AA@ 0000000180022b60     libucrt:nlsdata.obj
 0002:00001b68       ??_C@_09DLIGFAKA@Wednesday?$AA@ 0000000180022b68     libucrt:nlsdata.obj
 0002:00001b78       ??_C@_08HACCIKIA@Thursday?$AA@ 0000000180022b78     libucrt:nlsdata.obj
 0002:00001b84       ??_C@_06JECMNKMI@Friday?$AA@ 0000000180022b84     libucrt:nlsdata.obj
 0002:00001b90       ??_C@_08INBOOONO@Saturday?$AA@ 0000000180022b90     libucrt:nlsdata.obj
 0002:00001b9c       ??_C@_03JIHJHPIE@Jan?$AA@  0000000180022b9c     libucrt:nlsdata.obj
 0002:00001ba0       ??_C@_03HJBDCHOM@Feb?$AA@  0000000180022ba0     libucrt:nlsdata.obj
 0002:00001ba4       ??_C@_03ODNJBKGA@Mar?$AA@  0000000180022ba4     libucrt:nlsdata.obj
 0002:00001ba8       ??_C@_03LEOLGMJP@Apr?$AA@  0000000180022ba8     libucrt:nlsdata.obj
 0002:00001bac       ??_C@_03CNMDKL@May?$AA@    0000000180022bac     libucrt:nlsdata.obj
 0002:00001bb0       ??_C@_03IDFGHECI@Jun?$AA@  0000000180022bb0     libucrt:nlsdata.obj
 0002:00001bb4       ??_C@_03LBGABGKK@Jul?$AA@  0000000180022bb4     libucrt:nlsdata.obj
 0002:00001bb8       ??_C@_03IFJFEIGA@Aug?$AA@  0000000180022bb8     libucrt:nlsdata.obj
 0002:00001bbc       ??_C@_03GGCAPAJC@Sep?$AA@  0000000180022bbc     libucrt:nlsdata.obj
 0002:00001bc0       ??_C@_03BMAOKBAD@Oct?$AA@  0000000180022bc0     libucrt:nlsdata.obj
 0002:00001bc4       ??_C@_03JPJOFNIA@Nov?$AA@  0000000180022bc4     libucrt:nlsdata.obj
 0002:00001bc8       ??_C@_03MKABNOCG@Dec?$AA@  0000000180022bc8     libucrt:nlsdata.obj
 0002:00001bd0       ??_C@_07CGJPFGJA@January?$AA@ 0000000180022bd0     libucrt:nlsdata.obj
 0002:00001bd8       ??_C@_08GNJGEPFN@February?$AA@ 0000000180022bd8     libucrt:nlsdata.obj
 0002:00001be4       ??_C@_05HPCKOFNC@March?$AA@ 0000000180022be4     libucrt:nlsdata.obj
 0002:00001bec       ??_C@_05DMJDNLEJ@April?$AA@ 0000000180022bec     libucrt:nlsdata.obj
 0002:00001bf4       ??_C@_04CNLMGBGM@June?$AA@ 0000000180022bf4     libucrt:nlsdata.obj
 0002:00001bfc       ??_C@_04MIEPOIFP@July?$AA@ 0000000180022bfc     libucrt:nlsdata.obj
 0002:00001c04       ??_C@_06LBBHFDDG@August?$AA@ 0000000180022c04     libucrt:nlsdata.obj
 0002:00001c10       ??_C@_09BHHEALKD@September?$AA@ 0000000180022c10     libucrt:nlsdata.obj
 0002:00001c20       ??_C@_07JJNFCEND@October?$AA@ 0000000180022c20     libucrt:nlsdata.obj
 0002:00001c28       ??_C@_08HCHEGEOA@November?$AA@ 0000000180022c28     libucrt:nlsdata.obj
 0002:00001c38       ??_C@_08EDHMEBNP@December?$AA@ 0000000180022c38     libucrt:nlsdata.obj
 0002:00001c44       ??_C@_02DEDBPAFC@AM?$AA@   0000000180022c44     libucrt:nlsdata.obj
 0002:00001c48       ??_C@_02CJNFDJBF@PM?$AA@   0000000180022c48     libucrt:nlsdata.obj
 0002:00001c50       ??_C@_08BPBNCDIB@MM?1dd?1yy?$AA@ 0000000180022c50     libucrt:nlsdata.obj
 0002:00001c60       ??_C@_0BE@CKGJFCPC@dddd?0?5MMMM?5dd?0?5yyyy?$AA@ 0000000180022c60     libucrt:nlsdata.obj
 0002:00001c78       ??_C@_08JCCMCCIL@HH?3mm?3ss?$AA@ 0000000180022c78     libucrt:nlsdata.obj
 0002:00001c88       ??_C@_17MBGCMIPB@?$AAS?$AAu?$AAn?$AA?$AA@ 0000000180022c88     libucrt:nlsdata.obj
 0002:00001c90       ??_C@_17KBOMKBF@?$AAM?$AAo?$AAn?$AA?$AA@ 0000000180022c90     libucrt:nlsdata.obj
 0002:00001c98       ??_C@_17BMKGEGOJ@?$AAT?$AAu?$AAe?$AA?$AA@ 0000000180022c98     libucrt:nlsdata.obj
 0002:00001ca0       ??_C@_17CJEDCEPE@?$AAW?$AAe?$AAd?$AA?$AA@ 0000000180022ca0     libucrt:nlsdata.obj
 0002:00001ca8       ??_C@_17PDPHAADD@?$AAT?$AAh?$AAu?$AA?$AA@ 0000000180022ca8     libucrt:nlsdata.obj
 0002:00001cb0       ??_C@_17HFOLPPLP@?$AAF?$AAr?$AAi?$AA?$AA@ 0000000180022cb0     libucrt:nlsdata.obj
 0002:00001cb8       ??_C@_17GGIBDPIH@?$AAS?$AAa?$AAt?$AA?$AA@ 0000000180022cb8     libucrt:nlsdata.obj
 0002:00001cc0       ??_C@_1O@IHNHDHPB@?$AAS?$AAu?$AAn?$AAd?$AAa?$AAy?$AA?$AA@ 0000000180022cc0     libucrt:nlsdata.obj
 0002:00001cd0       ??_C@_1O@MMNBFLIA@?$AAM?$AAo?$AAn?$AAd?$AAa?$AAy?$AA?$AA@ 0000000180022cd0     libucrt:nlsdata.obj
 0002:00001ce0       ??_C@_1BA@ENFBFFEK@?$AAT?$AAu?$AAe?$AAs?$AAd?$AAa?$AAy?$AA?$AA@ 0000000180022ce0     libucrt:nlsdata.obj
 0002:00001cf0       ??_C@_1BE@EBOGMDOH@?$AAW?$AAe?$AAd?$AAn?$AAe?$AAs?$AAd?$AAa?$AAy?$AA?$AA@ 0000000180022cf0     libucrt:nlsdata.obj
 0002:00001d08       ??_C@_1BC@HHMNLIHE@?$AAT?$AAh?$AAu?$AAr?$AAs?$AAd?$AAa?$AAy?$AA?$AA@ 0000000180022d08     libucrt:nlsdata.obj
 0002:00001d20       ??_C@_1O@PDICJHAG@?$AAF?$AAr?$AAi?$AAd?$AAa?$AAy?$AA?$AA@ 0000000180022d20     libucrt:nlsdata.obj
 0002:00001d30       ??_C@_1BC@ENMNNPAJ@?$AAS?$AAa?$AAt?$AAu?$AAr?$AAd?$AAa?$AAy?$AA?$AA@ 0000000180022d30     libucrt:nlsdata.obj
 0002:00001d48       ??_C@_17DKNBKCHM@?$AAJ?$AAa?$AAn?$AA?$AA@ 0000000180022d48     libucrt:nlsdata.obj
 0002:00001d50       ??_C@_17LMDJEKJN@?$AAF?$AAe?$AAb?$AA?$AA@ 0000000180022d50     libucrt:nlsdata.obj
 0002:00001d58       ??_C@_17CKNLEDEC@?$AAM?$AAa?$AAr?$AA?$AA@ 0000000180022d58     libucrt:nlsdata.obj
 0002:00001d60       ??_C@_17LFPOIHDD@?$AAA?$AAp?$AAr?$AA?$AA@ 0000000180022d60     libucrt:nlsdata.obj
 0002:00001d68       ??_C@_17PNNKMEED@?$AAM?$AAa?$AAy?$AA?$AA@ 0000000180022d68     libucrt:nlsdata.obj
 0002:00001d70       ??_C@_17KCJGOCPB@?$AAJ?$AAu?$AAn?$AA?$AA@ 0000000180022d70     libucrt:nlsdata.obj
 0002:00001d78       ??_C@_17IJPCKHK@?$AAJ?$AAu?$AAl?$AA?$AA@ 0000000180022d78     libucrt:nlsdata.obj
 0002:00001d80       ??_C@_17ICPELBCN@?$AAA?$AAu?$AAg?$AA?$AA@ 0000000180022d80     libucrt:nlsdata.obj
 0002:00001d88       ??_C@_17HCHCOKMG@?$AAS?$AAe?$AAp?$AA?$AA@ 0000000180022d88     libucrt:nlsdata.obj
 0002:00001d90       ??_C@_17FNLKOI@?$AAO?$AAc?$AAt?$AA?$AA@ 0000000180022d90     libucrt:nlsdata.obj
 0002:00001d98       ??_C@_17BBDMLCIG@?$AAN?$AAo?$AAv?$AA?$AA@ 0000000180022d98     libucrt:nlsdata.obj
 0002:00001da0       ??_C@_17EGKACKIF@?$AAD?$AAe?$AAc?$AA?$AA@ 0000000180022da0     libucrt:nlsdata.obj
 0002:00001da8       ??_C@_1BA@EFMEIEBA@?$AAJ?$AAa?$AAn?$AAu?$AAa?$AAr?$AAy?$AA?$AA@ 0000000180022da8     libucrt:nlsdata.obj
 0002:00001db8       ??_C@_1BC@JGDDFFAM@?$AAF?$AAe?$AAb?$AAr?$AAu?$AAa?$AAr?$AAy?$AA?$AA@ 0000000180022db8     libucrt:nlsdata.obj
 0002:00001dd0       ??_C@_1M@IKEENEDF@?$AAM?$AAa?$AAr?$AAc?$AAh?$AA?$AA@ 0000000180022dd0     libucrt:nlsdata.obj
 0002:00001de0       ??_C@_1M@GJNLMHFD@?$AAA?$AAp?$AAr?$AAi?$AAl?$AA?$AA@ 0000000180022de0     libucrt:nlsdata.obj
 0002:00001df0       ??_C@_19EPFLPGAP@?$AAJ?$AAu?$AAn?$AAe?$AA?$AA@ 0000000180022df0     libucrt:nlsdata.obj
 0002:00001e00       ??_C@_19BIFMLPCD@?$AAJ?$AAu?$AAl?$AAy?$AA?$AA@ 0000000180022e00     libucrt:nlsdata.obj
 0002:00001e10       ??_C@_1O@PAHLKOAC@?$AAA?$AAu?$AAg?$AAu?$AAs?$AAt?$AA?$AA@ 0000000180022e10     libucrt:nlsdata.obj
 0002:00001e20       ??_C@_1BE@DKAAMBJL@?$AAS?$AAe?$AAp?$AAt?$AAe?$AAm?$AAb?$AAe?$AAr?$AA?$AA@ 0000000180022e20     libucrt:nlsdata.obj
 0002:00001e38       ??_C@_1BA@EPANDLNG@?$AAO?$AAc?$AAt?$AAo?$AAb?$AAe?$AAr?$AA?$AA@ 0000000180022e38     libucrt:nlsdata.obj
 0002:00001e48       ??_C@_1BC@BGLIFPF@?$AAN?$AAo?$AAv?$AAe?$AAm?$AAb?$AAe?$AAr?$AA?$AA@ 0000000180022e48     libucrt:nlsdata.obj
 0002:00001e60       ??_C@_1BC@FEMKIFH@?$AAD?$AAe?$AAc?$AAe?$AAm?$AAb?$AAe?$AAr?$AA?$AA@ 0000000180022e60     libucrt:nlsdata.obj
 0002:00001e74       ??_C@_15ODEHAHHF@?$AAA?$AAM?$AA?$AA@ 0000000180022e74     libucrt:nlsdata.obj
 0002:00001e7c       ??_C@_15CLMNNGEL@?$AAP?$AAM?$AA?$AA@ 0000000180022e7c     libucrt:nlsdata.obj
 0002:00001e88       ??_C@_1BC@IEBCMHCM@?$AAM?$AAM?$AA?1?$AAd?$AAd?$AA?1?$AAy?$AAy?$AA?$AA@ 0000000180022e88     libucrt:nlsdata.obj
 0002:00001ea0       ??_C@_1CI@KNAKOEBC@?$AAd?$AAd?$AAd?$AAd?$AA?0?$AA?5?$AAM?$AAM?$AAM?$AAM?$AA?5?$AAd?$AAd?$AA?0?$AA?5?$AAy?$AAy?$AAy?$AAy?$AA?$AA@ 0000000180022ea0     libucrt:nlsdata.obj
 0002:00001ec8       ??_C@_1BC@GDGBMEMK@?$AAH?$AAH?$AA?3?$AAm?$AAm?$AA?3?$AAs?$AAs?$AA?$AA@ 0000000180022ec8     libucrt:nlsdata.obj
 0002:00001ee0       ??_C@_1M@BMHNFIME@?$AAe?$AAn?$AA?9?$AAU?$AAS?$AA?$AA@ 0000000180022ee0     libucrt:nlsdata.obj
 0002:00001f90       ??_C@_1EG@CNNIPFIM@?$AAa?$AAp?$AAi?$AA?9?$AAm?$AAs?$AA?9?$AAw?$AAi?$AAn?$AA?9?$AAa?$AAp?$AAp?$AAm?$AAo?$AAd?$AAe?$AAl?$AA?9?$AAr?$AAu?$AAn?$AAt?$AAi?$AAm?$AAe?$AA?9?$AAl?$AA1?$AA?9?$AA1@ 0000000180022f90     libucrt:winapi_thunks.obj
 0002:00001fe0       ??_C@_1EA@JGEFHKEI@?$AAa?$AAp?$AAi?$AA?9?$AAm?$AAs?$AA?9?$AAw?$AAi?$AAn?$AA?9?$AAc?$AAo?$AAr?$AAe?$AA?9?$AAd?$AAa?$AAt?$AAe?$AAt?$AAi?$AAm?$AAe?$AA?9?$AAl?$AA1?$AA?9?$AA1?$AA?9?$AA1?$AA?$AA@ 0000000180022fe0     libucrt:winapi_thunks.obj
 0002:00002020       ??_C@_1DI@GCIAAENM@?$AAa?$AAp?$AAi?$AA?9?$AAm?$AAs?$AA?9?$AAw?$AAi?$AAn?$AA?9?$AAc?$AAo?$AAr?$AAe?$AA?9?$AAf?$AAi?$AAl?$AAe?$AA?9?$AAl?$AA2?$AA?9?$AA1?$AA?9?$AA1?$AA?$AA@ 0000000180023020     libucrt:winapi_thunks.obj
 0002:00002060       ??_C@_1EI@MPIAOHOC@?$AAa?$AAp?$AAi?$AA?9?$AAm?$AAs?$AA?9?$AAw?$AAi?$AAn?$AA?9?$AAc?$AAo?$AAr?$AAe?$AA?9?$AAl?$AAo?$AAc?$AAa?$AAl?$AAi?$AAz?$AAa?$AAt?$AAi?$AAo?$AAn?$AA?9?$AAl?$AA1?$AA?9@ 0000000180023060     libucrt:winapi_thunks.obj
 0002:000020b0       ??_C@_1FK@FPHCKFIE@?$AAa?$AAp?$AAi?$AA?9?$AAm?$AAs?$AA?9?$AAw?$AAi?$AAn?$AA?9?$AAc?$AAo?$AAr?$AAe?$AA?9?$AAl?$AAo?$AAc?$AAa?$AAl?$AAi?$AAz?$AAa?$AAt?$AAi?$AAo?$AAn?$AA?9?$AAo?$AAb?$AAs@ 00000001800230b0     libucrt:winapi_thunks.obj
 0002:00002110       ??_C@_1EM@DILCGIIO@?$AAa?$AAp?$AAi?$AA?9?$AAm?$AAs?$AA?9?$AAw?$AAi?$AAn?$AA?9?$AAc?$AAo?$AAr?$AAe?$AA?9?$AAp?$AAr?$AAo?$AAc?$AAe?$AAs?$AAs?$AAt?$AAh?$AAr?$AAe?$AAa?$AAd?$AAs?$AA?9?$AAl@ 0000000180023110     libucrt:winapi_thunks.obj
 0002:00002160       ??_C@_1DM@LNCGDDPN@?$AAa?$AAp?$AAi?$AA?9?$AAm?$AAs?$AA?9?$AAw?$AAi?$AAn?$AA?9?$AAc?$AAo?$AAr?$AAe?$AA?9?$AAs?$AAt?$AAr?$AAi?$AAn?$AAg?$AA?9?$AAl?$AA1?$AA?9?$AA1?$AA?9?$AA0?$AA?$AA@ 0000000180023160     libucrt:winapi_thunks.obj
 0002:000021a0       ??_C@_1DO@FPAPJEMD@?$AAa?$AAp?$AAi?$AA?9?$AAm?$AAs?$AA?9?$AAw?$AAi?$AAn?$AA?9?$AAc?$AAo?$AAr?$AAe?$AA?9?$AAs?$AAy?$AAs?$AAi?$AAn?$AAf?$AAo?$AA?9?$AAl?$AA1?$AA?9?$AA2?$AA?9?$AA1?$AA?$AA@ 00000001800231a0     libucrt:winapi_thunks.obj
 0002:000021e0       ??_C@_1DK@NDHNAHIO@?$AAa?$AAp?$AAi?$AA?9?$AAm?$AAs?$AA?9?$AAw?$AAi?$AAn?$AA?9?$AAc?$AAo?$AAr?$AAe?$AA?9?$AAw?$AAi?$AAn?$AAr?$AAt?$AA?9?$AAl?$AA1?$AA?9?$AA1?$AA?9?$AA0?$AA?$AA@ 00000001800231e0     libucrt:winapi_thunks.obj
 0002:00002220       ??_C@_1DM@KGHDGBCM@?$AAa?$AAp?$AAi?$AA?9?$AAm?$AAs?$AA?9?$AAw?$AAi?$AAn?$AA?9?$AAc?$AAo?$AAr?$AAe?$AA?9?$AAx?$AAs?$AAt?$AAa?$AAt?$AAe?$AA?9?$AAl?$AA2?$AA?9?$AA1?$AA?9?$AA0?$AA?$AA@ 0000000180023220     libucrt:winapi_thunks.obj
 0002:00002260       ??_C@_1EO@IJIOEFOH@?$AAa?$AAp?$AAi?$AA?9?$AAm?$AAs?$AA?9?$AAw?$AAi?$AAn?$AA?9?$AAr?$AAt?$AAc?$AAo?$AAr?$AAe?$AA?9?$AAn?$AAt?$AAu?$AAs?$AAe?$AAr?$AA?9?$AAw?$AAi?$AAn?$AAd?$AAo?$AAw?$AA?9@ 0000000180023260     libucrt:winapi_thunks.obj
 0002:000022b0       ??_C@_1FG@HHGEKANL@?$AAa?$AAp?$AAi?$AA?9?$AAm?$AAs?$AA?9?$AAw?$AAi?$AAn?$AA?9?$AAs?$AAe?$AAc?$AAu?$AAr?$AAi?$AAt?$AAy?$AA?9?$AAs?$AAy?$AAs?$AAt?$AAe?$AAm?$AAf?$AAu?$AAn?$AAc?$AAt?$AAi@ 00000001800232b0     libucrt:winapi_thunks.obj
 0002:00002310       ??_C@_1FG@NCKKOLKO@?$AAe?$AAx?$AAt?$AA?9?$AAm?$AAs?$AA?9?$AAw?$AAi?$AAn?$AA?9?$AAk?$AAe?$AAr?$AAn?$AAe?$AAl?$AA3?$AA2?$AA?9?$AAp?$AAa?$AAc?$AAk?$AAa?$AAg?$AAe?$AA?9?$AAc?$AAu?$AAr?$AAr@ 0000000180023310     libucrt:winapi_thunks.obj
 0002:00002370       ??_C@_1EG@DBIOJECG@?$AAe?$AAx?$AAt?$AA?9?$AAm?$AAs?$AA?9?$AAw?$AAi?$AAn?$AA?9?$AAn?$AAt?$AAu?$AAs?$AAe?$AAr?$AA?9?$AAd?$AAi?$AAa?$AAl?$AAo?$AAg?$AAb?$AAo?$AAx?$AA?9?$AAl?$AA1?$AA?9?$AA1@ 0000000180023370     libucrt:winapi_thunks.obj
 0002:000023c0       ??_C@_1EO@FIHMJCLF@?$AAe?$AAx?$AAt?$AA?9?$AAm?$AAs?$AA?9?$AAw?$AAi?$AAn?$AA?9?$AAn?$AAt?$AAu?$AAs?$AAe?$AAr?$AA?9?$AAw?$AAi?$AAn?$AAd?$AAo?$AAw?$AAs?$AAt?$AAa?$AAt?$AAi?$AAo?$AAn?$AA?9@ 00000001800233c0     libucrt:winapi_thunks.obj
 0002:00002410       ??_C@_1O@BCCLBEOE@?$AAu?$AAs?$AAe?$AAr?$AA3?$AA2?$AA?$AA@ 0000000180023410     libucrt:winapi_thunks.obj
 0002:00002448       ??_C@_0BA@HNOPNCHB@GetActiveWindow?$AA@ 0000000180023448     libucrt:winapi_thunks.obj
 0002:00002460       ??_C@_0BE@JOGNEJCI@GetCurrentPackageId?$AA@ 0000000180023460     libucrt:winapi_thunks.obj
 0002:00002480       ??_C@_0BD@HHGDFDBJ@GetLastActivePopup?$AA@ 0000000180023480     libucrt:winapi_thunks.obj
 0002:000024a0       ??_C@_0BI@DFKBFLJE@GetProcessWindowStation?$AA@ 00000001800234a0     libucrt:winapi_thunks.obj
 0002:000024c0       ??_C@_0BK@DEKFELLI@GetUserObjectInformationW?$AA@ 00000001800234c0     libucrt:winapi_thunks.obj
 0002:000024f0       ??_C@_0O@KKBNKAPF@LCMapStringEx?$AA@ 00000001800234f0     libucrt:winapi_thunks.obj
 0002:00002508       ??_C@_0BB@HBDEELFH@LocaleNameToLCID?$AA@ 0000000180023508     libucrt:winapi_thunks.obj
 0002:00002528       ??_C@_0M@CHKKJDAI@MessageBoxA?$AA@ 0000000180023528     libucrt:winapi_thunks.obj
 0002:00002540       ??_C@_0M@DLDCCGNP@MessageBoxW?$AA@ 0000000180023540     libucrt:winapi_thunks.obj
 0002:00002570       ??_C@_1M@HPNHIDJI@?$AAj?$AAa?$AA?9?$AAJ?$AAP?$AA?$AA@ 0000000180023570     libucrt:mbctype.obj
 0002:00002580       ??_C@_1M@BIBDDEMK@?$AAz?$AAh?$AA?9?$AAC?$AAN?$AA?$AA@ 0000000180023580     libucrt:mbctype.obj
 0002:00002590       ??_C@_1M@JLOOOEGK@?$AAk?$AAo?$AA?9?$AAK?$AAR?$AA?$AA@ 0000000180023590     libucrt:mbctype.obj
 0002:000025a0       ??_C@_1M@CLNBBOPM@?$AAz?$AAh?$AA?9?$AAT?$AAW?$AA?$AA@ 00000001800235a0     libucrt:mbctype.obj
 0002:000025b0       __newctype                 00000001800235b0     libucrt:ctype.obj
 0002:000028b0       __newclmap                 00000001800238b0     libucrt:ctype.obj
 0002:00002a30       __newcumap                 0000000180023a30     libucrt:ctype.obj
 0002:00002bb0       _wctype                    0000000180023bb0     libucrt:ctype.obj
 0002:00002dc0       ?large_power_data@?1??multiply_by_power_of_ten@__crt_strtox@@YA_NAEAUbig_integer@2@I@Z@4QBIB 0000000180023dc0     libucrt:cfout.obj
 0002:000036d0       ?large_power_indices@?1??multiply_by_power_of_ten@__crt_strtox@@YA_NAEAUbig_integer@2@I@Z@4QBUunpack_index@?1??12@YA_N0I@Z@B 00000001800246d0     libucrt:cfout.obj
 0002:00003768       ?small_powers_of_ten@?6??multiply_by_power_of_ten@__crt_strtox@@YA_NAEAUbig_integer@2@I@Z@4QBIB 0000000180024768     libucrt:cfout.obj
 0002:0000378c       ??_C@_01GBGANLPD@0?$AA@    000000018002478c     libucrt:cfout.obj
 0002:00003790       ??_C@_05DNEBIAHO@1?$CDINF?$AA@ 0000000180024790     libucrt:cfout.obj
 0002:00003798       ??_C@_06IMKFLFPG@1?$CDQNAN?$AA@ 0000000180024798     libucrt:cfout.obj
 0002:000037a0       ??_C@_06PGGFOGJG@1?$CDSNAN?$AA@ 00000001800247a0     libucrt:cfout.obj
 0002:000037a8       ??_C@_05PHHOCPM@1?$CDIND?$AA@ 00000001800247a8     libucrt:cfout.obj
 0002:000037b0       ??_C@_15PJPFLCCM@?$AAu?$AAk?$AA?$AA@ 00000001800247b0     libucrt:get_qualified_locale.obj
 0002:00004600       ??_C@_15EMKDOKLE@?$AAa?$AAr?$AA?$AA@ 0000000180025600     libucrt:lcidtoname_downlevel.obj
 0002:00004608       ??_C@_15KNPADPLH@?$AAb?$AAg?$AA?$AA@ 0000000180025608     libucrt:lcidtoname_downlevel.obj
 0002:00004610       ??_C@_15EDMHLDMO@?$AAc?$AAa?$AA?$AA@ 0000000180025610     libucrt:lcidtoname_downlevel.obj
 0002:00004618       ??_C@_1O@BPEAJADD@?$AAz?$AAh?$AA?9?$AAC?$AAH?$AAS?$AA?$AA@ 0000000180025618     libucrt:lcidtoname_downlevel.obj
 0002:00004628       ??_C@_15LJNHCMNK@?$AAc?$AAs?$AA?$AA@ 0000000180025628     libucrt:lcidtoname_downlevel.obj
 0002:00004630       ??_C@_15FOMCIDHG@?$AAd?$AAa?$AA?$AA@ 0000000180025630     libucrt:lcidtoname_downlevel.obj
 0002:00004638       ??_C@_15NBKABECB@?$AAd?$AAe?$AA?$AA@ 0000000180025638     libucrt:lcidtoname_downlevel.obj
 0002:00004640       ??_C@_15GHPEIIAO@?$AAe?$AAl?$AA?$AA@ 0000000180025640     libucrt:lcidtoname_downlevel.obj
 0002:00004648       ??_C@_15MNPNEAIF@?$AAe?$AAn?$AA?$AA@ 0000000180025648     libucrt:lcidtoname_downlevel.obj
 0002:00004650       ??_C@_15GPIOMPMH@?$AAe?$AAs?$AA?$AA@ 0000000180025650     libucrt:lcidtoname_downlevel.obj
 0002:00004658       ??_C@_15NGLOAKJC@?$AAf?$AAi?$AA?$AA@ 0000000180025658     libucrt:lcidtoname_downlevel.obj
 0002:00004660       ??_C@_15FBKGNKAM@?$AAf?$AAr?$AA?$AA@ 0000000180025660     libucrt:lcidtoname_downlevel.obj
 0002:00004668       ??_C@_15KGGCNEFK@?$AAh?$AAe?$AA?$AA@ 0000000180025668     libucrt:lcidtoname_downlevel.obj
 0002:00004670       ??_C@_15PGHLIDMF@?$AAh?$AAu?$AA?$AA@ 0000000180025670     libucrt:lcidtoname_downlevel.obj
 0002:00004678       ??_C@_15BIEMAPLM@?$AAi?$AAs?$AA?$AA@ 0000000180025678     libucrt:lcidtoname_downlevel.obj
 0002:00004680       ??_C@_15IFJLDHAF@?$AAi?$AAt?$AA?$AA@ 0000000180025680     libucrt:lcidtoname_downlevel.obj
 0002:00004688       ??_C@_15GEMIOCAG@?$AAj?$AAa?$AA?$AA@ 0000000180025688     libucrt:lcidtoname_downlevel.obj
 0002:00004690       ??_C@_15EPELEGJA@?$AAk?$AAo?$AA?$AA@ 0000000180025690     libucrt:lcidtoname_downlevel.obj
 0002:00004698       ??_C@_15NDDHIMN@?$AAn?$AAl?$AA?$AA@ 0000000180025698     libucrt:lcidtoname_downlevel.obj
 0002:000046a0       ??_C@_15BPIGNHCD@?$AAn?$AAo?$AA?$AA@ 00000001800256a0     libucrt:lcidtoname_downlevel.obj
 0002:000046a8       ??_C@_15DEOPBLCG@?$AAp?$AAl?$AA?$AA@ 00000001800256a8     libucrt:lcidtoname_downlevel.obj
 0002:000046b0       ??_C@_15KBECGEFG@?$AAp?$AAt?$AA?$AA@ 00000001800256b0     libucrt:lcidtoname_downlevel.obj
 0002:000046b8       ??_C@_15GLJCBFMD@?$AAr?$AAo?$AA?$AA@ 00000001800256b8     libucrt:lcidtoname_downlevel.obj
 0002:000046c0       ??_C@_15FEDGKCDI@?$AAr?$AAu?$AA?$AA@ 00000001800256c0     libucrt:lcidtoname_downlevel.obj
 0002:000046c8       ??_C@_15GLKMLLHM@?$AAh?$AAr?$AA?$AA@ 00000001800256c8     libucrt:lcidtoname_downlevel.obj
 0002:000046d0       ??_C@_15CPKMFBDB@?$AAs?$AAk?$AA?$AA@ 00000001800256d0     libucrt:lcidtoname_downlevel.obj
 0002:000046d8       ??_C@_15BAAIOGMK@?$AAs?$AAq?$AA?$AA@ 00000001800256d8     libucrt:lcidtoname_downlevel.obj
 0002:000046e0       ??_C@_15INNPNOHD@?$AAs?$AAv?$AA?$AA@ 00000001800256e0     libucrt:lcidtoname_downlevel.obj
 0002:000046e8       ??_C@_15CABMMOGH@?$AAt?$AAh?$AA?$AA@ 00000001800256e8     libucrt:lcidtoname_downlevel.obj
 0002:000046f0       ??_C@_15BPLIHJJM@?$AAt?$AAr?$AA?$AA@ 00000001800256f0     libucrt:lcidtoname_downlevel.obj
 0002:000046f8       ??_C@_15NEOEKKDJ@?$AAu?$AAr?$AA?$AA@ 00000001800256f8     libucrt:lcidtoname_downlevel.obj
 0002:00004700       ??_C@_15NFICGAJK@?$AAi?$AAd?$AA?$AA@ 0000000180025700     libucrt:lcidtoname_downlevel.obj
 0002:00004708       ??_C@_15HPJPHDM@?$AAb?$AAe?$AA?$AA@ 0000000180025708     libucrt:lcidtoname_downlevel.obj
 0002:00004710       ??_C@_15LCHLGJII@?$AAs?$AAl?$AA?$AA@ 0000000180025710     libucrt:lcidtoname_downlevel.obj
 0002:00004718       ??_C@_15PCFJPHHO@?$AAe?$AAt?$AA?$AA@ 0000000180025718     libucrt:lcidtoname_downlevel.obj
 0002:00004720       ??_C@_15HPFPGODN@?$AAl?$AAv?$AA?$AA@ 0000000180025720     libucrt:lcidtoname_downlevel.obj
 0002:00004728       ??_C@_15NFFGKGLG@?$AAl?$AAt?$AA?$AA@ 0000000180025728     libucrt:lcidtoname_downlevel.obj
 0002:00004730       ??_C@_15BDAKCCHN@?$AAf?$AAa?$AA?$AA@ 0000000180025730     libucrt:lcidtoname_downlevel.obj
 0002:00004738       ??_C@_15NFGIAIAJ@?$AAv?$AAi?$AA?$AA@ 0000000180025738     libucrt:lcidtoname_downlevel.obj
 0002:00004740       ??_C@_15LMKNDMHN@?$AAh?$AAy?$AA?$AA@ 0000000180025740     libucrt:lcidtoname_downlevel.obj
 0002:00004748       ??_C@_15IJBHMCFL@?$AAa?$AAz?$AA?$AA@ 0000000180025748     libucrt:lcidtoname_downlevel.obj
 0002:00004750       ??_C@_15EKOFJABL@?$AAe?$AAu?$AA?$AA@ 0000000180025750     libucrt:lcidtoname_downlevel.obj
 0002:00004758       ??_C@_15BGHADCNK@?$AAm?$AAk?$AA?$AA@ 0000000180025758     libucrt:lcidtoname_downlevel.obj
 0002:00004760       ??_C@_15JDNICKHM@?$AAa?$AAf?$AA?$AA@ 0000000180025760     libucrt:lcidtoname_downlevel.obj
 0002:00004768       ??_C@_15KPJEDBKD@?$AAk?$AAa?$AA?$AA@ 0000000180025768     libucrt:lcidtoname_downlevel.obj
 0002:00004770       ??_C@_15PDNFFFEO@?$AAf?$AAo?$AA?$AA@ 0000000180025770     libucrt:lcidtoname_downlevel.obj
 0002:00004778       ??_C@_15OMLEGLOC@?$AAh?$AAi?$AA?$AA@ 0000000180025778     libucrt:lcidtoname_downlevel.obj
 0002:00004780       ??_C@_15IDNNENKK@?$AAm?$AAs?$AA?$AA@ 0000000180025780     libucrt:lcidtoname_downlevel.obj
 0002:00004788       ??_C@_15MACJNBMH@?$AAk?$AAk?$AA?$AA@ 0000000180025788     libucrt:lcidtoname_downlevel.obj
 0002:00004790       ??_C@_15DKDJEOND@?$AAk?$AAy?$AA?$AA@ 0000000180025790     libucrt:lcidtoname_downlevel.obj
 0002:00004798       ??_C@_15DFGDLJBG@?$AAs?$AAw?$AA?$AA@ 0000000180025798     libucrt:lcidtoname_downlevel.obj
 0002:000047a0       ??_C@_15BBFAICNG@?$AAu?$AAz?$AA?$AA@ 00000001800257a0     libucrt:lcidtoname_downlevel.obj
 0002:000047a8       ??_C@_15DKNDCGEA@?$AAt?$AAt?$AA?$AA@ 00000001800257a8     libucrt:lcidtoname_downlevel.obj
 0002:000047b0       ??_C@_15MGIFMDPL@?$AAp?$AAa?$AA?$AA@ 00000001800257b0     libucrt:lcidtoname_downlevel.obj
 0002:000047b8       ??_C@_15HCNDBBA@?$AAg?$AAu?$AA?$AA@ 00000001800257b8     libucrt:lcidtoname_downlevel.obj
 0002:000047c0       ??_C@_15FNBEIBON@?$AAt?$AAa?$AA?$AA@ 00000001800257c0     libucrt:lcidtoname_downlevel.obj
 0002:000047c8       ??_C@_15NCHGBGLK@?$AAt?$AAe?$AA?$AA@ 00000001800257c8     libucrt:lcidtoname_downlevel.obj
 0002:000047d0       ??_C@_15PHPHCBPF@?$AAk?$AAn?$AA?$AA@ 00000001800257d0     libucrt:lcidtoname_downlevel.obj
 0002:000047d8       ??_C@_15DLGBCKMP@?$AAm?$AAr?$AA?$AA@ 00000001800257d8     libucrt:lcidtoname_downlevel.obj
 0002:000047e0       ??_C@_15EABBLBFF@?$AAs?$AAa?$AA?$AA@ 00000001800257e0     libucrt:lcidtoname_downlevel.obj
 0002:000047e8       ??_C@_15CBKOMCOI@?$AAm?$AAn?$AA?$AA@ 00000001800257e8     libucrt:lcidtoname_downlevel.obj
 0002:000047f0       ??_C@_15CKDMCJAF@?$AAg?$AAl?$AA?$AA@ 00000001800257f0     libucrt:lcidtoname_downlevel.obj
 0002:000047f8       ??_C@_17CNJFBPG@?$AAk?$AAo?$AAk?$AA?$AA@ 00000001800257f8     libucrt:lcidtoname_downlevel.obj
 0002:00004800       ??_C@_17FFBJICPL@?$AAs?$AAy?$AAr?$AA?$AA@ 0000000180025800     libucrt:lcidtoname_downlevel.obj
 0002:00004808       ??_C@_17KPNDCPAF@?$AAd?$AAi?$AAv?$AA?$AA@ 0000000180025808     libucrt:lcidtoname_downlevel.obj
 0002:00004810       ??_C@_1M@OKAHONE@?$AAa?$AAr?$AA?9?$AAS?$AAA?$AA?$AA@ 0000000180025810     libucrt:lcidtoname_downlevel.obj
 0002:00004820       ??_C@_1M@FFFIGIGK@?$AAb?$AAg?$AA?9?$AAB?$AAG?$AA?$AA@ 0000000180025820     libucrt:lcidtoname_downlevel.obj
 0002:00004830       ??_C@_1M@BJNKEDC@?$AAc?$AAa?$AA?9?$AAE?$AAS?$AA?$AA@ 0000000180025830     libucrt:lcidtoname_downlevel.obj
 0002:00004840       ??_C@_1M@IJJHFJHA@?$AAc?$AAs?$AA?9?$AAC?$AAZ?$AA?$AA@ 0000000180025840     libucrt:lcidtoname_downlevel.obj
 0002:00004850       ??_C@_1M@CLPEOBGI@?$AAd?$AAa?$AA?9?$AAD?$AAK?$AA?$AA@ 0000000180025850     libucrt:lcidtoname_downlevel.obj
 0002:00004860       ??_C@_1M@MCMADGCB@?$AAd?$AAe?$AA?9?$AAD?$AAE?$AA?$AA@ 0000000180025860     libucrt:lcidtoname_downlevel.obj
 0002:00004870       ??_C@_1M@OOCKEMAM@?$AAe?$AAl?$AA?9?$AAG?$AAR?$AA?$AA@ 0000000180025870     libucrt:lcidtoname_downlevel.obj
 0002:00004880       ??_C@_1M@DDNJFGID@?$AAf?$AAi?$AA?9?$AAF?$AAI?$AA?$AA@ 0000000180025880     libucrt:lcidtoname_downlevel.obj
 0002:00004890       ??_C@_1M@GLIPPMAC@?$AAf?$AAr?$AA?9?$AAF?$AAR?$AA?$AA@ 0000000180025890     libucrt:lcidtoname_downlevel.obj
 0002:000048a0       ??_C@_1M@GFMCHPE@?$AAh?$AAe?$AA?9?$AAI?$AAL?$AA?$AA@ 00000001800258a0     libucrt:lcidtoname_downlevel.obj
 0002:000048b0       ??_C@_1M@MHLPGNKM@?$AAh?$AAu?$AA?9?$AAH?$AAU?$AA?$AA@ 00000001800258b0     libucrt:lcidtoname_downlevel.obj
 0002:000048c0       ??_C@_1M@LPDDNNPN@?$AAi?$AAs?$AA?9?$AAI?$AAS?$AA?$AA@ 00000001800258c0     libucrt:lcidtoname_downlevel.obj
 0002:000048d0       ??_C@_1M@MADIPODN@?$AAi?$AAt?$AA?9?$AAI?$AAT?$AA?$AA@ 00000001800258d0     libucrt:lcidtoname_downlevel.obj
 0002:000048e0       ??_C@_1M@IHBJJGG@?$AAn?$AAl?$AA?9?$AAN?$AAL?$AA?$AA@ 00000001800258e0     libucrt:lcidtoname_downlevel.obj
 0002:000048f0       ??_C@_1M@EANAGDL@?$AAn?$AAb?$AA?9?$AAN?$AAO?$AA?$AA@ 00000001800258f0     libucrt:lcidtoname_downlevel.obj
 0002:00004900       ??_C@_1M@NEIEMEGP@?$AAp?$AAl?$AA?9?$AAP?$AAL?$AA?$AA@ 0000000180025900     libucrt:lcidtoname_downlevel.obj
 0002:00004910       ??_C@_1M@BOCFIGEP@?$AAp?$AAt?$AA?9?$AAB?$AAR?$AA?$AA@ 0000000180025910     libucrt:lcidtoname_downlevel.obj
 0002:00004920       ??_C@_1M@IMPFOPBG@?$AAr?$AAo?$AA?9?$AAR?$AAO?$AA?$AA@ 0000000180025920     libucrt:lcidtoname_downlevel.obj
 0002:00004930       ??_C@_1M@IDNNEJMM@?$AAr?$AAu?$AA?9?$AAR?$AAU?$AA?$AA@ 0000000180025930     libucrt:lcidtoname_downlevel.obj
 0002:00004940       ??_C@_1M@LILEEOGM@?$AAh?$AAr?$AA?9?$AAH?$AAR?$AA?$AA@ 0000000180025940     libucrt:lcidtoname_downlevel.obj
 0002:00004950       ??_C@_1M@FKIFEHPB@?$AAs?$AAk?$AA?9?$AAS?$AAK?$AA?$AA@ 0000000180025950     libucrt:lcidtoname_downlevel.obj
 0002:00004960       ??_C@_1M@LJMAMNPJ@?$AAs?$AAq?$AA?9?$AAA?$AAL?$AA?$AA@ 0000000180025960     libucrt:lcidtoname_downlevel.obj
 0002:00004970       ??_C@_1M@GIAKDKJK@?$AAs?$AAv?$AA?9?$AAS?$AAE?$AA?$AA@ 0000000180025970     libucrt:lcidtoname_downlevel.obj
 0002:00004980       ??_C@_1M@MKJKIKCL@?$AAt?$AAh?$AA?9?$AAT?$AAH?$AA?$AA@ 0000000180025980     libucrt:lcidtoname_downlevel.obj
 0002:00004990       ??_C@_1M@MFLCCMPB@?$AAt?$AAr?$AA?9?$AAT?$AAR?$AA?$AA@ 0000000180025990     libucrt:lcidtoname_downlevel.obj
 0002:000049a0       ??_C@_1M@OIJHDKJN@?$AAu?$AAr?$AA?9?$AAP?$AAK?$AA?$AA@ 00000001800259a0     libucrt:lcidtoname_downlevel.obj
 0002:000049b0       ??_C@_1M@LHIPCIEK@?$AAi?$AAd?$AA?9?$AAI?$AAD?$AA?$AA@ 00000001800259b0     libucrt:lcidtoname_downlevel.obj
 0002:000049c0       ??_C@_1M@MFMOBGI@?$AAu?$AAk?$AA?9?$AAU?$AAA?$AA?$AA@ 00000001800259c0     libucrt:lcidtoname_downlevel.obj
 0002:000049d0       ??_C@_1M@OBGLJIPL@?$AAb?$AAe?$AA?9?$AAB?$AAY?$AA?$AA@ 00000001800259d0     libucrt:lcidtoname_downlevel.obj
 0002:000049e0       ??_C@_1M@BCFAJEAD@?$AAs?$AAl?$AA?9?$AAS?$AAI?$AA?$AA@ 00000001800259e0     libucrt:lcidtoname_downlevel.obj
 0002:000049f0       ??_C@_1M@FKFFEDDN@?$AAe?$AAt?$AA?9?$AAE?$AAE?$AA?$AA@ 00000001800259f0     libucrt:lcidtoname_downlevel.obj
 0002:00004a00       ??_C@_1M@KGKKAACI@?$AAl?$AAv?$AA?9?$AAL?$AAV?$AA?$AA@ 0000000180025a00     libucrt:lcidtoname_downlevel.obj
 0002:00004a10       ??_C@_1M@IFGBIJO@?$AAl?$AAt?$AA?9?$AAL?$AAT?$AA?$AA@ 0000000180025a10     libucrt:lcidtoname_downlevel.obj
 0002:00004a20       ??_C@_1M@FGEAHEDM@?$AAf?$AAa?$AA?9?$AAI?$AAR?$AA?$AA@ 0000000180025a20     libucrt:lcidtoname_downlevel.obj
 0002:00004a30       ??_C@_1M@KBMAIBFN@?$AAv?$AAi?$AA?9?$AAV?$AAN?$AA?$AA@ 0000000180025a30     libucrt:lcidtoname_downlevel.obj
 0002:00004a40       ??_C@_1M@GPCBKDJK@?$AAh?$AAy?$AA?9?$AAA?$AAM?$AA?$AA@ 0000000180025a40     libucrt:lcidtoname_downlevel.obj
 0002:00004a50       ??_C@_1BG@BECMDDJB@?$AAa?$AAz?$AA?9?$AAA?$AAZ?$AA?9?$AAL?$AAa?$AAt?$AAn?$AA?$AA@ 0000000180025a50     libucrt:lcidtoname_downlevel.obj
 0002:00004a68       ??_C@_1M@MAOFCAEA@?$AAe?$AAu?$AA?9?$AAE?$AAS?$AA?$AA@ 0000000180025a68     libucrt:lcidtoname_downlevel.obj
 0002:00004a78       ??_C@_1M@IGHABKPI@?$AAm?$AAk?$AA?9?$AAM?$AAK?$AA?$AA@ 0000000180025a78     libucrt:lcidtoname_downlevel.obj
 0002:00004a88       ??_C@_1M@IAIGNEJG@?$AAt?$AAn?$AA?9?$AAZ?$AAA?$AA?$AA@ 0000000180025a88     libucrt:lcidtoname_downlevel.obj
 0002:00004a98       ??_C@_1M@IIJCOJFA@?$AAx?$AAh?$AA?9?$AAZ?$AAA?$AA?$AA@ 0000000180025a98     libucrt:lcidtoname_downlevel.obj
 0002:00004aa8       ??_C@_1M@LGPJHNJH@?$AAz?$AAu?$AA?9?$AAZ?$AAA?$AA?$AA@ 0000000180025aa8     libucrt:lcidtoname_downlevel.obj
 0002:00004ab8       ??_C@_1M@HOKAOIO@?$AAa?$AAf?$AA?9?$AAZ?$AAA?$AA?$AA@ 0000000180025ab8     libucrt:lcidtoname_downlevel.obj
 0002:00004ac8       ??_C@_1M@DPCLHLIE@?$AAk?$AAa?$AA?9?$AAG?$AAE?$AA?$AA@ 0000000180025ac8     libucrt:lcidtoname_downlevel.obj
 0002:00004ad8       ??_C@_1M@BLKMHJBI@?$AAf?$AAo?$AA?9?$AAF?$AAO?$AA?$AA@ 0000000180025ad8     libucrt:lcidtoname_downlevel.obj
 0002:00004ae8       ??_C@_1M@LGGJAPPB@?$AAh?$AAi?$AA?9?$AAI?$AAN?$AA?$AA@ 0000000180025ae8     libucrt:lcidtoname_downlevel.obj
 0002:00004af8       ??_C@_1M@FIKPIHFE@?$AAm?$AAt?$AA?9?$AAM?$AAT?$AA?$AA@ 0000000180025af8     libucrt:lcidtoname_downlevel.obj
 0002:00004b08       ??_C@_1M@HEGGPBFA@?$AAs?$AAe?$AA?9?$AAN?$AAO?$AA?$AA@ 0000000180025b08     libucrt:lcidtoname_downlevel.obj
 0002:00004b18       ??_C@_1M@EIBJEEPA@?$AAm?$AAs?$AA?9?$AAM?$AAY?$AA?$AA@ 0000000180025b18     libucrt:lcidtoname_downlevel.obj
 0002:00004b28       ??_C@_1M@FHLBGMPP@?$AAk?$AAk?$AA?9?$AAK?$AAZ?$AA?$AA@ 0000000180025b28     libucrt:lcidtoname_downlevel.obj
 0002:00004b38       ??_C@_1M@NGJJLCGI@?$AAk?$AAy?$AA?9?$AAK?$AAG?$AA?$AA@ 0000000180025b38     libucrt:lcidtoname_downlevel.obj
 0002:00004b48       ??_C@_1M@GIENNBFC@?$AAs?$AAw?$AA?9?$AAK?$AAE?$AA?$AA@ 0000000180025b48     libucrt:lcidtoname_downlevel.obj
 0002:00004b58       ??_C@_1BG@NDGMJIMJ@?$AAu?$AAz?$AA?9?$AAU?$AAZ?$AA?9?$AAL?$AAa?$AAt?$AAn?$AA?$AA@ 0000000180025b58     libucrt:lcidtoname_downlevel.obj
 0002:00004b70       ??_C@_1M@IDCCIHBC@?$AAt?$AAt?$AA?9?$AAR?$AAU?$AA?$AA@ 0000000180025b70     libucrt:lcidtoname_downlevel.obj
 0002:00004b80       ??_C@_1M@LOICPMOJ@?$AAb?$AAn?$AA?9?$AAI?$AAN?$AA?$AA@ 0000000180025b80     libucrt:lcidtoname_downlevel.obj
 0002:00004b90       ??_C@_1M@KPKKNEAH@?$AAp?$AAa?$AA?9?$AAI?$AAN?$AA?$AA@ 0000000180025b90     libucrt:lcidtoname_downlevel.obj
 0002:00004ba0       ??_C@_1M@PJGPPBOG@?$AAg?$AAu?$AA?9?$AAI?$AAN?$AA?$AA@ 0000000180025ba0     libucrt:lcidtoname_downlevel.obj
 0002:00004bb0       ??_C@_1M@KMKMOPHI@?$AAt?$AAa?$AA?9?$AAI?$AAN?$AA?$AA@ 0000000180025bb0     libucrt:lcidtoname_downlevel.obj
 0002:00004bc0       ??_C@_1M@KFEHEPAC@?$AAt?$AAe?$AA?9?$AAI?$AAN?$AA?$AA@ 0000000180025bc0     libucrt:lcidtoname_downlevel.obj
 0002:00004bd0       ??_C@_1M@CDCLMGHI@?$AAk?$AAn?$AA?9?$AAI?$AAN?$AA?$AA@ 0000000180025bd0     libucrt:lcidtoname_downlevel.obj
 0002:00004be0       ??_C@_1M@MIODLDKF@?$AAm?$AAl?$AA?9?$AAI?$AAN?$AA?$AA@ 0000000180025be0     libucrt:lcidtoname_downlevel.obj
 0002:00004bf0       ??_C@_1M@PBIEACPO@?$AAm?$AAr?$AA?9?$AAI?$AAN?$AA?$AA@ 0000000180025bf0     libucrt:lcidtoname_downlevel.obj
 0002:00004c00       ??_C@_1M@NIDEAGPH@?$AAs?$AAa?$AA?9?$AAI?$AAN?$AA?$AA@ 0000000180025c00     libucrt:lcidtoname_downlevel.obj
 0002:00004c10       ??_C@_1M@FHIHCBIO@?$AAm?$AAn?$AA?9?$AAM?$AAN?$AA?$AA@ 0000000180025c10     libucrt:lcidtoname_downlevel.obj
 0002:00004c20       ??_C@_1M@JAIJPENP@?$AAc?$AAy?$AA?9?$AAG?$AAB?$AA?$AA@ 0000000180025c20     libucrt:lcidtoname_downlevel.obj
 0002:00004c30       ??_C@_1M@PHGFBEPN@?$AAg?$AAl?$AA?9?$AAE?$AAS?$AA?$AA@ 0000000180025c30     libucrt:lcidtoname_downlevel.obj
 0002:00004c40       ??_C@_1O@KPIPDNCP@?$AAk?$AAo?$AAk?$AA?9?$AAI?$AAN?$AA?$AA@ 0000000180025c40     libucrt:lcidtoname_downlevel.obj
 0002:00004c50       ??_C@_1O@KNHJLDJA@?$AAs?$AAy?$AAr?$AA?9?$AAS?$AAY?$AA?$AA@ 0000000180025c50     libucrt:lcidtoname_downlevel.obj
 0002:00004c60       ??_C@_1O@MKEKBLAH@?$AAd?$AAi?$AAv?$AA?9?$AAM?$AAV?$AA?$AA@ 0000000180025c60     libucrt:lcidtoname_downlevel.obj
 0002:00004c70       ??_C@_1O@OHDCKDDF@?$AAq?$AAu?$AAz?$AA?9?$AAB?$AAO?$AA?$AA@ 0000000180025c70     libucrt:lcidtoname_downlevel.obj
 0002:00004c80       ??_C@_1M@LEPJNLFD@?$AAn?$AAs?$AA?9?$AAZ?$AAA?$AA?$AA@ 0000000180025c80     libucrt:lcidtoname_downlevel.obj
 0002:00004c90       ??_C@_1M@OMLEIIJB@?$AAm?$AAi?$AA?9?$AAN?$AAZ?$AA?$AA@ 0000000180025c90     libucrt:lcidtoname_downlevel.obj
 0002:00004ca0       ??_C@_1M@PMPEAILG@?$AAa?$AAr?$AA?9?$AAI?$AAQ?$AA?$AA@ 0000000180025ca0     libucrt:lcidtoname_downlevel.obj
 0002:00004cb0       ??_C@_1M@CNKPNOEE@?$AAd?$AAe?$AA?9?$AAC?$AAH?$AA?$AA@ 0000000180025cb0     libucrt:lcidtoname_downlevel.obj
 0002:00004cc0       ??_C@_1M@LKMGMLKO@?$AAe?$AAn?$AA?9?$AAG?$AAB?$AA?$AA@ 0000000180025cc0     libucrt:lcidtoname_downlevel.obj
 0002:00004cd0       ??_C@_1M@PGKJFFGL@?$AAe?$AAs?$AA?9?$AAM?$AAX?$AA?$AA@ 0000000180025cd0     libucrt:lcidtoname_downlevel.obj
 0002:00004ce0       ??_C@_1M@DNNANBDC@?$AAf?$AAr?$AA?9?$AAB?$AAE?$AA?$AA@ 0000000180025ce0     libucrt:lcidtoname_downlevel.obj
 0002:00004cf0       ??_C@_1M@HLGMDFHM@?$AAi?$AAt?$AA?9?$AAC?$AAH?$AA?$AA@ 0000000180025cf0     libucrt:lcidtoname_downlevel.obj
 0002:00004d00       ??_C@_1M@CLLBGJH@?$AAn?$AAl?$AA?9?$AAB?$AAE?$AA?$AA@ 0000000180025d00     libucrt:lcidtoname_downlevel.obj
 0002:00004d10       ??_C@_1M@BODBOGLF@?$AAn?$AAn?$AA?9?$AAN?$AAO?$AA?$AA@ 0000000180025d10     libucrt:lcidtoname_downlevel.obj
 0002:00004d20       ??_C@_1M@HFFAHKAD@?$AAp?$AAt?$AA?9?$AAP?$AAT?$AA?$AA@ 0000000180025d20     libucrt:lcidtoname_downlevel.obj
 0002:00004d30       ??_C@_1BG@LNOAKHIE@?$AAs?$AAr?$AA?9?$AAS?$AAP?$AA?9?$AAL?$AAa?$AAt?$AAn?$AA?$AA@ 0000000180025d30     libucrt:lcidtoname_downlevel.obj
 0002:00004d48       ??_C@_1M@HBMHBGAK@?$AAs?$AAv?$AA?9?$AAF?$AAI?$AA?$AA@ 0000000180025d48     libucrt:lcidtoname_downlevel.obj
 0002:00004d58       ??_C@_1BG@DGCJGJBE@?$AAa?$AAz?$AA?9?$AAA?$AAZ?$AA?9?$AAC?$AAy?$AAr?$AAl?$AA?$AA@ 0000000180025d58     libucrt:lcidtoname_downlevel.obj
 0002:00004d70       ??_C@_1M@KEJDAAHB@?$AAs?$AAe?$AA?9?$AAS?$AAE?$AA?$AA@ 0000000180025d70     libucrt:lcidtoname_downlevel.obj
 0002:00004d80       ??_C@_1M@HEIBJJAD@?$AAm?$AAs?$AA?9?$AAB?$AAN?$AA?$AA@ 0000000180025d80     libucrt:lcidtoname_downlevel.obj
 0002:00004d90       ??_C@_1BG@PBGJMCEM@?$AAu?$AAz?$AA?9?$AAU?$AAZ?$AA?9?$AAC?$AAy?$AAr?$AAl?$AA?$AA@ 0000000180025d90     libucrt:lcidtoname_downlevel.obj
 0002:00004da8       ??_C@_1O@LAOBCMDF@?$AAq?$AAu?$AAz?$AA?9?$AAE?$AAC?$AA?$AA@ 0000000180025da8     libucrt:lcidtoname_downlevel.obj
 0002:00004db8       ??_C@_1M@POEEMAIO@?$AAa?$AAr?$AA?9?$AAE?$AAG?$AA?$AA@ 0000000180025db8     libucrt:lcidtoname_downlevel.obj
 0002:00004dc8       ??_C@_1M@EFAKDEDL@?$AAz?$AAh?$AA?9?$AAH?$AAK?$AA?$AA@ 0000000180025dc8     libucrt:lcidtoname_downlevel.obj
 0002:00004dd8       ??_C@_1M@HKKIJHGI@?$AAd?$AAe?$AA?9?$AAA?$AAT?$AA?$AA@ 0000000180025dd8     libucrt:lcidtoname_downlevel.obj
 0002:00004de8       ??_C@_1M@KBFBEHJF@?$AAe?$AAn?$AA?9?$AAA?$AAU?$AA?$AA@ 0000000180025de8     libucrt:lcidtoname_downlevel.obj
 0002:00004df8       ??_C@_1M@MNPLFAAH@?$AAe?$AAs?$AA?9?$AAE?$AAS?$AA?$AA@ 0000000180025df8     libucrt:lcidtoname_downlevel.obj
 0002:00004e08       ??_C@_1M@HJOOJFMA@?$AAf?$AAr?$AA?9?$AAC?$AAA?$AA?$AA@ 0000000180025e08     libucrt:lcidtoname_downlevel.obj
 0002:00004e18       ??_C@_1BG@JPOFPNAB@?$AAs?$AAr?$AA?9?$AAS?$AAP?$AA?9?$AAC?$AAy?$AAr?$AAl?$AA?$AA@ 0000000180025e18     libucrt:lcidtoname_downlevel.obj
 0002:00004e30       ??_C@_1M@LNFOCMOB@?$AAs?$AAe?$AA?9?$AAF?$AAI?$AA?$AA@ 0000000180025e30     libucrt:lcidtoname_downlevel.obj
 0002:00004e40       ??_C@_1O@MGJBOAMB@?$AAq?$AAu?$AAz?$AA?9?$AAP?$AAE?$AA?$AA@ 0000000180025e40     libucrt:lcidtoname_downlevel.obj
 0002:00004e50       ??_C@_1M@GJINLBOK@?$AAa?$AAr?$AA?9?$AAL?$AAY?$AA?$AA@ 0000000180025e50     libucrt:lcidtoname_downlevel.obj
 0002:00004e60       ??_C@_1M@GGMNHJNL@?$AAz?$AAh?$AA?9?$AAS?$AAG?$AA?$AA@ 0000000180025e60     libucrt:lcidtoname_downlevel.obj
 0002:00004e70       ??_C@_1M@HOIKODND@?$AAd?$AAe?$AA?9?$AAL?$AAU?$AA?$AA@ 0000000180025e70     libucrt:lcidtoname_downlevel.obj
 0002:00004e80       ??_C@_1M@DDOCCGFG@?$AAe?$AAn?$AA?9?$AAC?$AAA?$AA?$AA@ 0000000180025e80     libucrt:lcidtoname_downlevel.obj
 0002:00004e90       ??_C@_1M@BNOEMJLF@?$AAe?$AAs?$AA?9?$AAG?$AAT?$AA?$AA@ 0000000180025e90     libucrt:lcidtoname_downlevel.obj
 0002:00004ea0       ??_C@_1M@EOGNKEK@?$AAf?$AAr?$AA?9?$AAC?$AAH?$AA?$AA@ 0000000180025ea0     libucrt:lcidtoname_downlevel.obj
 0002:00004eb0       ??_C@_1M@FLIDJFHL@?$AAh?$AAr?$AA?9?$AAB?$AAA?$AA?$AA@ 0000000180025eb0     libucrt:lcidtoname_downlevel.obj
 0002:00004ec0       ??_C@_1O@FMCELNAJ@?$AAs?$AAm?$AAj?$AA?9?$AAN?$AAO?$AA?$AA@ 0000000180025ec0     libucrt:lcidtoname_downlevel.obj
 0002:00004ed0       ??_C@_1M@JHGLJMGJ@?$AAa?$AAr?$AA?9?$AAD?$AAZ?$AA?$AA@ 0000000180025ed0     libucrt:lcidtoname_downlevel.obj
 0002:00004ee0       ??_C@_1M@JKKFDCNP@?$AAz?$AAh?$AA?9?$AAM?$AAO?$AA?$AA@ 0000000180025ee0     libucrt:lcidtoname_downlevel.obj
 0002:00004ef0       ??_C@_1M@GEEFALPE@?$AAd?$AAe?$AA?9?$AAL?$AAI?$AA?$AA@ 0000000180025ef0     libucrt:lcidtoname_downlevel.obj
 0002:00004f00       ??_C@_1M@IGEOFBG@?$AAe?$AAn?$AA?9?$AAN?$AAZ?$AA?$AA@ 0000000180025f00     libucrt:lcidtoname_downlevel.obj
 0002:00004f10       ??_C@_1M@KDBONEHP@?$AAe?$AAs?$AA?9?$AAC?$AAR?$AA?$AA@ 0000000180025f10     libucrt:lcidtoname_downlevel.obj
 0002:00004f20       ??_C@_1M@FHMDOHNN@?$AAf?$AAr?$AA?9?$AAL?$AAU?$AA?$AA@ 0000000180025f20     libucrt:lcidtoname_downlevel.obj
 0002:00004f30       ??_C@_1BG@NFKKMAFG@?$AAb?$AAs?$AA?9?$AAB?$AAA?$AA?9?$AAL?$AAa?$AAt?$AAn?$AA?$AA@ 0000000180025f30     libucrt:lcidtoname_downlevel.obj
 0002:00004f48       ??_C@_1O@IMNBEMCI@?$AAs?$AAm?$AAj?$AA?9?$AAS?$AAE?$AA?$AA@ 0000000180025f48     libucrt:lcidtoname_downlevel.obj
 0002:00004f58       ??_C@_1M@DHHMBNDP@?$AAa?$AAr?$AA?9?$AAM?$AAA?$AA?$AA@ 0000000180025f58     libucrt:lcidtoname_downlevel.obj
 0002:00004f68       ??_C@_1M@BNBLJCGH@?$AAe?$AAn?$AA?9?$AAI?$AAE?$AA?$AA@ 0000000180025f68     libucrt:lcidtoname_downlevel.obj
 0002:00004f78       ??_C@_1M@GEPAFMDL@?$AAe?$AAs?$AA?9?$AAP?$AAA?$AA?$AA@ 0000000180025f78     libucrt:lcidtoname_downlevel.obj
 0002:00004f88       ??_C@_1M@OJONDMDL@?$AAf?$AAr?$AA?9?$AAM?$AAC?$AA?$AA@ 0000000180025f88     libucrt:lcidtoname_downlevel.obj
 0002:00004f98       ??_C@_1BG@OBCNFJB@?$AAs?$AAr?$AA?9?$AAB?$AAA?$AA?9?$AAL?$AAa?$AAt?$AAn?$AA?$AA@ 0000000180025f98     libucrt:lcidtoname_downlevel.obj
 0002:00004fb0       ??_C@_1O@KEMEEGPO@?$AAs?$AAm?$AAa?$AA?9?$AAN?$AAO?$AA?$AA@ 0000000180025fb0     libucrt:lcidtoname_downlevel.obj
 0002:00004fc0       ??_C@_1M@ELMGFODK@?$AAa?$AAr?$AA?9?$AAT?$AAN?$AA?$AA@ 0000000180025fc0     libucrt:lcidtoname_downlevel.obj
 0002:00004fd0       ??_C@_1M@BHDLHFAF@?$AAe?$AAn?$AA?9?$AAZ?$AAA?$AA?$AA@ 0000000180025fd0     libucrt:lcidtoname_downlevel.obj
 0002:00004fe0       ??_C@_1M@BMGIGLIF@?$AAe?$AAs?$AA?9?$AAD?$AAO?$AA?$AA@ 0000000180025fe0     libucrt:lcidtoname_downlevel.obj
 0002:00004ff0       ??_C@_1BG@CMBHIPBE@?$AAs?$AAr?$AA?9?$AAB?$AAA?$AA?9?$AAC?$AAy?$AAr?$AAl?$AA?$AA@ 0000000180025ff0     libucrt:lcidtoname_downlevel.obj
 0002:00005008       ??_C@_1O@HEDBLHNP@?$AAs?$AAm?$AAa?$AA?9?$AAS?$AAE?$AA?$AA@ 0000000180026008     libucrt:lcidtoname_downlevel.obj
 0002:00005018       ??_C@_1M@DAGCADIM@?$AAa?$AAr?$AA?9?$AAO?$AAM?$AA?$AA@ 0000000180026018     libucrt:lcidtoname_downlevel.obj
 0002:00005028       ??_C@_1M@FODLMICG@?$AAe?$AAn?$AA?9?$AAJ?$AAM?$AA?$AA@ 0000000180026028     libucrt:lcidtoname_downlevel.obj
 0002:00005038       ??_C@_1M@DNMLCIHB@?$AAe?$AAs?$AA?9?$AAV?$AAE?$AA?$AA@ 0000000180026038     libucrt:lcidtoname_downlevel.obj
 0002:00005048       ??_C@_1O@EOKHMKJK@?$AAs?$AAm?$AAs?$AA?9?$AAF?$AAI?$AA?$AA@ 0000000180026048     libucrt:lcidtoname_downlevel.obj
 0002:00005058       ??_C@_1M@CAFJMKOF@?$AAa?$AAr?$AA?9?$AAY?$AAE?$AA?$AA@ 0000000180026058     libucrt:lcidtoname_downlevel.obj
 0002:00005068       ??_C@_1M@CBFHIJLI@?$AAe?$AAn?$AA?9?$AAC?$AAB?$AA?$AA@ 0000000180026068     libucrt:lcidtoname_downlevel.obj
 0002:00005078       ??_C@_1M@BGNFLDN@?$AAe?$AAs?$AA?9?$AAC?$AAO?$AA?$AA@ 0000000180026078     libucrt:lcidtoname_downlevel.obj
 0002:00005088       ??_C@_1O@JMPHMAMC@?$AAs?$AAm?$AAn?$AA?9?$AAF?$AAI?$AA?$AA@ 0000000180026088     libucrt:lcidtoname_downlevel.obj
 0002:00005098       ??_C@_1M@JLANABKE@?$AAa?$AAr?$AA?9?$AAS?$AAY?$AA?$AA@ 0000000180026098     libucrt:lcidtoname_downlevel.obj
 0002:000050a8       ??_C@_1M@HPKGCFGN@?$AAe?$AAn?$AA?9?$AAB?$AAZ?$AA?$AA@ 00000001800260a8     libucrt:lcidtoname_downlevel.obj
 0002:000050b8       ??_C@_1M@OLJCMLGM@?$AAe?$AAs?$AA?9?$AAP?$AAE?$AA?$AA@ 00000001800260b8     libucrt:lcidtoname_downlevel.obj
 0002:000050c8       ??_C@_1M@MKKGFKLE@?$AAa?$AAr?$AA?9?$AAJ?$AAO?$AA?$AA@ 00000001800260c8     libucrt:lcidtoname_downlevel.obj
 0002:000050d8       ??_C@_1M@EKPGLDNI@?$AAe?$AAn?$AA?9?$AAT?$AAT?$AA?$AA@ 00000001800260d8     libucrt:lcidtoname_downlevel.obj
 0002:000050e8       ??_C@_1M@OONGHFHE@?$AAe?$AAs?$AA?9?$AAA?$AAR?$AA?$AA@ 00000001800260e8     libucrt:lcidtoname_downlevel.obj
 0002:000050f8       ??_C@_1M@OOJFGBHE@?$AAa?$AAr?$AA?9?$AAL?$AAB?$AA?$AA@ 00000001800260f8     libucrt:lcidtoname_downlevel.obj
 0002:00005108       ??_C@_1M@GCEJHNEG@?$AAe?$AAn?$AA?9?$AAZ?$AAW?$AA?$AA@ 0000000180026108     libucrt:lcidtoname_downlevel.obj
 0002:00005118       ??_C@_1M@JNOCAHJI@?$AAe?$AAs?$AA?9?$AAE?$AAC?$AA?$AA@ 0000000180026118     libucrt:lcidtoname_downlevel.obj
 0002:00005128       ??_C@_1M@JEFHPGGB@?$AAa?$AAr?$AA?9?$AAK?$AAW?$AA?$AA@ 0000000180026128     libucrt:lcidtoname_downlevel.obj
 0002:00005138       ??_C@_1M@MLKIBJOJ@?$AAe?$AAn?$AA?9?$AAP?$AAH?$AA?$AA@ 0000000180026138     libucrt:lcidtoname_downlevel.obj
 0002:00005148       ??_C@_1M@BDNIPEND@?$AAe?$AAs?$AA?9?$AAC?$AAL?$AA?$AA@ 0000000180026148     libucrt:lcidtoname_downlevel.obj
 0002:00005158       ??_C@_1M@MPNMEKBD@?$AAa?$AAr?$AA?9?$AAA?$AAE?$AA?$AA@ 0000000180026158     libucrt:lcidtoname_downlevel.obj
 0002:00005168       ??_C@_1M@KBJALCPI@?$AAe?$AAs?$AA?9?$AAU?$AAY?$AA?$AA@ 0000000180026168     libucrt:lcidtoname_downlevel.obj
 0002:00005178       ??_C@_1M@LLCCOAGA@?$AAa?$AAr?$AA?9?$AAB?$AAH?$AA?$AA@ 0000000180026178     libucrt:lcidtoname_downlevel.obj
 0002:00005188       ??_C@_1M@PBFNCDEL@?$AAe?$AAs?$AA?9?$AAP?$AAY?$AA?$AA@ 0000000180026188     libucrt:lcidtoname_downlevel.obj
 0002:00005198       ??_C@_1M@EDGINPNP@?$AAa?$AAr?$AA?9?$AAQ?$AAA?$AA?$AA@ 0000000180026198     libucrt:lcidtoname_downlevel.obj
 0002:000051a8       ??_C@_1M@MKDBIIJI@?$AAe?$AAs?$AA?9?$AAB?$AAO?$AA?$AA@ 00000001800261a8     libucrt:lcidtoname_downlevel.obj
 0002:000051b8       ??_C@_1M@CPKKEBLD@?$AAe?$AAs?$AA?9?$AAS?$AAV?$AA?$AA@ 00000001800261b8     libucrt:lcidtoname_downlevel.obj
 0002:000051c8       ??_C@_1M@NDBGMMJL@?$AAe?$AAs?$AA?9?$AAH?$AAN?$AA?$AA@ 00000001800261c8     libucrt:lcidtoname_downlevel.obj
 0002:000051d8       ??_C@_1M@JIJIBHDP@?$AAe?$AAs?$AA?9?$AAN?$AAI?$AA?$AA@ 00000001800261d8     libucrt:lcidtoname_downlevel.obj
 0002:000051e8       ??_C@_1M@CGFMKEEK@?$AAe?$AAs?$AA?9?$AAP?$AAR?$AA?$AA@ 00000001800261e8     libucrt:lcidtoname_downlevel.obj
 0002:000051f8       ??_C@_1O@ICJHKIIK@?$AAz?$AAh?$AA?9?$AAC?$AAH?$AAT?$AA?$AA@ 00000001800261f8     libucrt:lcidtoname_downlevel.obj
 0002:00005208       ??_C@_15CLNEJCE@?$AAs?$AAr?$AA?$AA@ 0000000180026208     libucrt:lcidtoname_downlevel.obj
 0002:00006050       ??_C@_1M@KAHEKEIG@?$AAa?$AAf?$AA?9?$AAz?$AAa?$AA?$AA@ 0000000180027050     libucrt:lcidtoname_downlevel.obj
 0002:00006060       ??_C@_1M@GIECOABL@?$AAa?$AAr?$AA?9?$AAa?$AAe?$AA?$AA@ 0000000180027060     libucrt:lcidtoname_downlevel.obj
 0002:00006070       ??_C@_1M@BMLMEKGI@?$AAa?$AAr?$AA?9?$AAb?$AAh?$AA?$AA@ 0000000180027070     libucrt:lcidtoname_downlevel.obj
 0002:00006080       ??_C@_1M@DAPFDGGB@?$AAa?$AAr?$AA?9?$AAd?$AAz?$AA?$AA@ 0000000180027080     libucrt:lcidtoname_downlevel.obj
 0002:00006090       ??_C@_1M@FJNKGKIG@?$AAa?$AAr?$AA?9?$AAe?$AAg?$AA?$AA@ 0000000180027090     libucrt:lcidtoname_downlevel.obj
 0002:000060a0       ??_C@_1M@FLGKKCLO@?$AAa?$AAr?$AA?9?$AAi?$AAq?$AA?$AA@ 00000001800270a0     libucrt:lcidtoname_downlevel.obj
 0002:000060b0       ??_C@_1M@GNDIPALM@?$AAa?$AAr?$AA?9?$AAj?$AAo?$AA?$AA@ 00000001800270b0     libucrt:lcidtoname_downlevel.obj
 0002:000060c0       ??_C@_1M@DDMJFMGJ@?$AAa?$AAr?$AA?9?$AAk?$AAw?$AA?$AA@ 00000001800270c0     libucrt:lcidtoname_downlevel.obj
 0002:000060d0       ??_C@_1M@EJALMLHM@?$AAa?$AAr?$AA?9?$AAl?$AAb?$AA?$AA@ 00000001800270d0     libucrt:lcidtoname_downlevel.obj
 0002:000060e0       ??_C@_1M@MOBDBLOC@?$AAa?$AAr?$AA?9?$AAl?$AAy?$AA?$AA@ 00000001800270e0     libucrt:lcidtoname_downlevel.obj
 0002:000060f0       ??_C@_1M@JAOCLHDH@?$AAa?$AAr?$AA?9?$AAm?$AAa?$AA?$AA@ 00000001800270f0     libucrt:lcidtoname_downlevel.obj
 0002:00006100       ??_C@_1M@JHPMKJIE@?$AAa?$AAr?$AA?9?$AAo?$AAm?$AA?$AA@ 0000000180027100     libucrt:lcidtoname_downlevel.obj
 0002:00006110       ??_C@_1M@OEPGHFNH@?$AAa?$AAr?$AA?9?$AAq?$AAa?$AA?$AA@ 0000000180027110     libucrt:lcidtoname_downlevel.obj
 0002:00006120       ??_C@_1M@KJDONENM@?$AAa?$AAr?$AA?9?$AAs?$AAa?$AA?$AA@ 0000000180027120     libucrt:lcidtoname_downlevel.obj
 0002:00006130       ??_C@_1M@DMJDKLKM@?$AAa?$AAr?$AA?9?$AAs?$AAy?$AA?$AA@ 0000000180027130     libucrt:lcidtoname_downlevel.obj
 0002:00006140       ??_C@_1M@OMFIPEDC@?$AAa?$AAr?$AA?9?$AAt?$AAn?$AA?$AA@ 0000000180027140     libucrt:lcidtoname_downlevel.obj
 0002:00006150       ??_C@_1M@IHMHGAON@?$AAa?$AAr?$AA?9?$AAy?$AAe?$AA?$AA@ 0000000180027150     libucrt:lcidtoname_downlevel.obj
 0002:00006160       ??_C@_1BG@KDCPGJGB@?$AAa?$AAz?$AA?9?$AAa?$AAz?$AA?9?$AAc?$AAy?$AAr?$AAl?$AA?$AA@ 0000000180027160     libucrt:lcidtoname_downlevel.obj
 0002:00006178       ??_C@_1BG@IBCKDDOE@?$AAa?$AAz?$AA?9?$AAa?$AAz?$AA?9?$AAl?$AAa?$AAt?$AAn?$AA?$AA@ 0000000180027178     libucrt:lcidtoname_downlevel.obj
 0002:00006190       ??_C@_1M@EGPFDCPD@?$AAb?$AAe?$AA?9?$AAb?$AAy?$AA?$AA@ 0000000180027190     libucrt:lcidtoname_downlevel.obj
 0002:000061a0       ??_C@_1M@PCMGMCGC@?$AAb?$AAg?$AA?9?$AAb?$AAg?$AA?$AA@ 00000001800271a0     libucrt:lcidtoname_downlevel.obj
 0002:000061b0       ??_C@_1M@BJBMFGOB@?$AAb?$AAn?$AA?9?$AAi?$AAn?$AA?$AA@ 00000001800271b0     libucrt:lcidtoname_downlevel.obj
 0002:000061c0       ??_C@_1BG@EAKMMACD@?$AAb?$AAs?$AA?9?$AAb?$AAa?$AA?9?$AAl?$AAa?$AAt?$AAn?$AA?$AA@ 00000001800271c0     libucrt:lcidtoname_downlevel.obj
 0002:000061d8       ??_C@_1M@KGADAODK@?$AAc?$AAa?$AA?9?$AAe?$AAs?$AA?$AA@ 00000001800271d8     libucrt:lcidtoname_downlevel.obj
 0002:000061e8       ??_C@_1M@COAJPDHI@?$AAc?$AAs?$AA?9?$AAc?$AAz?$AA?$AA@ 00000001800271e8     libucrt:lcidtoname_downlevel.obj
 0002:000061f8       ??_C@_1M@DHBHFONH@?$AAc?$AAy?$AA?9?$AAg?$AAb?$AA?$AA@ 00000001800271f8     libucrt:lcidtoname_downlevel.obj
 0002:00006208       ??_C@_1M@IMGKELGA@?$AAd?$AAa?$AA?9?$AAd?$AAk?$AA?$AA@ 0000000180027208     libucrt:lcidtoname_downlevel.obj
 0002:00006218       ??_C@_1M@NNDGDNGA@?$AAd?$AAe?$AA?9?$AAa?$AAt?$AA?$AA@ 0000000180027218     libucrt:lcidtoname_downlevel.obj
 0002:00006228       ??_C@_1M@IKDBHEEM@?$AAd?$AAe?$AA?9?$AAc?$AAh?$AA?$AA@ 0000000180027228     libucrt:lcidtoname_downlevel.obj
 0002:00006238       ??_C@_1M@GFFOJMCJ@?$AAd?$AAe?$AA?9?$AAd?$AAe?$AA?$AA@ 0000000180027238     libucrt:lcidtoname_downlevel.obj
 0002:00006248       ??_C@_1M@MDNLKBPM@?$AAd?$AAe?$AA?9?$AAl?$AAi?$AA?$AA@ 0000000180027248     libucrt:lcidtoname_downlevel.obj
 0002:00006258       ??_C@_1M@NJBEEJNL@?$AAd?$AAe?$AA?9?$AAl?$AAu?$AA?$AA@ 0000000180027258     libucrt:lcidtoname_downlevel.obj
 0002:00006268       ??_C@_1O@GNNELBAP@?$AAd?$AAi?$AAv?$AA?9?$AAm?$AAv?$AA?$AA@ 0000000180027268     libucrt:lcidtoname_downlevel.obj
 0002:00006278       ??_C@_1M@EJLEOGAE@?$AAe?$AAl?$AA?9?$AAg?$AAr?$AA?$AA@ 0000000180027278     libucrt:lcidtoname_downlevel.obj
 0002:00006288       ??_C@_1M@GMPONJN@?$AAe?$AAn?$AA?9?$AAa?$AAu?$AA?$AA@ 0000000180027288     libucrt:lcidtoname_downlevel.obj
 0002:00006298       ??_C@_1M@NIDIIPGF@?$AAe?$AAn?$AA?9?$AAb?$AAz?$AA?$AA@ 0000000180027298     libucrt:lcidtoname_downlevel.obj
 0002:000062a8       ??_C@_1M@JEHMIMFO@?$AAe?$AAn?$AA?9?$AAc?$AAa?$AA?$AA@ 00000001800272a8     libucrt:lcidtoname_downlevel.obj
 0002:000062b8       ??_C@_1M@IGMJCDLA@?$AAe?$AAn?$AA?9?$AAc?$AAb?$AA?$AA@ 00000001800272b8     libucrt:lcidtoname_downlevel.obj
 0002:000062c8       ??_C@_1M@BNFIGBKG@?$AAe?$AAn?$AA?9?$AAg?$AAb?$AA?$AA@ 00000001800272c8     libucrt:lcidtoname_downlevel.obj
 0002:000062d8       ??_C@_1M@LKIFDIGP@?$AAe?$AAn?$AA?9?$AAi?$AAe?$AA?$AA@ 00000001800272d8     libucrt:lcidtoname_downlevel.obj
 0002:000062e8       ??_C@_1M@PJKFGCCO@?$AAe?$AAn?$AA?9?$AAj?$AAm?$AA?$AA@ 00000001800272e8     libucrt:lcidtoname_downlevel.obj
 0002:000062f8       ??_C@_1M@KPPKEPBO@?$AAe?$AAn?$AA?9?$AAn?$AAz?$AA?$AA@ 00000001800272f8     libucrt:lcidtoname_downlevel.obj
 0002:00006308       ??_C@_1M@GMDGLDOB@?$AAe?$AAn?$AA?9?$AAp?$AAh?$AA?$AA@ 0000000180027308     libucrt:lcidtoname_downlevel.obj
 0002:00006318       ??_C@_1M@ONGIBJNA@?$AAe?$AAn?$AA?9?$AAt?$AAt?$AA?$AA@ 0000000180027318     libucrt:lcidtoname_downlevel.obj
 0002:00006328       ??_C@_1M@LLODPCMM@?$AAe?$AAn?$AA?9?$AAu?$AAs?$AA?$AA@ 0000000180027328     libucrt:lcidtoname_downlevel.obj
 0002:00006338       ??_C@_1M@LAKFNPAN@?$AAe?$AAn?$AA?9?$AAz?$AAa?$AA?$AA@ 0000000180027338     libucrt:lcidtoname_downlevel.obj
 0002:00006348       ??_C@_1M@MFNHNHEO@?$AAe?$AAn?$AA?9?$AAz?$AAw?$AA?$AA@ 0000000180027348     libucrt:lcidtoname_downlevel.obj
 0002:00006358       ??_C@_1M@EJEINPHM@?$AAe?$AAs?$AA?9?$AAa?$AAr?$AA?$AA@ 0000000180027358     libucrt:lcidtoname_downlevel.obj
 0002:00006368       ??_C@_1M@GNKPCCJA@?$AAe?$AAs?$AA?9?$AAb?$AAo?$AA?$AA@ 0000000180027368     libucrt:lcidtoname_downlevel.obj
 0002:00006378       ??_C@_1M@LEEGFONL@?$AAe?$AAs?$AA?9?$AAc?$AAl?$AA?$AA@ 0000000180027378     libucrt:lcidtoname_downlevel.obj
 0002:00006388       ??_C@_1M@KGPDPBDF@?$AAe?$AAs?$AA?9?$AAc?$AAo?$AA?$AA@ 0000000180027388     libucrt:lcidtoname_downlevel.obj
 0002:00006398       ??_C@_1M@EIAHOHH@?$AAe?$AAs?$AA?9?$AAc?$AAr?$AA?$AA@ 0000000180027398     libucrt:lcidtoname_downlevel.obj
 0002:000063a8       ??_C@_1M@LLPGMBIN@?$AAe?$AAs?$AA?9?$AAd?$AAo?$AA?$AA@ 00000001800273a8     libucrt:lcidtoname_downlevel.obj
 0002:000063b8       ??_C@_1M@DKHMKNJA@?$AAe?$AAs?$AA?9?$AAe?$AAc?$AA?$AA@ 00000001800273b8     libucrt:lcidtoname_downlevel.obj
 0002:000063c8       ??_C@_1M@GKGFPKAP@?$AAe?$AAs?$AA?9?$AAe?$AAs?$AA?$AA@ 00000001800273c8     libucrt:lcidtoname_downlevel.obj
 0002:000063d8       ??_C@_1M@LKHKGDLN@?$AAe?$AAs?$AA?9?$AAg?$AAt?$AA?$AA@ 00000001800273d8     libucrt:lcidtoname_downlevel.obj
 0002:000063e8       ??_C@_1M@HEIIGGJD@?$AAe?$AAs?$AA?9?$AAh?$AAn?$AA?$AA@ 00000001800273e8     libucrt:lcidtoname_downlevel.obj
 0002:000063f8       ??_C@_1M@FBDHPPGD@?$AAe?$AAs?$AA?9?$AAm?$AAx?$AA?$AA@ 00000001800273f8     libucrt:lcidtoname_downlevel.obj
 0002:00006408       ??_C@_1M@DPAGLNDH@?$AAe?$AAs?$AA?9?$AAn?$AAi?$AA?$AA@ 0000000180027408     libucrt:lcidtoname_downlevel.obj
 0002:00006418       ??_C@_1M@MDGOPGDD@?$AAe?$AAs?$AA?9?$AAp?$AAa?$AA?$AA@ 0000000180027418     libucrt:lcidtoname_downlevel.obj
 0002:00006428       ??_C@_1M@EMAMGBGE@?$AAe?$AAs?$AA?9?$AAp?$AAe?$AA?$AA@ 0000000180027428     libucrt:lcidtoname_downlevel.obj
 0002:00006438       ??_C@_1M@IBMCAOEC@?$AAe?$AAs?$AA?9?$AAp?$AAr?$AA?$AA@ 0000000180027438     libucrt:lcidtoname_downlevel.obj
 0002:00006448       ??_C@_1M@FGMDIJED@?$AAe?$AAs?$AA?9?$AAp?$AAy?$AA?$AA@ 0000000180027448     libucrt:lcidtoname_downlevel.obj
 0002:00006458       ??_C@_1M@IIDEOLLL@?$AAe?$AAs?$AA?9?$AAs?$AAv?$AA?$AA@ 0000000180027458     libucrt:lcidtoname_downlevel.obj
 0002:00006468       ??_C@_1M@GAOBIPA@?$AAe?$AAs?$AA?9?$AAu?$AAy?$AA?$AA@ 0000000180027468     libucrt:lcidtoname_downlevel.obj
 0002:00006478       ??_C@_1M@JKFFICHJ@?$AAe?$AAs?$AA?9?$AAv?$AAe?$AA?$AA@ 0000000180027478     libucrt:lcidtoname_downlevel.obj
 0002:00006488       ??_C@_1M@PNMLOJDF@?$AAe?$AAt?$AA?9?$AAe?$AAe?$AA?$AA@ 0000000180027488     libucrt:lcidtoname_downlevel.obj
 0002:00006498       ??_C@_1M@GHHLIKEI@?$AAe?$AAu?$AA?9?$AAe?$AAs?$AA?$AA@ 0000000180027498     libucrt:lcidtoname_downlevel.obj
 0002:000064a8       ??_C@_1M@PBNONODE@?$AAf?$AAa?$AA?9?$AAi?$AAr?$AA?$AA@ 00000001800274a8     libucrt:lcidtoname_downlevel.obj
 0002:000064b8       ??_C@_1M@JEEHPMIL@?$AAf?$AAi?$AA?9?$AAf?$AAi?$AA?$AA@ 00000001800274b8     libucrt:lcidtoname_downlevel.obj
 0002:000064c8       ??_C@_1M@LMDCNDBA@?$AAf?$AAo?$AA?9?$AAf?$AAo?$AA?$AA@ 00000001800274c8     libucrt:lcidtoname_downlevel.obj
 0002:000064d8       ??_C@_1M@JKEOHLDK@?$AAf?$AAr?$AA?9?$AAb?$AAe?$AA?$AA@ 00000001800274d8     libucrt:lcidtoname_downlevel.obj
 0002:000064e8       ??_C@_1M@NOHADPMI@?$AAf?$AAr?$AA?9?$AAc?$AAa?$AA?$AA@ 00000001800274e8     libucrt:lcidtoname_downlevel.obj
 0002:000064f8       ??_C@_1M@KDHIHAEC@?$AAf?$AAr?$AA?9?$AAc?$AAh?$AA?$AA@ 00000001800274f8     libucrt:lcidtoname_downlevel.obj
 0002:00006508       ??_C@_1M@MMBBFGAK@?$AAf?$AAr?$AA?9?$AAf?$AAr?$AA?$AA@ 0000000180027508     libucrt:lcidtoname_downlevel.obj
 0002:00006518       ??_C@_1M@PAFNENNF@?$AAf?$AAr?$AA?9?$AAl?$AAu?$AA?$AA@ 0000000180027518     libucrt:lcidtoname_downlevel.obj
 0002:00006528       ??_C@_1M@EOHDJGDD@?$AAf?$AAr?$AA?9?$AAm?$AAc?$AA?$AA@ 0000000180027528     libucrt:lcidtoname_downlevel.obj
 0002:00006538       ??_C@_1M@FAPLLOPF@?$AAg?$AAl?$AA?9?$AAe?$AAs?$AA?$AA@ 0000000180027538     libucrt:lcidtoname_downlevel.obj
 0002:00006548       ??_C@_1M@FOPBFLOO@?$AAg?$AAu?$AA?9?$AAi?$AAn?$AA?$AA@ 0000000180027548     libucrt:lcidtoname_downlevel.obj
 0002:00006558       ??_C@_1M@KBMCINPM@?$AAh?$AAe?$AA?9?$AAi?$AAl?$AA?$AA@ 0000000180027558     libucrt:lcidtoname_downlevel.obj
 0002:00006568       ??_C@_1M@BBPHKFPJ@?$AAh?$AAi?$AA?9?$AAi?$AAn?$AA?$AA@ 0000000180027568     libucrt:lcidtoname_downlevel.obj
 0002:00006578       ??_C@_1M@PMBNDPHD@?$AAh?$AAr?$AA?9?$AAb?$AAa?$AA?$AA@ 0000000180027578     libucrt:lcidtoname_downlevel.obj
 0002:00006588       ??_C@_1M@BPCKOEGE@?$AAh?$AAr?$AA?9?$AAh?$AAr?$AA?$AA@ 0000000180027588     libucrt:lcidtoname_downlevel.obj
 0002:00006598       ??_C@_1M@GACBMHKE@?$AAh?$AAu?$AA?9?$AAh?$AAu?$AA?$AA@ 0000000180027598     libucrt:lcidtoname_downlevel.obj
 0002:000065a8       ??_C@_1M@MILPAJJC@?$AAh?$AAy?$AA?9?$AAa?$AAm?$AA?$AA@ 00000001800275a8     libucrt:lcidtoname_downlevel.obj
 0002:000065b8       ??_C@_1M@BABBICEC@?$AAi?$AAd?$AA?9?$AAi?$AAd?$AA?$AA@ 00000001800275b8     libucrt:lcidtoname_downlevel.obj
 0002:000065c8       ??_C@_1M@BIKNHHPF@?$AAi?$AAs?$AA?9?$AAi?$AAs?$AA?$AA@ 00000001800275c8     libucrt:lcidtoname_downlevel.obj
 0002:000065d8       ??_C@_1M@NMPCJPHE@?$AAi?$AAt?$AA?9?$AAc?$AAh?$AA?$AA@ 00000001800275d8     libucrt:lcidtoname_downlevel.obj
 0002:000065e8       ??_C@_1M@GHKGFEDF@?$AAi?$AAt?$AA?9?$AAi?$AAt?$AA?$AA@ 00000001800275e8     libucrt:lcidtoname_downlevel.obj
 0002:000065f8       ??_C@_1M@NIEJCJJA@?$AAj?$AAa?$AA?9?$AAj?$AAp?$AA?$AA@ 00000001800275f8     libucrt:lcidtoname_downlevel.obj
 0002:00006608       ??_C@_1M@JILFNBIM@?$AAk?$AAa?$AA?9?$AAg?$AAe?$AA?$AA@ 0000000180027608     libucrt:lcidtoname_downlevel.obj
 0002:00006618       ??_C@_1M@PACPMGPH@?$AAk?$AAk?$AA?9?$AAk?$AAz?$AA?$AA@ 0000000180027618     libucrt:lcidtoname_downlevel.obj
 0002:00006628       ??_C@_1M@IELFGMHA@?$AAk?$AAn?$AA?9?$AAi?$AAn?$AA?$AA@ 0000000180027628     libucrt:lcidtoname_downlevel.obj
 0002:00006638       ??_C@_1O@IBBJHCH@?$AAk?$AAo?$AAk?$AA?9?$AAi?$AAn?$AA?$AA@ 0000000180027638     libucrt:lcidtoname_downlevel.obj
 0002:00006648       ??_C@_1M@DMHAEOGC@?$AAk?$AAo?$AA?9?$AAk?$AAr?$AA?$AA@ 0000000180027648     libucrt:lcidtoname_downlevel.obj
 0002:00006658       ??_C@_1M@HBAHBIGA@?$AAk?$AAy?$AA?9?$AAk?$AAg?$AA?$AA@ 0000000180027658     libucrt:lcidtoname_downlevel.obj
 0002:00006668       ??_C@_1M@KPMILCJG@?$AAl?$AAt?$AA?9?$AAl?$AAt?$AA?$AA@ 0000000180027668     libucrt:lcidtoname_downlevel.obj
 0002:00006678       ??_C@_1M@BDEKKCA@?$AAl?$AAv?$AA?9?$AAl?$AAv?$AA?$AA@ 0000000180027678     libucrt:lcidtoname_downlevel.obj
 0002:00006688       ??_C@_1M@ELCKCCJJ@?$AAm?$AAi?$AA?9?$AAn?$AAz?$AA?$AA@ 0000000180027688     libucrt:lcidtoname_downlevel.obj
 0002:00006698       ??_C@_1M@CBOOLAPA@?$AAm?$AAk?$AA?9?$AAm?$AAk?$AA?$AA@ 0000000180027698     libucrt:lcidtoname_downlevel.obj
 0002:000066a8       ??_C@_1M@GPHNBJKN@?$AAm?$AAl?$AA?9?$AAi?$AAn?$AA?$AA@ 00000001800276a8     libucrt:lcidtoname_downlevel.obj
 0002:000066b8       ??_C@_1M@PABJILIG@?$AAm?$AAn?$AA?9?$AAm?$AAn?$AA?$AA@ 00000001800276b8     libucrt:lcidtoname_downlevel.obj
 0002:000066c8       ??_C@_1M@FGBKKIPG@?$AAm?$AAr?$AA?9?$AAi?$AAn?$AA?$AA@ 00000001800276c8     libucrt:lcidtoname_downlevel.obj
 0002:000066d8       ??_C@_1M@NDBPDDAL@?$AAm?$AAs?$AA?9?$AAb?$AAn?$AA?$AA@ 00000001800276d8     libucrt:lcidtoname_downlevel.obj
 0002:000066e8       ??_C@_1M@OPIHOOPI@?$AAm?$AAs?$AA?9?$AAm?$AAy?$AA?$AA@ 00000001800276e8     libucrt:lcidtoname_downlevel.obj
 0002:000066f8       ??_C@_1M@PPDBCNFM@?$AAm?$AAt?$AA?9?$AAm?$AAt?$AA?$AA@ 00000001800276f8     libucrt:lcidtoname_downlevel.obj
 0002:00006708       ??_C@_1M@KDJDKMDD@?$AAn?$AAb?$AA?9?$AAn?$AAo?$AA?$AA@ 0000000180027708     libucrt:lcidtoname_downlevel.obj
 0002:00006718       ??_C@_1M@KFCFLMJP@?$AAn?$AAl?$AA?9?$AAb?$AAe?$AA?$AA@ 0000000180027718     libucrt:lcidtoname_downlevel.obj
 0002:00006728       ??_C@_1M@KPOPDDGO@?$AAn?$AAl?$AA?9?$AAn?$AAl?$AA?$AA@ 0000000180027728     libucrt:lcidtoname_downlevel.obj
 0002:00006738       ??_C@_1M@LJKPEMLN@?$AAn?$AAn?$AA?9?$AAn?$AAo?$AA?$AA@ 0000000180027738     libucrt:lcidtoname_downlevel.obj
 0002:00006748       ??_C@_1M@BDGHHBFL@?$AAn?$AAs?$AA?9?$AAz?$AAa?$AA?$AA@ 0000000180027748     libucrt:lcidtoname_downlevel.obj
 0002:00006758       ??_C@_1M@IDEHOAP@?$AAp?$AAa?$AA?9?$AAi?$AAn?$AA?$AA@ 0000000180027758     libucrt:lcidtoname_downlevel.obj
 0002:00006768       ??_C@_1M@HDBKGOGH@?$AAp?$AAl?$AA?9?$AAp?$AAl?$AA?$AA@ 0000000180027768     libucrt:lcidtoname_downlevel.obj
 0002:00006778       ??_C@_1M@LJLLCMEH@?$AAp?$AAt?$AA?9?$AAb?$AAr?$AA?$AA@ 0000000180027778     libucrt:lcidtoname_downlevel.obj
 0002:00006788       ??_C@_1M@NCMONAAL@?$AAp?$AAt?$AA?9?$AAp?$AAt?$AA?$AA@ 0000000180027788     libucrt:lcidtoname_downlevel.obj
 0002:00006798       ??_C@_1O@EAKMAJDN@?$AAq?$AAu?$AAz?$AA?9?$AAb?$AAo?$AA?$AA@ 0000000180027798     libucrt:lcidtoname_downlevel.obj
 0002:000067a8       ??_C@_1O@BHHPIGDN@?$AAq?$AAu?$AAz?$AA?9?$AAe?$AAc?$AA?$AA@ 00000001800277a8     libucrt:lcidtoname_downlevel.obj
 0002:000067b8       ??_C@_1O@GBAPEKMJ@?$AAq?$AAu?$AAz?$AA?9?$AAp?$AAe?$AA?$AA@ 00000001800277b8     libucrt:lcidtoname_downlevel.obj
 0002:000067c8       ??_C@_1M@CLGLEFBO@?$AAr?$AAo?$AA?9?$AAr?$AAo?$AA?$AA@ 00000001800277c8     libucrt:lcidtoname_downlevel.obj
 0002:000067d8       ??_C@_1M@CEEDODME@?$AAr?$AAu?$AA?9?$AAr?$AAu?$AA?$AA@ 00000001800277d8     libucrt:lcidtoname_downlevel.obj
 0002:000067e8       ??_C@_1M@HPKKKMPP@?$AAs?$AAa?$AA?9?$AAi?$AAn?$AA?$AA@ 00000001800277e8     libucrt:lcidtoname_downlevel.obj
 0002:000067f8       ??_C@_1M@BKMAIGOJ@?$AAs?$AAe?$AA?9?$AAf?$AAi?$AA?$AA@ 00000001800277f8     libucrt:lcidtoname_downlevel.obj
 0002:00006808       ??_C@_1M@NDPIFLFI@?$AAs?$AAe?$AA?9?$AAn?$AAo?$AA?$AA@ 0000000180027808     libucrt:lcidtoname_downlevel.obj
 0002:00006818       ??_C@_1M@DANKKHJ@?$AAs?$AAe?$AA?9?$AAs?$AAe?$AA?$AA@ 0000000180027818     libucrt:lcidtoname_downlevel.obj
 0002:00006828       ??_C@_1M@PNBLONPJ@?$AAs?$AAk?$AA?9?$AAs?$AAk?$AA?$AA@ 0000000180027828     libucrt:lcidtoname_downlevel.obj
 0002:00006838       ??_C@_1M@LFMODOAL@?$AAs?$AAl?$AA?9?$AAs?$AAi?$AA?$AA@ 0000000180027838     libucrt:lcidtoname_downlevel.obj
 0002:00006848       ??_C@_1O@DFKOMPG@?$AAs?$AAm?$AAa?$AA?9?$AAn?$AAo?$AA?$AA@ 0000000180027848     libucrt:lcidtoname_downlevel.obj
 0002:00006858       ??_C@_1O@NDKPBNNH@?$AAs?$AAm?$AAa?$AA?9?$AAs?$AAe?$AA?$AA@ 0000000180027858     libucrt:lcidtoname_downlevel.obj
 0002:00006868       ??_C@_1O@PLLKBHAB@?$AAs?$AAm?$AAj?$AA?9?$AAn?$AAo?$AA?$AA@ 0000000180027868     libucrt:lcidtoname_downlevel.obj
 0002:00006878       ??_C@_1O@CLEPOGCA@?$AAs?$AAm?$AAj?$AA?9?$AAs?$AAe?$AA?$AA@ 0000000180027878     libucrt:lcidtoname_downlevel.obj
 0002:00006888       ??_C@_1O@DLGJGKMK@?$AAs?$AAm?$AAn?$AA?9?$AAf?$AAi?$AA?$AA@ 0000000180027888     libucrt:lcidtoname_downlevel.obj
 0002:00006898       ??_C@_1O@OJDJGAJC@?$AAs?$AAm?$AAs?$AA?9?$AAf?$AAi?$AA?$AA@ 0000000180027898     libucrt:lcidtoname_downlevel.obj
 0002:000068a8       ??_C@_1M@BOFOGHPB@?$AAs?$AAq?$AA?9?$AAa?$AAl?$AA?$AA@ 00000001800278a8     libucrt:lcidtoname_downlevel.obj
 0002:000068b8       ??_C@_1BG@LJBBIPGB@?$AAs?$AAr?$AA?9?$AAb?$AAa?$AA?9?$AAc?$AAy?$AAr?$AAl?$AA?$AA@ 00000001800278b8     libucrt:lcidtoname_downlevel.obj
 0002:000068d0       ??_C@_1BG@JLBENFOE@?$AAs?$AAr?$AA?9?$AAb?$AAa?$AA?9?$AAl?$AAa?$AAt?$AAn?$AA?$AA@ 00000001800278d0     libucrt:lcidtoname_downlevel.obj
 0002:000068e8       ??_C@_1BG@KODPNHE@?$AAs?$AAr?$AA?9?$AAs?$AAp?$AA?9?$AAc?$AAy?$AAr?$AAl?$AA?$AA@ 00000001800278e8     libucrt:lcidtoname_downlevel.obj
 0002:00006900       ??_C@_1BG@CIOGKHPB@?$AAs?$AAr?$AA?9?$AAs?$AAp?$AA?9?$AAl?$AAa?$AAt?$AAn?$AA?$AA@ 0000000180027900     libucrt:lcidtoname_downlevel.obj
 0002:00006918       ??_C@_1M@NGFJLMAC@?$AAs?$AAv?$AA?9?$AAf?$AAi?$AA?$AA@ 0000000180027918     libucrt:lcidtoname_downlevel.obj
 0002:00006928       ??_C@_1M@MPJEJAJC@?$AAs?$AAv?$AA?9?$AAs?$AAe?$AA?$AA@ 0000000180027928     libucrt:lcidtoname_downlevel.obj
 0002:00006938       ??_C@_1M@MPNDHLFK@?$AAs?$AAw?$AA?9?$AAk?$AAe?$AA?$AA@ 0000000180027938     libucrt:lcidtoname_downlevel.obj
 0002:00006948       ??_C@_1O@KOHBJJI@?$AAs?$AAy?$AAr?$AA?9?$AAs?$AAy?$AA?$AA@ 0000000180027948     libucrt:lcidtoname_downlevel.obj
 0002:00006958       ??_C@_1M@LDCEFHA@?$AAt?$AAa?$AA?9?$AAi?$AAn?$AA?$AA@ 0000000180027958     libucrt:lcidtoname_downlevel.obj
 0002:00006968       ??_C@_1M@CNJOFAK@?$AAt?$AAe?$AA?9?$AAi?$AAn?$AA?$AA@ 0000000180027968     libucrt:lcidtoname_downlevel.obj
 0002:00006978       ??_C@_1M@GNAECACD@?$AAt?$AAh?$AA?9?$AAt?$AAh?$AA?$AA@ 0000000180027978     libucrt:lcidtoname_downlevel.obj
 0002:00006988       ??_C@_1M@CHBIHOJO@?$AAt?$AAn?$AA?9?$AAz?$AAa?$AA?$AA@ 0000000180027988     libucrt:lcidtoname_downlevel.obj
 0002:00006998       ??_C@_1M@GCCMIGPJ@?$AAt?$AAr?$AA?9?$AAt?$AAr?$AA?$AA@ 0000000180027998     libucrt:lcidtoname_downlevel.obj
 0002:000069a8       ??_C@_1M@CELMCNBK@?$AAt?$AAt?$AA?9?$AAr?$AAu?$AA?$AA@ 00000001800279a8     libucrt:lcidtoname_downlevel.obj
 0002:000069b8       ??_C@_1M@KLMCELGA@?$AAu?$AAk?$AA?9?$AAu?$AAa?$AA?$AA@ 00000001800279b8     libucrt:lcidtoname_downlevel.obj
 0002:000069c8       ??_C@_1M@EPAJJAJF@?$AAu?$AAr?$AA?9?$AAp?$AAk?$AA?$AA@ 00000001800279c8     libucrt:lcidtoname_downlevel.obj
 0002:000069d8       ??_C@_1BG@GEGPMCDJ@?$AAu?$AAz?$AA?9?$AAu?$AAz?$AA?9?$AAc?$AAy?$AAr?$AAl?$AA?$AA@ 00000001800279d8     libucrt:lcidtoname_downlevel.obj
 0002:000069f0       ??_C@_1BG@EGGKJILM@?$AAu?$AAz?$AA?9?$AAu?$AAz?$AA?9?$AAl?$AAa?$AAt?$AAn?$AA?$AA@ 00000001800279f0     libucrt:lcidtoname_downlevel.obj
 0002:00006a08       ??_C@_1M@GFOCLFF@?$AAv?$AAi?$AA?9?$AAv?$AAn?$AA?$AA@ 0000000180027a08     libucrt:lcidtoname_downlevel.obj
 0002:00006a18       ??_C@_1M@CPAMEDFI@?$AAx?$AAh?$AA?9?$AAz?$AAa?$AA?$AA@ 0000000180027a18     libucrt:lcidtoname_downlevel.obj
 0002:00006a28       ??_C@_1O@EBKIFIGN@?$AAz?$AAh?$AA?9?$AAc?$AAh?$AAs?$AA?$AA@ 0000000180027a28     libucrt:lcidtoname_downlevel.obj
 0002:00006a38       ??_C@_1O@NMHPGANE@?$AAz?$AAh?$AA?9?$AAc?$AAh?$AAt?$AA?$AA@ 0000000180027a38     libucrt:lcidtoname_downlevel.obj
 0002:00006a48       ??_C@_1M@LPINJOMC@?$AAz?$AAh?$AA?9?$AAc?$AAn?$AA?$AA@ 0000000180027a48     libucrt:lcidtoname_downlevel.obj
 0002:00006a58       ??_C@_1M@OCJEJODD@?$AAz?$AAh?$AA?9?$AAh?$AAk?$AA?$AA@ 0000000180027a58     libucrt:lcidtoname_downlevel.obj
 0002:00006a68       ??_C@_1M@DNDLJINH@?$AAz?$AAh?$AA?9?$AAm?$AAo?$AA?$AA@ 0000000180027a68     libucrt:lcidtoname_downlevel.obj
 0002:00006a78       ??_C@_1M@MBFDNDND@?$AAz?$AAh?$AA?9?$AAs?$AAg?$AA?$AA@ 0000000180027a78     libucrt:lcidtoname_downlevel.obj
 0002:00006a88       ??_C@_1M@IMEPLEPE@?$AAz?$AAh?$AA?9?$AAt?$AAw?$AA?$AA@ 0000000180027a88     libucrt:lcidtoname_downlevel.obj
 0002:00006a98       ??_C@_1M@BBGHNHJP@?$AAz?$AAu?$AA?9?$AAz?$AAa?$AA?$AA@ 0000000180027a98     libucrt:lcidtoname_downlevel.obj
 0002:00006d00       __log10_256_lead           0000000180027d00     libucrt:log10_256_lead_tail_table.obj
 0002:00007510       __log10_256_tail           0000000180028510     libucrt:log10_256_lead_tail_table.obj
 0002:00007d20       __log_F_inv_qword          0000000180028d20     libucrt:log_f_inv_qword_table.obj
 0002:00008530       ??_C@_05HGHHAHAP@log10?$AA@ 0000000180029530     libucrt:log_special.obj
 0002:00008538       ??_C@_1BA@BALFACEM@?$AAC?$AAO?$AAN?$AAO?$AAU?$AAT?$AA$?$AA?$AA@ 0000000180029538     libucrt:initcon.obj
 0002:00008560       ??_C@_0CK@JCPCLECK@external?5memory?5allocation?5limit@ 0000000180029560     binding.obj
 0002:00008590       ??_C@_0BC@BDKFLDHL@unknown?5exception?$AA@ 0000000180029590     binding.obj
 0002:000085a8       ??_C@_1DG@OKCGPKIB@?$AAp?$AAe?$AAr?$AAs?$AAi?$AAs?$AAt?$AAe?$AAn?$AAt?$AA?$CI?$AA?$CJ?$AA?4?$AAI?$AAs?$AAN?$AAe?$AAa?$AAr?$AAD?$AAe?$AAa?$AAt?$AAh?$AA?$CI?$AA?$CJ?$AA?$AA@ 00000001800295a8     binding.obj
 0002:000085e0       ??_C@_1CO@EGNPJLKI@?$AAp?$AAe?$AAr?$AAs?$AAi?$AAs?$AAt?$AAe?$AAn?$AAt?$AA?$CI?$AA?$CJ?$AA?4?$AAI?$AAs?$AAE?$AAm?$AAp?$AAt?$AAy?$AA?$CI?$AA?$CJ?$AA?$AA@ 00000001800295e0     binding.obj
 0002:00008610       ??_C@_1DA@FBGAEOIO@?$AA?$CB?$AAp?$AAe?$AAr?$AAs?$AAi?$AAs?$AAt?$AAe?$AAn?$AAt?$AA?$CI?$AA?$CJ?$AA?4?$AAI?$AAs?$AAE?$AAm?$AAp?$AAt?$AAy?$AA?$CI?$AA?$CJ?$AA?$AA@ 0000000180029610     binding.obj
 0002:00008640       ??_C@_1CO@JCKLEFMA@?$AA?$CB?$AAp?$AAe?$AAr?$AAs?$AAi?$AAs?$AAt?$AAe?$AAn?$AAt?$AA?$CI?$AA?$CJ?$AA?4?$AAI?$AAs?$AAW?$AAe?$AAa?$AAk?$AA?$CI?$AA?$CJ?$AA?$AA@ 0000000180029640     binding.obj
 0002:00008670       ??_C@_1BE@GMLLOIPJ@?$AAr?$AAe?$AAf?$AAs?$AA_?$AA?5?$AA?$DO?$AA?5?$AA0?$AA?$AA@ 0000000180029670     binding.obj
 0002:00008688       ??_C@_1CC@GBFLAAPF@?$AAw?$AAr?$AAa?$AAp?$AA?9?$AA?$DO?$AAr?$AAe?$AAf?$AAs?$AA_?$AA?5?$AA?$DN?$AA?$DN?$AA?5?$AA0?$AA?$AA@ 0000000180029688     binding.obj
 0002:000086b0       ??_C@_1DI@ELDBKNAK@?$AAw?$AAr?$AAa?$AAp?$AA?9?$AA?$DO?$AAh?$AAa?$AAn?$AAd?$AAl?$AAe?$AA_?$AA?4?$AAI?$AAs?$AAN?$AAe?$AAa?$AAr?$AAD?$AAe?$AAa?$AAt?$AAh?$AA?$CI?$AA?$CJ?$AA?$AA@ 00000001800296b0     binding.obj
 0002:000086f0       ??_C@_1HO@HHBAPAE@?$AAC?$AA?3?$AA?2?$AAU?$AAs?$AAe?$AAr?$AAs?$AA?2?$AAi?$AAg?$AAn?$AAa?$AAc?$AAi?$AAo?$AA?2?$AAD?$AAe?$AAs?$AAk?$AAt?$AAo?$AAp?$AA?2?$AAN?$AAo?$AAd?$AAe?$AA?2?$AAu?$AAn@ 00000001800296f0     binding.obj
 0002:00008770       ??_C@_1GA@PFOOBIAG@?$AAl?$AAe?$AAn?$AAg?$AAt?$AAh?$AA?5?$AA?$DM?$AA?$DN?$AA?5?$AAi?$AAm?$AAp?$AA?3?$AA?3?$AAk?$AAM?$AAa?$AAx?$AAL?$AAe?$AAn?$AAg?$AAt?$AAh?$AA?5?$AA?$CG?$AA?$CG?$AA?5?$AA?$CC?$AAt?$AAo@ 0000000180029770     binding.obj
 0002:000087d0       ??_C@_1BO@OPFMAOCA@?$AAl?$AAe?$AAn?$AA?5?$AA?$DM?$AA?$DN?$AA?5?$AAI?$AAN?$AAT?$AA_?$AAM?$AAA?$AAX?$AA?$AA@ 00000001800297d0     binding.obj
 0002:000087f0       ??_C@_1BE@CKDJNAPC@?$AAs?$AAt?$AAr?$AA_?$AA?5?$AA?$CB?$AA?$DN?$AA?5?$AA0?$AA?$AA@ 00000001800297f0     binding.obj
 0002:00008810       ??_C@_1JG@GCNELLDN@?$AAc?$AA?3?$AA?2?$AAu?$AAs?$AAe?$AAr?$AAs?$AA?2?$AAi?$AAg?$AAn?$AAa?$AAc?$AAi?$AAo?$AA?2?$AAd?$AAe?$AAs?$AAk?$AAt?$AAo?$AAp?$AA?2?$AAn?$AAo?$AAd?$AAe?$AA?2?$AAu?$AAn@ 0000000180029810     binding.obj
 0002:000088b0       ??_C@_1EC@MGGLMBLC@?$AAo?$AAb?$AAj?$AAe?$AAc?$AAt?$AA?9?$AA?$DO?$AAI?$AAn?$AAt?$AAe?$AAr?$AAn?$AAa?$AAl?$AAF?$AAi?$AAe?$AAl?$AAd?$AAC?$AAo?$AAu?$AAn?$AAt?$AA?$CI?$AA?$CJ?$AA?5?$AA?$DO?$AA?5?$AA0@ 00000001800298b0     binding.obj
 0002:000088f4       ??_C@_05LBOHBHFK@close?$AA@ 00000001800298f4     binding.obj
 0002:000088fc       ??_C@_06DHKNKOBI@setOpt?$AA@ 00000001800298fc     binding.obj
 0002:00008904       ??_C@_06KEDMBGMF@getOpt?$AA@ 0000000180029904     binding.obj
 0002:00008910       ??_C@_07GDNEHDJK@Context?$AA@ 0000000180029910     binding.obj
 0002:00008918       ??_C@_1BM@HFMOFBHK@?$AA?4?$AA?4?$AA?2?$AAb?$AAi?$AAn?$AAd?$AAi?$AAn?$AAg?$AA?4?$AAc?$AAc?$AA?$AA@ 0000000180029918     binding.obj
 0002:00008938       ??_C@_1CO@CEHLMLBH@?$AAi?$AAn?$AAf?$AAo?$AA?4?$AAI?$AAs?$AAC?$AAo?$AAn?$AAs?$AAt?$AAr?$AAu?$AAc?$AAt?$AAC?$AAa?$AAl?$AAl?$AA?$CI?$AA?$CJ?$AA?$AA@ 0000000180029938     binding.obj
 0002:00008968       ??_C@_0BO@NJGCADOG@io_threads?5must?5be?5an?5integer?$AA@ 0000000180029968     binding.obj
 0002:00008988       ??_C@_0CF@JBJDPAEL@io_threads?5must?5be?5a?5positive?5nu@ 0000000180029988     binding.obj
 0002:000089b0       ??_C@_0CA@KLLIHHKP@Must?5pass?5an?5option?5and?5a?5value?$AA@ 00000001800299b0     binding.obj
 0002:000089d0       ??_C@_0BK@PNDCKLH@Arguments?5must?5be?5numbers?$AA@ 00000001800299d0     binding.obj
 0002:000089f0       ??_C@_0BE@EPFBPJF@Must?5pass?5an?5option?$AA@ 00000001800299f0     binding.obj
 0002:00008a08       ??_C@_0BK@HDBOANCL@Option?5must?5be?5an?5integer?$AA@ 0000000180029a08     binding.obj
 0002:00008a24       ??_C@_05HDBKIDE@state?$AA@ 0000000180029a24     binding.obj
 0002:00008a30       ??_C@_07JPJEMOCA@pending?$AA@ 0000000180029a30     binding.obj
 0002:00008a38       ??_C@_04NPNJNMMP@bind?$AA@ 0000000180029a38     binding.obj
 0002:00008a40       ??_C@_08IJDGAHFE@bindSync?$AA@ 0000000180029a40     binding.obj
 0002:00008a4c       ??_C@_06IDJGFAK@unbind?$AA@ 0000000180029a4c     binding.obj
 0002:00008a58       ??_C@_0L@EEODGIGE@unbindSync?$AA@ 0000000180029a58     binding.obj
 0002:00008a68       ??_C@_07KAIBNCHO@connect?$AA@ 0000000180029a68     binding.obj
 0002:00008a70       ??_C@_0L@DEFCDCGF@getsockopt?$AA@ 0000000180029a70     binding.obj
 0002:00008a80       ??_C@_0L@CKHNIFCM@setsockopt?$AA@ 0000000180029a80     binding.obj
 0002:00008a8c       ??_C@_04IFMDBHHF@recv?$AA@ 0000000180029a8c     binding.obj
 0002:00008a94       ??_C@_04MIIPNNEF@send?$AA@ 0000000180029a94     binding.obj
 0002:00008aa0       ??_C@_0L@KKPFIJOL@disconnect?$AA@ 0000000180029aa0     binding.obj
 0002:00008ab0       ??_C@_07LAMOHCEE@monitor?$AA@ 0000000180029ab0     binding.obj
 0002:00008ab8       ??_C@_09LCKHNBLB@unmonitor?$AA@ 0000000180029ab8     binding.obj
 0002:00008ac8       ??_C@_0P@FHNACHC@onMonitorEvent?$AA@ 0000000180029ac8     binding.obj
 0002:00008ad8       ??_C@_0P@GKKLAGCF@onMonitorError?$AA@ 0000000180029ad8     binding.obj
 0002:00008ae8       ??_C@_0O@OPBEEFLO@SocketBinding?$AA@ 0000000180029ae8     binding.obj
 0002:00008af8       ??_C@_07GKLCMFNN@onReady?$AA@ 0000000180029af8     binding.obj
 0002:00008b00       ??_C@_0CO@MLJFPKEH@Must?5pass?5a?5context?5and?5a?5type?5t@ 0000000180029b00     binding.obj
 0002:00008b30       ??_C@_0BI@LBDCBLGJ@Type?5must?5be?5an?5integer?$AA@ 0000000180029b30     binding.obj
 0002:00008b48       ??_C@_0CC@EMPONGKD@I?1O?5status?3?5socket?5not?5ready?5?$CB?$DN0@ 0000000180029b48     binding.obj
 0002:00008b70       ??_C@_0BL@DIEFHOOC@Pending?5must?5be?5an?5integer?$AA@ 0000000180029b70     binding.obj
 0002:00008b90       ??_C@_0BH@BODDDKNO@Value?5must?5be?5a?5buffer?$AA@ 0000000180029b90     binding.obj
 0002:00008ba8       ??_C@_0BB@EPDLOHJO@Socket?5is?5closed?$AA@ 0000000180029ba8     binding.obj
 0002:00008bc0       ??_C@_0P@NJHJLOAE@Socket?5is?5busy?$AA@ 0000000180029bc0     binding.obj
 0002:00008bd0       ??_C@_0BK@OAIBHLHK@Address?5must?5be?5a?5string?$CB?$AA@ 0000000180029bd0     binding.obj
 0002:00008bf0       ??_C@_0CF@GOJGDILH@Provided?5callback?5must?5be?5a?5func@ 0000000180029bf0     binding.obj
 0002:00008c18       ??_C@_0CC@EBPIEALK@Option?5must?5be?5a?5positive?5intege@ 0000000180029c18     binding.obj
 0002:00008c40       ??_C@_0BP@DNIOKHDE@numOfEvents?5must?5be?5an?5integer?$AA@ 0000000180029c40     binding.obj
 0002:00008c60       ??_C@_0CI@NBNBNFFN@numOfEvents?5should?5be?5no?5less?5th@ 0000000180029c60     binding.obj
 0002:00008c88       ??_C@_0BG@LEKNGKGP@inproc?3?1?1monitor?4req?4?$AA@ 0000000180029c88     binding.obj
 0002:00008ca0       ??_C@_04HGGBINEM@?$CFs?$CFd?$AA@ 0000000180029ca0     binding.obj
 0002:00008ca8       ??_C@_0BO@GEHOPANO@Argument?5should?5be?5an?5integer?$AA@ 0000000180029ca8     binding.obj
 0002:00008cc8       ??_C@_0CH@GBBCCPHO@Only?5one?5argument?5at?5most?5was?5ex@ 0000000180029cc8     binding.obj
 0002:00008cf0       ??_C@_0CI@MANKICHP@Must?5pass?5a?5Buffer?5and?5optionall@ 0000000180029cf0     binding.obj
 0002:00008d18       ??_C@_0CC@HOFOCFLK@First?5argument?5should?5be?5a?5Buffe@ 0000000180029d18     binding.obj
 0002:00008d40       ??_C@_0CF@DKEPFJJA@Second?5argument?5should?5be?5an?5int@ 0000000180029d40     binding.obj
 0002:00008d68       ??_C@_08FOJKHHJA@?$CFd?4?$CFd?4?$CFd?$AA@ 0000000180029d68     binding.obj
 0002:00008d80       ??_C@_0FC@MGHHALK@zmq_curve_keypair?5operation?5fail@ 0000000180029d80     binding.obj
 0002:00008dd4       ??_C@_06EOMAMIIF@public?$AA@ 0000000180029dd4     binding.obj
 0002:00008ddc       ??_C@_06PNMBKEGN@secret?$AA@ 0000000180029ddc     binding.obj
 0002:00008de8       ??_C@_0BD@ECNIPHOE@ZMQ_CAN_DISCONNECT?$AA@ 0000000180029de8     binding.obj
 0002:00008e00       ??_C@_0P@GHAPHIMJ@ZMQ_CAN_UNBIND?$AA@ 0000000180029e00     binding.obj
 0002:00008e10       ??_C@_0BA@CHEIPDPB@ZMQ_CAN_MONITOR?$AA@ 0000000180029e10     binding.obj
 0002:00008e20       ??_C@_0BA@IALGAHEE@ZMQ_CAN_SET_CTX?$AA@ 0000000180029e20     binding.obj
 0002:00008e30       ??_C@_07GFEDJGBH@ZMQ_PUB?$AA@ 0000000180029e30     binding.obj
 0002:00008e38       ??_C@_07HHPGDJPJ@ZMQ_SUB?$AA@ 0000000180029e38     binding.obj
 0002:00008e40       ??_C@_08FPDOOFNA@ZMQ_XPUB?$AA@ 0000000180029e40     binding.obj
 0002:00008e50       ??_C@_08ENILEKDO@ZMQ_XSUB?$AA@ 0000000180029e50     binding.obj
 0002:00008e60       ??_C@_07LCIDLMHO@ZMQ_REQ?$AA@ 0000000180029e60     binding.obj
 0002:00008e68       ??_C@_08IIPOMPLJ@ZMQ_XREQ?$AA@ 0000000180029e68     binding.obj
 0002:00008e78       ??_C@_07KLJIINDP@ZMQ_REP?$AA@ 0000000180029e78     binding.obj
 0002:00008e80       ??_C@_08JBOFPOPI@ZMQ_XREP?$AA@ 0000000180029e80     binding.obj
 0002:00008e90       ??_C@_0L@CJFONPMI@ZMQ_DEALER?$AA@ 0000000180029e90     binding.obj
 0002:00008ea0       ??_C@_0L@IMAGBLGI@ZMQ_ROUTER?$AA@ 0000000180029ea0     binding.obj
 0002:00008eb0       ??_C@_08KGPCMKBL@ZMQ_PUSH?$AA@ 0000000180029eb0     binding.obj
 0002:00008ec0       ??_C@_08NFOEOLFC@ZMQ_PULL?$AA@ 0000000180029ec0     binding.obj
 0002:00008ed0       ??_C@_08NIBFNGKO@ZMQ_PAIR?$AA@ 0000000180029ed0     binding.obj
 0002:00008ee0       ??_C@_0L@NDLGKICM@ZMQ_STREAM?$AA@ 0000000180029ee0     binding.obj
 0002:00008ef0       ??_C@_0L@MKJCEPL@ZMQ_POLLIN?$AA@ 0000000180029ef0     binding.obj
 0002:00008f00       ??_C@_0M@MBKMAJKN@ZMQ_POLLOUT?$AA@ 0000000180029f00     binding.obj
 0002:00008f10       ??_C@_0M@PNAEFIMK@ZMQ_POLLERR?$AA@ 0000000180029f10     binding.obj
 0002:00008f20       ??_C@_0M@GOPBJLLC@ZMQ_SNDMORE?$AA@ 0000000180029f20     binding.obj
 0002:00008f30       ??_C@_0M@DJJLEGF@STATE_READY?$AA@ 0000000180029f30     binding.obj
 0002:00008f40       ??_C@_0L@ONNGFLMN@STATE_BUSY?$AA@ 0000000180029f40     binding.obj
 0002:00008f50       ??_C@_0N@CIKKMLID@STATE_CLOSED?$AA@ 0000000180029f50     binding.obj
 0002:00008f60       ??_C@_0L@HLAMBFJ@zmqVersion?$AA@ 0000000180029f60     binding.obj
 0002:00008f70       ??_C@_0BA@KHJBHDEG@zmqCurveKeypair?$AA@ 0000000180029f70     binding.obj
 0002:00008f80       ??_C@_1BK@MGMFAEKH@?$AAk?$AAe?$AAr?$AAn?$AAe?$AAl?$AA3?$AA2?$AA?4?$AAd?$AAl?$AAl?$AA?$AA@ 0000000180029f80     binding.obj
 0002:00008f9c       ??_C@_11LOCGONAA@?$AA?$AA@ 0000000180029f9c     binding.obj
 0002:00008fa0       ??_C@_0BB@FCPPHFOE@SetDllDirectoryW?$AA@ 0000000180029fa0     binding.obj
 0002:00008fb8       ??_C@_1BC@KMBKDINH@?$AAz?$AAm?$AAq?$AA?4?$AAn?$AAo?$AAd?$AAe?$AA?$AA@ 0000000180029fb8     binding.obj
 0002:00008fd0       ??_C@_1CO@ONPOCOKK@?$AA?2?$AA?4?$AA?4?$AA?2?$AA?4?$AA?4?$AA?2?$AAw?$AAi?$AAn?$AAd?$AAo?$AAw?$AAs?$AA?2?$AAl?$AAi?$AAb?$AA?2?$AAx?$AA6?$AA4?$AA?$AA@ 0000000180029fd0     binding.obj
 0002:00009000       ??_C@_0BJ@PLFLLAIE@libzmq?9v100?9mt?94_0_4?4dll?$AA@ 000000018002a000     binding.obj
 0002:00009020       ??_C@_1KG@DJAADIGO@?$AA?$CB?$AAF?$AAA?$AAI?$AAL?$AAE?$AAD?$AA?$CI?$AA_?$AA_?$AAH?$AAr?$AAL?$AAo?$AAa?$AAd?$AAA?$AAl?$AAl?$AAI?$AAm?$AAp?$AAo?$AAr?$AAt?$AAs?$AAF?$AAo?$AAr?$AAD?$AAl?$AAl@ 000000018002a020     binding.obj
 0002:000090c8       ??_C@_0O@POHGFGMN@?4?4?2binding?4cc?$AA@ 000000018002a0c8     binding.obj
 0002:000090d8       ??_C@_03KMBCHANP@zmq?$AA@  000000018002a0d8     binding.obj
 0002:000090e0       ??_C@_1CE@LNAGEONJ@?$AA?$CB?$AAo?$AAb?$AAj?$AAe?$AAc?$AAt?$AA?4?$AAI?$AAs?$AAE?$AAm?$AAp?$AAt?$AAy?$AA?$CI?$AA?$CJ?$AA?$AA@ 000000018002a0e0     binding.obj
 0002:00009108       ??_C@_0BJ@MLJHEPAD@Value?5must?5be?5an?5integer?$AA@ 000000018002a108     binding.obj
 0002:00009128       ??_C@_0BE@JONHPENG@map?1set?$DMT?$DO?5too?5long?$AA@ 000000018002a128     binding.obj
 0002:00009140       ??_7ExternalStringResourceBase@String@v8@@6B@ 000000018002a140     binding.obj
 0002:00009150       ??_7ExternalOneByteStringResourceImpl@v8@@6B@ 000000018002a150     binding.obj
 0002:00009170       ??_7Context@zmq@@6B@       000000018002a170     binding.obj
 0002:00009188       ??_7ExternalOneByteStringResource@String@v8@@6B@ 000000018002a188     binding.obj
 0002:00009188       ??_7ExternalStringResource@String@v8@@6B@ 000000018002a188     binding.obj
 0002:000091a8       ??_7ExternalSourceStream@ScriptCompiler@v8@@6B@ 000000018002a1a8     binding.obj
 0002:000091c8       ??_7exception@stdext@@6B@  000000018002a1c8     binding.obj
 0002:000091e0       ??_7Allocator@ArrayBuffer@v8@@6B@ 000000018002a1e0     binding.obj
 0002:00009200       ??_7ObjectWrap@Nan@@6B@    000000018002a200     binding.obj
 0002:00009218       ??_7Socket@zmq@@6B@        000000018002a218     binding.obj
 0002:00009230       ??_7Extension@v8@@6B@      000000018002a230     binding.obj
 0002:00009240       ??_7ExternalResourceVisitor@v8@@6B@ 000000018002a240     binding.obj
 0002:00009240       ??_7PersistentHandleVisitor@v8@@6B@ 000000018002a240     binding.obj
 0002:00009250       ??_C@_08HCOMDCCD@iojs?4exe?$AA@ 000000018002a250     win_delay_load_hook.obj
 0002:00009260       ??_C@_08JDDNMFDB@node?4exe?$AA@ 000000018002a260     win_delay_load_hook.obj
 0002:00009270       __real@3ff0000000000000    000000018002a270     binding.obj
 0002:00009278       __real@4000000000000000    000000018002a278     binding.obj
 0002:00009280       __real@4008000000000000    000000018002a280     binding.obj
 0002:00009288       __real@4010000000000000    000000018002a288     binding.obj
 0002:00009290       __real@4014000000000000    000000018002a290     binding.obj
 0002:00009298       __real@4018000000000000    000000018002a298     binding.obj
 0002:000092a0       __real@401c000000000000    000000018002a2a0     binding.obj
 0002:000092a8       __real@4020000000000000    000000018002a2a8     binding.obj
 0002:000092b0       __real@4022000000000000    000000018002a2b0     binding.obj
 0002:000092b8       __real@4024000000000000    000000018002a2b8     binding.obj
 0002:000092c0       __real@4026000000000000    000000018002a2c0     binding.obj
 0002:000092c8       __real@43f0000000000000    000000018002a2c8     binding.obj
 0002:00009328       ??_R4exception@std@@6B@    000000018002a328     libcpmt:xthrow.obj
 0002:00009350       ??_R3exception@std@@8      000000018002a350     libcpmt:xthrow.obj
 0002:00009368       ??_R2exception@std@@8      000000018002a368     libcpmt:xthrow.obj
 0002:00009378       ??_R1A@?0A@EA@exception@std@@8 000000018002a378     libcpmt:xthrow.obj
 0002:000093a0       ??_R4bad_alloc@std@@6B@    000000018002a3a0     libcpmt:xthrow.obj
 0002:000093c8       ??_R3bad_alloc@std@@8      000000018002a3c8     libcpmt:xthrow.obj
 0002:000093e0       ??_R2bad_alloc@std@@8      000000018002a3e0     libcpmt:xthrow.obj
 0002:000093f8       ??_R1A@?0A@EA@bad_alloc@std@@8 000000018002a3f8     libcpmt:xthrow.obj
 0002:00009420       ??_R4logic_error@std@@6B@  000000018002a420     libcpmt:xthrow.obj
 0002:00009448       ??_R3logic_error@std@@8    000000018002a448     libcpmt:xthrow.obj
 0002:00009460       ??_R2logic_error@std@@8    000000018002a460     libcpmt:xthrow.obj
 0002:00009478       ??_R1A@?0A@EA@logic_error@std@@8 000000018002a478     libcpmt:xthrow.obj
 0002:000094a0       ??_R4length_error@std@@6B@ 000000018002a4a0     libcpmt:xthrow.obj
 0002:000094c8       ??_R3length_error@std@@8   000000018002a4c8     libcpmt:xthrow.obj
 0002:000094e0       ??_R2length_error@std@@8   000000018002a4e0     libcpmt:xthrow.obj
 0002:00009500       ??_R1A@?0A@EA@length_error@std@@8 000000018002a500     libcpmt:xthrow.obj
 0002:00009528       ??_R4runtime_error@std@@6B@ 000000018002a528     libcpmt:xthrow.obj
 0002:00009550       ??_R3runtime_error@std@@8  000000018002a550     libcpmt:xthrow.obj
 0002:00009568       ??_R2runtime_error@std@@8  000000018002a568     libcpmt:xthrow.obj
 0002:00009580       ??_R1A@?0A@EA@runtime_error@std@@8 000000018002a580     libcpmt:xthrow.obj
 0002:000095a8       ??_R4type_info@@6B@        000000018002a5a8     LIBCMT:std_type_info_static.obj
 0002:000095d0       ??_R3type_info@@8          000000018002a5d0     LIBCMT:std_type_info_static.obj
 0002:000095e8       ??_R2type_info@@8          000000018002a5e8     LIBCMT:std_type_info_static.obj
 0002:000095f8       ??_R1A@?0A@EA@type_info@@8 000000018002a5f8     LIBCMT:std_type_info_static.obj
 0002:00009620       ??_R4bad_array_new_length@std@@6B@ 000000018002a620     LIBCMT:throw_bad_alloc.obj
 0002:00009648       ??_R3bad_array_new_length@std@@8 000000018002a648     LIBCMT:throw_bad_alloc.obj
 0002:00009660       ??_R2bad_array_new_length@std@@8 000000018002a660     LIBCMT:throw_bad_alloc.obj
 0002:00009680       ??_R1A@?0A@EA@bad_array_new_length@std@@8 000000018002a680     LIBCMT:throw_bad_alloc.obj
 0002:000096a8       ?_TraceLoggingMetadata@?1??_TlgWrite@__vcrt_trace_logging_provider@@YAJPEBU_TlgProvider_t@2@PEFBXPEBU_GUID@@2IPEAU_EVENT_DATA_DESCRIPTOR@@@Z@4U_TraceLoggingMetadata_t@2@B 000000018002a6a8     libvcruntime:telemetry.obj
 0002:0000975b       ?_TraceLoggingMetadataEnd@?1??_TlgWrite@__vcrt_trace_logging_provider@@YAJPEBU_TlgProvider_t@2@PEFBXPEBU_GUID@@2IPEAU_EVENT_DATA_DESCRIPTOR@@@Z@4EB 000000018002a75b     libvcruntime:telemetry.obj
 0002:00009bd8       __rtc_iaa                  000000018002abd8     LIBCMT:_initsect_.obj
 0002:00009be0       __rtc_izz                  000000018002abe0     LIBCMT:_initsect_.obj
 0002:00009be8       __rtc_taa                  000000018002abe8     LIBCMT:_initsect_.obj
 0002:00009bf0       __rtc_tzz                  000000018002abf0     LIBCMT:_initsect_.obj
 0002:0000b2e8       _TI2?AVbad_alloc@std@@     000000018002c2e8     libcpmt:xthrow.obj
 0002:0000b308       _CTA2?AVbad_alloc@std@@    000000018002c308     libcpmt:xthrow.obj
 0002:0000b320       _CT??_R0?AVbad_alloc@std@@@8??0bad_alloc@std@@QEAA@AEBV01@@Z24 000000018002c320     libcpmt:xthrow.obj
 0002:0000b348       _CT??_R0?AVexception@std@@@8??0exception@std@@QEAA@AEBV01@@Z24 000000018002c348     libcpmt:xthrow.obj
 0002:0000b370       _CT??_R0?AVlogic_error@std@@@8??0logic_error@std@@QEAA@AEBV01@@Z24 000000018002c370     libcpmt:xthrow.obj
 0002:0000b398       _TI3?AVlength_error@std@@  000000018002c398     libcpmt:xthrow.obj
 0002:0000b3b8       _CTA3?AVlength_error@std@@ 000000018002c3b8     libcpmt:xthrow.obj
 0002:0000b3d8       _CT??_R0?AVlength_error@std@@@8??0length_error@std@@QEAA@AEBV01@@Z24 000000018002c3d8     libcpmt:xthrow.obj
 0002:0000b400       _TI3?AVbad_array_new_length@std@@ 000000018002c400     LIBCMT:throw_bad_alloc.obj
 0002:0000b420       _CTA3?AVbad_array_new_length@std@@ 000000018002c420     LIBCMT:throw_bad_alloc.obj
 0002:0000b440       _CT??_R0?AVbad_array_new_length@std@@@8??0bad_array_new_length@std@@QEAA@AEBV01@@Z24 000000018002c440     LIBCMT:throw_bad_alloc.obj
 0002:0000b468       _TI2?AVruntime_error@std@@ 000000018002c468     binding.obj
 0002:0000b488       _CTA2?AVruntime_error@std@@ 000000018002c488     binding.obj
 0002:0000b4a0       _CT??_R0?AVexception@stdext@@@816 000000018002c4a0     binding.obj
 0002:0000b4c8       _CT??_R0?AVruntime_error@std@@@816 000000018002c4c8     binding.obj
 0002:0000b4ec       __DELAY_IMPORT_DESCRIPTOR_node_exe 000000018002c4ec     node:node.exe
 0002:0000b50c       __DELAY_IMPORT_DESCRIPTOR_libzmq_v100_mt_4_0_4_dll 000000018002c50c     libzmq-v100-mt-4_0_4:libzmq-v100-mt-4_0_4.dll
 0002:0000b52c       __NULL_DELAY_IMPORT_DESCRIPTOR 000000018002c52c     node:node.exe
 0002:0000b620       \177libzmq-v100-mt-4_0_4_NULL_THUNK_DATA_DLN 000000018002c620     libzmq-v100-mt-4_0_4:libzmq-v100-mt-4_0_4.dll
 0002:0000b960       \177node_NULL_THUNK_DATA_DLN 000000018002c960     node:node.exe
 0002:0000d6d8       \177node_NULL_THUNK_DATA_DLB 000000018002e6d8     node:node.exe
 0002:0000da18       \177libzmq-v100-mt-4_0_4_NULL_THUNK_DATA_DLB 000000018002ea18     libzmq-v100-mt-4_0_4:libzmq-v100-mt-4_0_4.dll
 0002:000120c0       __IMPORT_DESCRIPTOR_KERNEL32 00000001800330c0     kernel32:KERNEL32.dll
 0002:000120d4       __IMPORT_DESCRIPTOR_ADVAPI32 00000001800330d4     advapi32:ADVAPI32.dll
 0002:000120e8       __NULL_IMPORT_DESCRIPTOR   00000001800330e8     kernel32:KERNEL32.dll
 0003:00000000       __scrt_native_dllmain_reason 0000000180034000     LIBCMT:utility.obj
 0003:00000008       __security_cookie          0000000180034008     LIBCMT:gs_cookie.obj
 0003:00000010       __security_cookie_complement 0000000180034010     LIBCMT:gs_cookie.obj
 0003:00000018       __isa_available            0000000180034018     LIBCMT:_cpu_disp_.obj
 0003:0000001c       __isa_enabled              000000018003401c     LIBCMT:_cpu_disp_.obj
 0003:00000020       __memcpy_nt_iters          0000000180034020     LIBCMT:_cpu_disp_.obj
 0003:00000090       __abort_behavior           0000000180034090     libucrt:abort.obj
 0003:000000a0       _iob                       00000001800340a0     libucrt:_file.obj
 0003:000001b0       __acrt_initial_locale_data 00000001800341b0     libucrt:nlsdata.obj
 0003:00000308       __acrt_initial_locale_pointers 0000000180034308     libucrt:nlsdata.obj
 0003:00000318       __acrt_wide_c_locale_string 0000000180034318     libucrt:nlsdata.obj
 0003:00000320       __badioinfo                0000000180034320     libucrt:ioinit.obj
 0003:00000360       __acrt_initial_multibyte_data 0000000180034360     libucrt:mbctype.obj
 0003:00000588       __acrt_current_multibyte_data 0000000180034588     libucrt:mbctype.obj
 0003:00000690       _mbctype                   0000000180034690     libucrt:mbctype.obj
 0003:000007a0       _mbcasemap                 00000001800347a0     libucrt:mbctype.obj
 0003:000008a0       _pwctype                   00000001800348a0     libucrt:ctype.obj
 0003:000008a8       __globallocalestatus       00000001800348a8     libucrt:glstatus.obj
 0003:000008b0       __acrt_lconv_c             00000001800348b0     libucrt:localeconv.obj
 0003:00000948       __acrt_lconv_static_decimal 0000000180034948     libucrt:localeconv.obj
 0003:0000094c       __acrt_lconv_static_W_decimal 000000018003494c     libucrt:localeconv.obj
 0003:00000960       __dcrt_lowio_console_output_handle 0000000180034960     libucrt:initcon.obj
 0003:00000980       _fltused                   0000000180034980     LIBCMT:fltused.obj
 0003:000009d0       __pfnDliNotifyHook2        00000001800349d0     win_delay_load_hook.obj
 0003:000009d8       ??_R0?AVbad_alloc@std@@@8  00000001800349d8     libcpmt:xthrow.obj
 0003:00000a00       ??_R0?AVexception@std@@@8  0000000180034a00     libcpmt:xthrow.obj
 0003:00000a28       ??_R0?AVlogic_error@std@@@8 0000000180034a28     libcpmt:xthrow.obj
 0003:00000a50       ??_R0?AVlength_error@std@@@8 0000000180034a50     libcpmt:xthrow.obj
 0003:00000a78       ??_R0?AVtype_info@@@8      0000000180034a78     LIBCMT:std_type_info_static.obj
 0003:00000a98       ??_R0?AVbad_array_new_length@std@@@8 0000000180034a98     LIBCMT:throw_bad_alloc.obj
 0003:00000ac8       ??_R0?AVruntime_error@std@@@8 0000000180034ac8     binding.obj
 0003:00000af0       ??_R0?AVexception@stdext@@@8 0000000180034af0     binding.obj
 0003:00000b18       __imp_zmq_unbind           0000000180034b18     libzmq-v100-mt-4_0_4:libzmq-v100-mt-4_0_4.dll
 0003:00000b20       __imp_zmq_msg_close        0000000180034b20     libzmq-v100-mt-4_0_4:libzmq-v100-mt-4_0_4.dll
 0003:00000b28       __imp_zmq_term             0000000180034b28     libzmq-v100-mt-4_0_4:libzmq-v100-mt-4_0_4.dll
 0003:00000b30       __imp_zmq_version          0000000180034b30     libzmq-v100-mt-4_0_4:libzmq-v100-mt-4_0_4.dll
 0003:00000b38       __imp_zmq_init             0000000180034b38     libzmq-v100-mt-4_0_4:libzmq-v100-mt-4_0_4.dll
 0003:00000b40       __imp_zmq_disconnect       0000000180034b40     libzmq-v100-mt-4_0_4:libzmq-v100-mt-4_0_4.dll
 0003:00000b48       __imp_zmq_msg_size         0000000180034b48     libzmq-v100-mt-4_0_4:libzmq-v100-mt-4_0_4.dll
 0003:00000b50       __imp_zmq_socket_monitor   0000000180034b50     libzmq-v100-mt-4_0_4:libzmq-v100-mt-4_0_4.dll
 0003:00000b58       __imp_zmq_msg_send         0000000180034b58     libzmq-v100-mt-4_0_4:libzmq-v100-mt-4_0_4.dll
 0003:00000b60       __imp_zmq_ctx_get          0000000180034b60     libzmq-v100-mt-4_0_4:libzmq-v100-mt-4_0_4.dll
 0003:00000b68       __imp_zmq_msg_more         0000000180034b68     libzmq-v100-mt-4_0_4:libzmq-v100-mt-4_0_4.dll
 0003:00000b70       __imp_zmq_msg_data         0000000180034b70     libzmq-v100-mt-4_0_4:libzmq-v100-mt-4_0_4.dll
 0003:00000b78       __imp_zmq_msg_init_size    0000000180034b78     libzmq-v100-mt-4_0_4:libzmq-v100-mt-4_0_4.dll
 0003:00000b80       __imp_zmq_curve_keypair    0000000180034b80     libzmq-v100-mt-4_0_4:libzmq-v100-mt-4_0_4.dll
 0003:00000b88       __imp_zmq_msg_init         0000000180034b88     libzmq-v100-mt-4_0_4:libzmq-v100-mt-4_0_4.dll
 0003:00000b90       __imp_zmq_errno            0000000180034b90     libzmq-v100-mt-4_0_4:libzmq-v100-mt-4_0_4.dll
 0003:00000b98       __imp_zmq_ctx_set          0000000180034b98     libzmq-v100-mt-4_0_4:libzmq-v100-mt-4_0_4.dll
 0003:00000ba0       __imp_zmq_connect          0000000180034ba0     libzmq-v100-mt-4_0_4:libzmq-v100-mt-4_0_4.dll
 0003:00000ba8       __imp_zmq_close            0000000180034ba8     libzmq-v100-mt-4_0_4:libzmq-v100-mt-4_0_4.dll
 0003:00000bb0       __imp_zmq_recvmsg          0000000180034bb0     libzmq-v100-mt-4_0_4:libzmq-v100-mt-4_0_4.dll
 0003:00000bb8       __imp_zmq_strerror         0000000180034bb8     libzmq-v100-mt-4_0_4:libzmq-v100-mt-4_0_4.dll
 0003:00000bc0       __imp_zmq_socket           0000000180034bc0     libzmq-v100-mt-4_0_4:libzmq-v100-mt-4_0_4.dll
 0003:00000bc8       __imp_zmq_poll             0000000180034bc8     libzmq-v100-mt-4_0_4:libzmq-v100-mt-4_0_4.dll
 0003:00000bd0       __imp_zmq_setsockopt       0000000180034bd0     libzmq-v100-mt-4_0_4:libzmq-v100-mt-4_0_4.dll
 0003:00000bd8       __imp_zmq_bind             0000000180034bd8     libzmq-v100-mt-4_0_4:libzmq-v100-mt-4_0_4.dll
 0003:00000be0       __imp_zmq_getsockopt       0000000180034be0     libzmq-v100-mt-4_0_4:libzmq-v100-mt-4_0_4.dll
 0003:00000be8       \177libzmq-v100-mt-4_0_4_NULL_THUNK_DATA_DLA 0000000180034be8     libzmq-v100-mt-4_0_4:libzmq-v100-mt-4_0_4.dll
 0003:00000bf0       __imp_?Exit@Isolate@v8@@QEAAXXZ 0000000180034bf0     node:node.exe
 0003:00000bf8       __imp_?Enter@Isolate@v8@@QEAAXXZ 0000000180034bf8     node:node.exe
 0003:00000c00       __imp_?GetCurrent@Isolate@v8@@SAPEAV12@XZ 0000000180034c00     node:node.exe
 0003:00000c08       __imp_?ResetToBookmark@ExternalSourceStream@ScriptCompiler@v8@@UEAAXXZ 0000000180034c08     node:node.exe
 0003:00000c10       __imp_?SetBookmark@ExternalSourceStream@ScriptCompiler@v8@@UEAA_NXZ 0000000180034c10     node:node.exe
 0003:00000c18       __imp_?CreateHandle@HandleScope@v8@@KAPEAPEAVObject@internal@2@PEAVIsolate@42@PEAV342@@Z 0000000180034c18     node:node.exe
 0003:00000c20       __imp_?CreateHandle@HandleScope@v8@@CAPEAPEAVObject@internal@2@PEAVHeapObject@42@PEAV342@@Z 0000000180034c20     node:node.exe
 0003:00000c28       __imp_??1HandleScope@v8@@QEAA@XZ 0000000180034c28     node:node.exe
 0003:00000c30       __imp_??0HandleScope@v8@@QEAA@PEAVIsolate@1@@Z 0000000180034c30     node:node.exe
 0003:00000c38       __imp_?Set@Template@v8@@QEAAXV?$Local@VName@v8@@@2@V?$Local@VData@v8@@@2@W4PropertyAttribute@2@@Z 0000000180034c38     node:node.exe
 0003:00000c40       __imp_?Error@Exception@v8@@SA?AV?$Local@VValue@v8@@@2@V?$Local@VString@v8@@@2@@Z 0000000180034c40     node:node.exe
 0003:00000c48       __imp_?TypeError@Exception@v8@@SA?AV?$Local@VValue@v8@@@2@V?$Local@VString@v8@@@2@@Z 0000000180034c48     node:node.exe
 0003:00000c50       __imp_?RangeError@Exception@v8@@SA?AV?$Local@VValue@v8@@@2@V?$Local@VString@v8@@@2@@Z 0000000180034c50     node:node.exe
 0003:00000c58       __imp_?Initialize@Locker@v8@@AEAAXPEAVIsolate@2@@Z 0000000180034c58     node:node.exe
 0003:00000c60       __imp_?Initialize@Unlocker@v8@@AEAAXPEAVIsolate@2@@Z 0000000180034c60     node:node.exe
 0003:00000c68       __imp_?PrototypeTemplate@FunctionTemplate@v8@@QEAA?AV?$Local@VObjectTemplate@v8@@@2@XZ 0000000180034c68     node:node.exe
 0003:00000c70       __imp_?InstanceTemplate@FunctionTemplate@v8@@QEAA?AV?$Local@VObjectTemplate@v8@@@2@XZ 0000000180034c70     node:node.exe
 0003:00000c78       __imp_?GetFunction@FunctionTemplate@v8@@QEAA?AV?$MaybeLocal@VFunction@v8@@@2@V?$Local@VContext@v8@@@2@@Z 0000000180034c78     node:node.exe
 0003:00000c80       __imp_?New@FunctionTemplate@v8@@SA?AV?$Local@VFunctionTemplate@v8@@@2@PEAVIsolate@2@P6AXAEBV?$FunctionCallbackInfo@VValue@v8@@@2@@ZV?$Local@VValue@v8@@@2@V?$Local@VSignature@v8@@@2@H@Z 0000000180034c80     node:node.exe
 0003:00000c88       __imp_?ToLocalEmpty@V8@v8@@CAXXZ 0000000180034c88     node:node.exe
 0003:00000c90       __imp_?FromJustIsNothing@V8@v8@@CAXXZ 0000000180034c90     node:node.exe
 0003:00000c98       __imp_?ClearWeak@V8@v8@@CAPEAXPEAPEAVObject@internal@2@@Z 0000000180034c98     node:node.exe
 0003:00000ca0       __imp_?MakeWeak@V8@v8@@CAXPEAPEAVObject@internal@2@PEAXP6AXAEBV?$WeakCallbackInfo@X@2@@ZW4WeakCallbackType@2@@Z 0000000180034ca0     node:node.exe
 0003:00000ca8       __imp_?DisposeGlobal@V8@v8@@CAXPEAPEAVObject@internal@2@@Z 0000000180034ca8     node:node.exe
 0003:00000cb0       __imp_?GlobalizeReference@V8@v8@@CAPEAPEAVObject@internal@2@PEAVIsolate@42@PEAPEAV342@@Z 0000000180034cb0     node:node.exe
 0003:00000cb8       __imp_?Int32Value@Value@v8@@QEBA?AV?$Maybe@H@2@V?$Local@VContext@v8@@@2@@Z 0000000180034cb8     node:node.exe
 0003:00000cc0       __imp_?Uint32Value@Value@v8@@QEBA?AV?$Maybe@I@2@V?$Local@VContext@v8@@@2@@Z 0000000180034cc0     node:node.exe
 0003:00000cc8       __imp_?IntegerValue@Value@v8@@QEBA?AV?$Maybe@_J@2@V?$Local@VContext@v8@@@2@@Z 0000000180034cc8     node:node.exe
 0003:00000cd0       __imp_?ToInt32@Value@v8@@QEBA?AV?$MaybeLocal@VInt32@v8@@@2@V?$Local@VContext@v8@@@2@@Z 0000000180034cd0     node:node.exe
 0003:00000cd8       __imp_?ToUint32@Value@v8@@QEBA?AV?$MaybeLocal@VUint32@v8@@@2@V?$Local@VContext@v8@@@2@@Z 0000000180034cd8     node:node.exe
 0003:00000ce0       __imp_?ToInteger@Value@v8@@QEBA?AV?$MaybeLocal@VInteger@v8@@@2@V?$Local@VContext@v8@@@2@@Z 0000000180034ce0     node:node.exe
 0003:00000ce8       __imp_?ToObject@Value@v8@@QEBA?AV?$MaybeLocal@VObject@v8@@@2@V?$Local@VContext@v8@@@2@@Z 0000000180034ce8     node:node.exe
 0003:00000cf0       __imp_?ToDetailString@Value@v8@@QEBA?AV?$MaybeLocal@VString@v8@@@2@V?$Local@VContext@v8@@@2@@Z 0000000180034cf0     node:node.exe
 0003:00000cf8       __imp_?ToString@Value@v8@@QEBA?AV?$MaybeLocal@VString@v8@@@2@V?$Local@VContext@v8@@@2@@Z 0000000180034cf8     node:node.exe
 0003:00000d00       __imp_?ToNumber@Value@v8@@QEBA?AV?$MaybeLocal@VNumber@v8@@@2@V?$Local@VContext@v8@@@2@@Z 0000000180034d00     node:node.exe
 0003:00000d08       __imp_?ToBoolean@Value@v8@@QEBA?AV?$MaybeLocal@VBoolean@v8@@@2@V?$Local@VContext@v8@@@2@@Z 0000000180034d08     node:node.exe
 0003:00000d10       __imp_?IsNumber@Value@v8@@QEBA_NXZ 0000000180034d10     node:node.exe
 0003:00000d18       __imp_?IsFunction@Value@v8@@QEBA_NXZ 0000000180034d18     node:node.exe
 0003:00000d20       __imp_?GetCurrentContext@Isolate@v8@@QEAA?AV?$Local@VContext@v8@@@2@XZ 0000000180034d20     node:node.exe
 0003:00000d28       __imp_??0EscapableHandleScope@v8@@QEAA@PEAVIsolate@1@@Z 0000000180034d28     node:node.exe
 0003:00000d30       __imp_?NewFromUtf8@String@v8@@SA?AV?$Local@VString@v8@@@2@PEAVIsolate@2@PEBDW4NewStringType@12@H@Z 0000000180034d30     node:node.exe
 0003:00000d38       __imp_?NewFromUtf8@String@v8@@SA?AV?$MaybeLocal@VString@v8@@@2@PEAVIsolate@2@PEBDW4NewStringType@2@H@Z 0000000180034d38     node:node.exe
 0003:00000d40       __imp_?WriteUtf8@String@v8@@QEBAHPEADHPEAHH@Z 0000000180034d40     node:node.exe
 0003:00000d48       __imp_?Length@String@v8@@QEBAHXZ 0000000180034d48     node:node.exe
 0003:00000d50       __imp_?New@Number@v8@@SA?AV?$Local@VNumber@v8@@@2@PEAVIsolate@2@N@Z 0000000180034d50     node:node.exe
 0003:00000d58       __imp_?SlowGetAlignedPointerFromInternalField@Object@v8@@AEAAPEAXH@Z 0000000180034d58     node:node.exe
 0003:00000d60       __imp_?SlowGetInternalField@Object@v8@@AEAA?AV?$Local@VValue@v8@@@2@H@Z 0000000180034d60     node:node.exe
 0003:00000d68       __imp_?New@Object@v8@@SA?AV?$Local@VObject@v8@@@2@PEAVIsolate@2@@Z 0000000180034d68     node:node.exe
 0003:00000d70       __imp_?GetIsolate@Object@v8@@QEAAPEAVIsolate@2@XZ 0000000180034d70     node:node.exe
 0003:00000d78       __imp_?SetAlignedPointerInInternalField@Object@v8@@QEAAXHPEAX@Z 0000000180034d78     node:node.exe
 0003:00000d80       __imp_?SetInternalField@Object@v8@@QEAAXHV?$Local@VValue@v8@@@2@@Z 0000000180034d80     node:node.exe
 0003:00000d88       __imp_?InternalFieldCount@Object@v8@@QEAAHXZ 0000000180034d88     node:node.exe
 0003:00000d90       __imp_?Get@Object@v8@@QEAA?AV?$MaybeLocal@VValue@v8@@@2@V?$Local@VContext@v8@@@2@V?$Local@VValue@v8@@@2@@Z 0000000180034d90     node:node.exe
 0003:00000d98       __imp_?ForceSet@Object@v8@@QEAA_NV?$Local@VValue@v8@@@2@0W4PropertyAttribute@2@@Z 0000000180034d98     node:node.exe
 0003:00000da0       __imp_?Set@Object@v8@@QEAA_NV?$Local@VValue@v8@@@2@0@Z 0000000180034da0     node:node.exe
 0003:00000da8       __imp_?Set@Object@v8@@QEAA?AV?$Maybe@_N@2@V?$Local@VContext@v8@@@2@V?$Local@VValue@v8@@@2@1@Z 0000000180034da8     node:node.exe
 0003:00000db0       __imp_?SetName@Function@v8@@QEAAXV?$Local@VString@v8@@@2@@Z 0000000180034db0     node:node.exe
 0003:00000db8       __imp_?NewInstance@Function@v8@@QEBA?AV?$MaybeLocal@VObject@v8@@@2@V?$Local@VContext@v8@@@2@HQEAV?$Local@VValue@v8@@@2@@Z 0000000180034db8     node:node.exe
 0003:00000dc0       __imp_?SetInternalFieldCount@ObjectTemplate@v8@@QEAAXH@Z 0000000180034dc0     node:node.exe
 0003:00000dc8       __imp_?SetHandler@ObjectTemplate@v8@@QEAAXAEBUIndexedPropertyHandlerConfiguration@2@@Z 0000000180034dc8     node:node.exe
 0003:00000dd0       __imp_?SetAccessor@ObjectTemplate@v8@@QEAAXV?$Local@VName@v8@@@2@P6AX0AEBV?$PropertyCallbackInfo@VValue@v8@@@2@@ZP6AX0V?$Local@VValue@v8@@@2@AEBV?$PropertyCallbackInfo@X@2@@Z3W4AccessControl@2@W4PropertyAttribute@2@V?$Local@VAccessorSignature@v8@@@2@@Z 0000000180034dd0     node:node.exe
 0003:00000dd8       __imp_?NewInstance@ObjectTemplate@v8@@QEAA?AV?$MaybeLocal@VObject@v8@@@2@V?$Local@VContext@v8@@@2@@Z 0000000180034dd8     node:node.exe
 0003:00000de0       __imp_?New@ObjectTemplate@v8@@SA?AV?$Local@VObjectTemplate@v8@@@2@PEAVIsolate@2@V?$Local@VFunctionTemplate@v8@@@2@@Z 0000000180034de0     node:node.exe
 0003:00000de8       __imp_uv_close             0000000180034de8     node:node.exe
 0003:00000df0       __imp_uv_poll_stop         0000000180034df0     node:node.exe
 0003:00000df8       __imp_node_module_register 0000000180034df8     node:node.exe
 0003:00000e00       __imp_?HasInstance@Buffer@node@@YA_NV?$Local@VValue@v8@@@v8@@@Z 0000000180034e00     node:node.exe
 0003:00000e08       __imp_?New@Buffer@node@@YA?AV?$MaybeLocal@VObject@v8@@@v8@@PEAVIsolate@4@PEAD_KP6AX1PEAX@Z3@Z 0000000180034e08     node:node.exe
 0003:00000e10       __imp_?Data@Buffer@node@@YAPEADV?$Local@VObject@v8@@@v8@@@Z 0000000180034e10     node:node.exe
 0003:00000e18       __imp_?Length@Buffer@node@@YA_KV?$Local@VObject@v8@@@v8@@@Z 0000000180034e18     node:node.exe
 0003:00000e20       __imp_?MakeCallback@node@@YA?AV?$Local@VValue@v8@@@v8@@PEAVIsolate@3@V?$Local@VObject@v8@@@3@V?$Local@VFunction@v8@@@3@HPEAV23@@Z 0000000180034e20     node:node.exe
 0003:00000e28       __imp_uv_timer_init        0000000180034e28     node:node.exe
 0003:00000e30       __imp_uv_timer_stop        0000000180034e30     node:node.exe
 0003:00000e38       __imp_uv_timer_start       0000000180034e38     node:node.exe
 0003:00000e40       __imp_uv_poll_init_socket  0000000180034e40     node:node.exe
 0003:00000e48       __imp_uv_poll_start        0000000180034e48     node:node.exe
 0003:00000e50       __imp_uv_default_loop      0000000180034e50     node:node.exe
 0003:00000e58       __imp_?ThrowException@Isolate@v8@@QEAA?AV?$Local@VValue@v8@@@2@V32@@Z 0000000180034e58     node:node.exe
 0003:00000e60       __imp_?RemoveGCPrologueCallback@Isolate@v8@@QEAAXP6AXPEAV12@W4GCType@2@W4GCCallbackFlags@2@@Z@Z 0000000180034e60     node:node.exe
 0003:00000e68       __imp_?RemoveGCEpilogueCallback@Isolate@v8@@QEAAXP6AXPEAV12@W4GCType@2@W4GCCallbackFlags@2@@Z@Z 0000000180034e68     node:node.exe
 0003:00000e70       __imp_?TerminateExecution@Isolate@v8@@QEAAXXZ 0000000180034e70     node:node.exe
 0003:00000e78       __imp_?IsExecutionTerminating@Isolate@v8@@QEAA_NXZ 0000000180034e78     node:node.exe
 0003:00000e80       __imp_?CancelTerminateExecution@Isolate@v8@@QEAAXXZ 0000000180034e80     node:node.exe
 0003:00000e88       __imp_?SetFatalErrorHandler@Isolate@v8@@QEAAXP6AXPEBD0@Z@Z 0000000180034e88     node:node.exe
 0003:00000e90       __imp_?SetAllowCodeGenerationFromStringsCallback@Isolate@v8@@QEAAXP6A_NV?$Local@VContext@v8@@@2@@Z@Z 0000000180034e90     node:node.exe
 0003:00000e98       __imp_?IsDead@Isolate@v8@@QEAA_NXZ 0000000180034e98     node:node.exe
 0003:00000ea0       __imp_?AddMessageListener@Isolate@v8@@QEAA_NP6AXV?$Local@VMessage@v8@@@2@V?$Local@VValue@v8@@@2@@Z1@Z 0000000180034ea0     node:node.exe
 0003:00000ea8       __imp_?RemoveMessageListeners@Isolate@v8@@QEAAXP6AXV?$Local@VMessage@v8@@@2@V?$Local@VValue@v8@@@2@@Z@Z 0000000180034ea8     node:node.exe
 0003:00000eb0       __imp_?SetFailedAccessCheckCallbackFunction@Isolate@v8@@QEAAXP6AXV?$Local@VObject@v8@@@2@W4AccessType@2@V?$Local@VValue@v8@@@2@@Z@Z 0000000180034eb0     node:node.exe
 0003:00000eb8       __imp_?SetCaptureStackTraceForUncaughtExceptions@Isolate@v8@@QEAAX_NHW4StackTraceOptions@StackTrace@2@@Z 0000000180034eb8     node:node.exe
 0003:00000ec0       __imp_?AddMemoryAllocationCallback@Isolate@v8@@QEAAXP6AXW4ObjectSpace@2@W4AllocationAction@2@H@Z01@Z 0000000180034ec0     node:node.exe
 0003:00000ec8       __imp_?RemoveMemoryAllocationCallback@Isolate@v8@@QEAAXP6AXW4ObjectSpace@2@W4AllocationAction@2@H@Z@Z 0000000180034ec8     node:node.exe
 0003:00000ed0       __imp_?VisitExternalResources@Isolate@v8@@QEAAXPEAVExternalResourceVisitor@2@@Z 0000000180034ed0     node:node.exe
 0003:00000ed8       __imp_?VisitHandlesWithClassIds@Isolate@v8@@QEAAXPEAVPersistentHandleVisitor@2@@Z 0000000180034ed8     node:node.exe
 0003:00000ee0       __imp_?VisitHandlesForPartialDependence@Isolate@v8@@QEAAXPEAVPersistentHandleVisitor@2@@Z 0000000180034ee0     node:node.exe
 0003:00000ee8       __imp_?CollectAllGarbage@Isolate@v8@@AEAAXPEBD@Z 0000000180034ee8     node:node.exe
 0003:00000ef0       __imp_?New@Signature@v8@@SA?AV?$Local@VSignature@v8@@@2@PEAVIsolate@2@V?$Local@VFunctionTemplate@v8@@@2@@Z 0000000180034ef0     node:node.exe
 0003:00000ef8       __imp_?New@Integer@v8@@SA?AV?$Local@VInteger@v8@@@2@PEAVIsolate@2@H@Z 0000000180034ef8     node:node.exe
 0003:00000f00       __imp_?New@External@v8@@SA?AV?$Local@VExternal@v8@@@2@PEAVIsolate@2@PEAX@Z 0000000180034f00     node:node.exe
 0003:00000f08       __imp_?Value@External@v8@@QEBAPEAXXZ 0000000180034f08     node:node.exe
 0003:00000f10       __imp_?Global@Context@v8@@QEAA?AV?$Local@VObject@v8@@@2@XZ 0000000180034f10     node:node.exe
 0003:00000f18       __imp_?Escape@EscapableHandleScope@v8@@AEAAPEAPEAVObject@internal@2@PEAPEAV342@@Z 0000000180034f18     node:node.exe
 0003:00000f20       __imp_uv_queue_work        0000000180034f20     node:node.exe
 0003:00000f28       \177node_NULL_THUNK_DATA_DLA 0000000180034f28     node:node.exe
 0003:00000f30       ?DloadKernel32@@3PEAUHINSTANCE__@@EA 0000000180034f30     DelayImp:delayhlp.obj
 0003:00000f38       ?DloadAcquireSRWLockExclusive@@3P6AXPEA_K@ZEA 0000000180034f38     DelayImp:delayhlp.obj
 0003:00000f40       ?DloadReleaseSRWLockExclusive@@3P6AXPEA_K@ZEA 0000000180034f40     DelayImp:delayhlp.obj
 0003:00000f48       ?DloadSrwLock@@3_KA        0000000180034f48     DelayImp:delayhlp.obj
 0003:00000f50       ?DloadSectionLockCount@@3KA 0000000180034f50     DelayImp:delayhlp.obj
 0003:00000f54       ?DloadSectionOldProtection@@3KA 0000000180034f54     DelayImp:delayhlp.obj
 0003:00000f58       ?DloadSectionCommitPermanent@@3KA 0000000180034f58     DelayImp:delayhlp.obj
 0003:00000f60       __pfnDliFailureHook2       0000000180034f60     DelayImp:delayhk1.obj
 0003:00000f68       __hmod__node_exe           0000000180034f68     node:node.exe
 0003:00000f70       __hmod__libzmq_v100_mt_4_0_4_dll 0000000180034f70     libzmq-v100-mt-4_0_4:libzmq-v100-mt-4_0_4.dll
 0003:000014f0       __scrt_current_native_startup_state 00000001800354f0     LIBCMT:utility.obj
 0003:000014f8       __scrt_native_startup_lock 00000001800354f8     LIBCMT:utility.obj
 0003:00001538       __favor                    0000000180035538     LIBCMT:_cpu_disp_.obj
 0003:0000153c       __scrt_debugger_hook_flag  000000018003553c     LIBCMT:utility_desktop.obj
 0003:00001540       ?__type_info_root_node@@3U__type_info_node@@A 0000000180035540     LIBCMT:tncleanup.obj
 0003:00001550       ?_OptionsStorage@?1??__local_stdio_scanf_options@@9@4_KA 0000000180035550     LIBCMT:default_local_stdio_options.obj
 0003:00001558       __pPurecall                0000000180035558     libvcruntime:purevirt_data.obj
 0003:00001678       ?pArgList@UnDecorator@@0PEAVReplicator@@EA 0000000180035678     libvcruntime:undname.obj
 0003:00001680       ?pZNameList@UnDecorator@@0PEAVReplicator@@EA 0000000180035680     libvcruntime:undname.obj
 0003:00001688       ?pTemplateArgList@UnDecorator@@0PEAVReplicator@@EA 0000000180035688     libvcruntime:undname.obj
 0003:00001690       ?gName@UnDecorator@@0PEBDEB 0000000180035690     libvcruntime:undname.obj
 0003:00001698       ?name@UnDecorator@@0PEBDEB 0000000180035698     libvcruntime:undname.obj
 0003:000016a0       ?outputString@UnDecorator@@0PEADEA 00000001800356a0     libvcruntime:undname.obj
 0003:000016a8       ?maxStringLength@UnDecorator@@0HA 00000001800356a8     libvcruntime:undname.obj
 0003:000016ac       ?disableFlags@UnDecorator@@0KA 00000001800356ac     libvcruntime:undname.obj
 0003:000016b0       ?fExplicitTemplateParams@UnDecorator@@0_NA 00000001800356b0     libvcruntime:undname.obj
 0003:000016b1       ?fGetTemplateArgumentList@UnDecorator@@0_NA 00000001800356b1     libvcruntime:undname.obj
 0003:000016b8       ?m_pGetParameter@UnDecorator@@0P6APEADJ@ZEA 00000001800356b8     libvcruntime:undname.obj
 0003:00001710       _environ_table             0000000180035710     libucrt:environment_initialization.obj
 0003:00001718       _wenviron_table            0000000180035718     libucrt:environment_initialization.obj
 0003:00001720       __dcrt_initial_wide_environment 0000000180035720     libucrt:environment_initialization.obj
 0003:00001728       __dcrt_initial_narrow_environment 0000000180035728     libucrt:environment_initialization.obj
 0003:00001730       __acrt_atexit_table        0000000180035730     libucrt:onexit.obj
 0003:00001748       __acrt_at_quick_exit_table 0000000180035748     libucrt:onexit.obj
 0003:00001760       _nstream                   0000000180035760     libucrt:_file.obj
 0003:00001768       __piob                     0000000180035768     libucrt:_file.obj
 0003:00001770       _cflush                    0000000180035770     libucrt:_file.obj
 0003:00001780       __acrt_stdout_buffer       0000000180035780     libucrt:_sftbuf.obj
 0003:00001788       __acrt_stderr_buffer       0000000180035788     libucrt:_sftbuf.obj
 0003:00001790       __acrt_locale_changed_data 0000000180035790     libucrt:wsetlocale.obj
 0003:00001798       __acrt_current_locale_data 0000000180035798     libucrt:nlsdata.obj
 0003:000017a0       __pioinfo                  00000001800357a0     libucrt:ioinit.obj
 0003:00001ba0       _nhandle                   0000000180035ba0     libucrt:ioinit.obj
 0003:00001f84       __mbcodepage               0000000180035f84     libucrt:mbctype.obj
 0003:00001f88       __ismbcodepage             0000000180035f88     libucrt:mbctype.obj
 0003:00001f90       __mbulinfo                 0000000180035f90     libucrt:mbctype.obj
 0003:00001fa0       __mblocalename             0000000180035fa0     libucrt:mbctype.obj
 0003:00001fb0       __acrt_heap                0000000180035fb0     libucrt:heap_handle.obj
 0003:00001fb8       __argv                     0000000180035fb8     libucrt:argv_data.obj
 0003:00001fc0       __wargv                    0000000180035fc0     libucrt:argv_data.obj
 0003:00001fc8       _acmdln                    0000000180035fc8     libucrt:argv_data.obj
 0003:00001fd0       _wcmdln                    0000000180035fd0     libucrt:argv_data.obj
 0003:00001fe4       __acrt_lconv_static_null   0000000180035fe4     libucrt:localeconv.obj
 0003:00001fe8       __acrt_lconv_static_W_null 0000000180035fe8     libucrt:localeconv.obj
 0003:00001fec       __fma3_is_available        0000000180035fec     libucrt:fma3_available.obj
 0003:00001ff0       __use_fma3_lib             0000000180035ff0     libucrt:fma3_available.obj
 0003:00001ff8       ?monitors_count@zmq@@3HA   0000000180035ff8     binding.obj
 0003:00002000       ?opts_int@zmq@@3V?$set@HU?$less@H@std@@V?$allocator@H@2@@std@@A 0000000180036000     binding.obj
 0003:00002010       ?opts_binary@zmq@@3V?$set@HU?$less@H@std@@V?$allocator@H@2@@std@@A 0000000180036010     binding.obj
 0003:00002020       ?opts_uint32@zmq@@3V?$set@HU?$less@H@std@@V?$allocator@H@2@@std@@A 0000000180036020     binding.obj
 0003:00002030       ?opts_uint64@zmq@@3V?$set@HU?$less@H@std@@V?$allocator@H@2@@std@@A 0000000180036030     binding.obj
 0003:00002040       ?opts_int64@zmq@@3V?$set@HU?$less@H@std@@V?$allocator@H@2@@std@@A 0000000180036040     binding.obj
 0003:00002050       ?callback_symbol@zmq@@3V?$Persistent@VString@v8@@V?$NonCopyablePersistentTraits@VString@v8@@@2@@Nan@@A 0000000180036050     binding.obj
 0003:00002058       ?monitor_error@zmq@@3V?$Persistent@VString@v8@@V?$NonCopyablePersistentTraits@VString@v8@@@2@@Nan@@A 0000000180036058     binding.obj
 0003:00002060       ?monitor_symbol@zmq@@3V?$Persistent@VString@v8@@V?$NonCopyablePersistentTraits@VString@v8@@@2@@Nan@@A 0000000180036060     binding.obj
 0003:00002068       ?_OptionsStorage@?1??__local_stdio_printf_options@@9@4_KA 0000000180036068     binding.obj
 0003:00002070       __dyn_tls_init_callback    0000000180036070     <common>
 0003:00002078       __scrt_ucrt_dll_is_in_use  0000000180036078     <common>
 0003:00002080       _pDestructExceptionObject  0000000180036080     <common>

 entry point at        0001:0000d734

 Static symbols

 0000:fffc4000       .debug$S                   0000000180000000     node:node.exe
 0000:fffc4000       .debug$S                   0000000180000000     zmq.exp
 0000:fffc4000       .debug$S                   0000000180000000     kernel32:KERNEL32.dll
 0000:fffc4000       .debug$S                   0000000180000000     kernel32:KERNEL32.dll
 0000:fffc4000       .debug$S                   0000000180000000     kernel32:KERNEL32.dll
 0000:fffc4000       .debug$S                   0000000180000000     kernel32:KERNEL32.dll
 0000:fffc4000       .debug$S                   0000000180000000     kernel32:KERNEL32.dll
 0000:fffc4000       .debug$S                   0000000180000000     kernel32:KERNEL32.dll
 0000:fffc4000       .debug$S                   0000000180000000     kernel32:KERNEL32.dll
 0000:fffc4000       .debug$S                   0000000180000000     kernel32:KERNEL32.dll
 0000:fffc4000       .debug$S                   0000000180000000     kernel32:KERNEL32.dll
 0000:fffc4000       .debug$S                   0000000180000000     kernel32:KERNEL32.dll
 0000:fffc4000       .debug$S                   0000000180000000     kernel32:KERNEL32.dll
 0000:fffc4000       .debug$S                   0000000180000000     kernel32:KERNEL32.dll
 0000:fffc4000       .debug$S                   0000000180000000     kernel32:KERNEL32.dll
 0000:fffc4000       .debug$S                   0000000180000000     kernel32:KERNEL32.dll
 0000:fffc4000       .debug$S                   0000000180000000     kernel32:KERNEL32.dll
 0000:fffc4000       .debug$S                   0000000180000000     kernel32:KERNEL32.dll
 0000:fffc4000       .debug$S                   0000000180000000     kernel32:KERNEL32.dll
 0000:fffc4000       .debug$S                   0000000180000000     kernel32:KERNEL32.dll
 0000:fffc4000       .debug$S                   0000000180000000     kernel32:KERNEL32.dll
 0000:fffc4000       .debug$S                   0000000180000000     kernel32:KERNEL32.dll
 0000:fffc4000       .debug$S                   0000000180000000     kernel32:KERNEL32.dll
 0000:fffc4000       .debug$S                   0000000180000000     kernel32:KERNEL32.dll
 0000:fffc4000       .debug$S                   0000000180000000     kernel32:KERNEL32.dll
 0000:fffc4000       .debug$S                   0000000180000000     kernel32:KERNEL32.dll
 0000:fffc4000       .debug$S                   0000000180000000     kernel32:KERNEL32.dll
 0000:fffc4000       .debug$S                   0000000180000000     kernel32:KERNEL32.dll
 0000:fffc4000       .debug$S                   0000000180000000     kernel32:KERNEL32.dll
 0000:fffc4000       .debug$S                   0000000180000000     kernel32:KERNEL32.dll
 0000:fffc4000       .debug$S                   0000000180000000     kernel32:KERNEL32.dll
 0000:fffc4000       .debug$S                   0000000180000000     kernel32:KERNEL32.dll
 0000:fffc4000       .debug$S                   0000000180000000     kernel32:KERNEL32.dll
 0000:fffc4000       .debug$S                   0000000180000000     kernel32:KERNEL32.dll
 0000:fffc4000       .debug$S                   0000000180000000     kernel32:KERNEL32.dll
 0000:fffc4000       .debug$S                   0000000180000000     kernel32:KERNEL32.dll
 0000:fffc4000       .debug$S                   0000000180000000     kernel32:KERNEL32.dll
 0000:fffc4000       .debug$S                   0000000180000000     kernel32:KERNEL32.dll
 0000:fffc4000       .debug$S                   0000000180000000     kernel32:KERNEL32.dll
 0000:fffc4000       .debug$S                   0000000180000000     kernel32:KERNEL32.dll
 0000:fffc4000       .debug$S                   0000000180000000     kernel32:KERNEL32.dll
 0000:fffc4000       .debug$S                   0000000180000000     kernel32:KERNEL32.dll
 0000:fffc4000       .debug$S                   0000000180000000     kernel32:KERNEL32.dll
 0000:fffc4000       .debug$S                   0000000180000000     kernel32:KERNEL32.dll
 0000:fffc4000       .debug$S                   0000000180000000     kernel32:KERNEL32.dll
 0000:fffc4000       .debug$S                   0000000180000000     kernel32:KERNEL32.dll
 0000:fffc4000       .debug$S                   0000000180000000     kernel32:KERNEL32.dll
 0000:fffc4000       .debug$S                   0000000180000000     kernel32:KERNEL32.dll
 0000:fffc4000       .debug$S                   0000000180000000     kernel32:KERNEL32.dll
 0000:fffc4000       .debug$S                   0000000180000000     kernel32:KERNEL32.dll
 0000:fffc4000       .debug$S                   0000000180000000     kernel32:KERNEL32.dll
 0000:fffc4000       .debug$S                   0000000180000000     kernel32:KERNEL32.dll
 0000:fffc4000       .debug$S                   0000000180000000     kernel32:KERNEL32.dll
 0000:fffc4000       .debug$S                   0000000180000000     kernel32:KERNEL32.dll
 0000:fffc4000       .debug$S                   0000000180000000     kernel32:KERNEL32.dll
 0000:fffc4000       .debug$S                   0000000180000000     kernel32:KERNEL32.dll
 0000:fffc4000       .debug$S                   0000000180000000     kernel32:KERNEL32.dll
 0000:fffc4000       .debug$S                   0000000180000000     kernel32:KERNEL32.dll
 0000:fffc4000       .debug$S                   0000000180000000     kernel32:KERNEL32.dll
 0000:fffc4000       .debug$S                   0000000180000000     kernel32:KERNEL32.dll
 0000:fffc4000       .debug$S                   0000000180000000     kernel32:KERNEL32.dll
 0000:fffc4000       .debug$S                   0000000180000000     kernel32:KERNEL32.dll
 0000:fffc4000       .debug$S                   0000000180000000     kernel32:KERNEL32.dll
 0000:fffc4000       .debug$S                   0000000180000000     kernel32:KERNEL32.dll
 0000:fffc4000       .debug$S                   0000000180000000     kernel32:KERNEL32.dll
 0000:fffc4000       .debug$S                   0000000180000000     kernel32:KERNEL32.dll
 0000:fffc4000       .debug$S                   0000000180000000     kernel32:KERNEL32.dll
 0000:fffc4000       .debug$S                   0000000180000000     kernel32:KERNEL32.dll
 0000:fffc4000       .debug$S                   0000000180000000     kernel32:KERNEL32.dll
 0000:fffc4000       .debug$S                   0000000180000000     kernel32:KERNEL32.dll
 0000:fffc4000       .debug$S                   0000000180000000     kernel32:KERNEL32.dll
 0000:fffc4000       .debug$S                   0000000180000000     kernel32:KERNEL32.dll
 0000:fffc4000       .debug$S                   0000000180000000     kernel32:KERNEL32.dll
 0000:fffc4000       .debug$S                   0000000180000000     kernel32:KERNEL32.dll
 0000:fffc4000       .debug$S                   0000000180000000     kernel32:KERNEL32.dll
 0000:fffc4000       .debug$S                   0000000180000000     kernel32:KERNEL32.dll
 0000:fffc4000       .debug$S                   0000000180000000     kernel32:KERNEL32.dll
 0000:fffc4000       .debug$S                   0000000180000000     kernel32:KERNEL32.dll
 0000:fffc4000       .debug$S                   0000000180000000     kernel32:KERNEL32.dll
 0000:fffc4000       .debug$S                   0000000180000000     kernel32:KERNEL32.dll
 0000:fffc4000       .debug$S                   0000000180000000     kernel32:KERNEL32.dll
 0000:fffc4000       .debug$S                   0000000180000000     kernel32:KERNEL32.dll
 0000:fffc4000       .debug$S                   0000000180000000     kernel32:KERNEL32.dll
 0000:fffc4000       .debug$S                   0000000180000000     kernel32:KERNEL32.dll
 0000:fffc4000       .debug$S                   0000000180000000     kernel32:KERNEL32.dll
 0000:fffc4000       .debug$S                   0000000180000000     kernel32:KERNEL32.dll
 0000:fffc4000       .debug$S                   0000000180000000     kernel32:KERNEL32.dll
 0000:fffc4000       .debug$S                   0000000180000000     kernel32:KERNEL32.dll
 0000:fffc4000       .debug$S                   0000000180000000     kernel32:KERNEL32.dll
 0000:fffc4000       .debug$S                   0000000180000000     kernel32:KERNEL32.dll
 0000:fffc4000       .debug$S                   0000000180000000     kernel32:KERNEL32.dll
 0000:fffc4000       .debug$S                   0000000180000000     kernel32:KERNEL32.dll
 0000:fffc4000       .debug$S                   0000000180000000     kernel32:KERNEL32.dll
 0000:fffc4000       .debug$S                   0000000180000000     libzmq-v100-mt-4_0_4:libzmq-v100-mt-4_0_4.dll
 0000:fffc4000       .debug$S                   0000000180000000     libzmq-v100-mt-4_0_4:libzmq-v100-mt-4_0_4.dll
 0000:fffc4000       .debug$S                   0000000180000000     libzmq-v100-mt-4_0_4:libzmq-v100-mt-4_0_4.dll
 0000:fffc4000       .debug$S                   0000000180000000     libzmq-v100-mt-4_0_4:libzmq-v100-mt-4_0_4.dll
 0000:fffc4000       .debug$S                   0000000180000000     libzmq-v100-mt-4_0_4:libzmq-v100-mt-4_0_4.dll
 0000:fffc4000       .debug$S                   0000000180000000     libzmq-v100-mt-4_0_4:libzmq-v100-mt-4_0_4.dll
 0000:fffc4000       .debug$S                   0000000180000000     libzmq-v100-mt-4_0_4:libzmq-v100-mt-4_0_4.dll
 0000:fffc4000       .debug$S                   0000000180000000     libzmq-v100-mt-4_0_4:libzmq-v100-mt-4_0_4.dll
 0000:fffc4000       .debug$S                   0000000180000000     libzmq-v100-mt-4_0_4:libzmq-v100-mt-4_0_4.dll
 0000:fffc4000       .debug$S                   0000000180000000     libzmq-v100-mt-4_0_4:libzmq-v100-mt-4_0_4.dll
 0000:fffc4000       .debug$S                   0000000180000000     libzmq-v100-mt-4_0_4:libzmq-v100-mt-4_0_4.dll
 0000:fffc4000       .debug$S                   0000000180000000     libzmq-v100-mt-4_0_4:libzmq-v100-mt-4_0_4.dll
 0000:fffc4000       .debug$S                   0000000180000000     libzmq-v100-mt-4_0_4:libzmq-v100-mt-4_0_4.dll
 0000:fffc4000       .debug$S                   0000000180000000     libzmq-v100-mt-4_0_4:libzmq-v100-mt-4_0_4.dll
 0000:fffc4000       .debug$S                   0000000180000000     libzmq-v100-mt-4_0_4:libzmq-v100-mt-4_0_4.dll
 0000:fffc4000       .debug$S                   0000000180000000     libzmq-v100-mt-4_0_4:libzmq-v100-mt-4_0_4.dll
 0000:fffc4000       .debug$S                   0000000180000000     libzmq-v100-mt-4_0_4:libzmq-v100-mt-4_0_4.dll
 0000:fffc4000       .debug$S                   0000000180000000     libzmq-v100-mt-4_0_4:libzmq-v100-mt-4_0_4.dll
 0000:fffc4000       .debug$S                   0000000180000000     libzmq-v100-mt-4_0_4:libzmq-v100-mt-4_0_4.dll
 0000:fffc4000       .debug$S                   0000000180000000     libzmq-v100-mt-4_0_4:libzmq-v100-mt-4_0_4.dll
 0000:fffc4000       .debug$S                   0000000180000000     libzmq-v100-mt-4_0_4:libzmq-v100-mt-4_0_4.dll
 0000:fffc4000       .debug$S                   0000000180000000     libzmq-v100-mt-4_0_4:libzmq-v100-mt-4_0_4.dll
 0000:fffc4000       .debug$S                   0000000180000000     libzmq-v100-mt-4_0_4:libzmq-v100-mt-4_0_4.dll
 0000:fffc4000       .debug$S                   0000000180000000     libzmq-v100-mt-4_0_4:libzmq-v100-mt-4_0_4.dll
 0000:fffc4000       .debug$S                   0000000180000000     libzmq-v100-mt-4_0_4:libzmq-v100-mt-4_0_4.dll
 0000:fffc4000       .debug$S                   0000000180000000     libzmq-v100-mt-4_0_4:libzmq-v100-mt-4_0_4.dll
 0000:fffc4000       .debug$S                   0000000180000000     node:node.exe
 0000:fffc4000       .debug$S                   0000000180000000     node:node.exe
 0000:fffc4000       .debug$S                   0000000180000000     node:node.exe
 0000:fffc4000       .debug$S                   0000000180000000     node:node.exe
 0000:fffc4000       .debug$S                   0000000180000000     node:node.exe
 0000:fffc4000       .debug$S                   0000000180000000     node:node.exe
 0000:fffc4000       .debug$S                   0000000180000000     node:node.exe
 0000:fffc4000       .debug$S                   0000000180000000     node:node.exe
 0000:fffc4000       .debug$S                   0000000180000000     node:node.exe
 0000:fffc4000       .debug$S                   0000000180000000     node:node.exe
 0000:fffc4000       .debug$S                   0000000180000000     node:node.exe
 0000:fffc4000       .debug$S                   0000000180000000     node:node.exe
 0000:fffc4000       .debug$S                   0000000180000000     node:node.exe
 0000:fffc4000       .debug$S                   0000000180000000     node:node.exe
 0000:fffc4000       .debug$S                   0000000180000000     node:node.exe
 0000:fffc4000       .debug$S                   0000000180000000     node:node.exe
 0000:fffc4000       .debug$S                   0000000180000000     node:node.exe
 0000:fffc4000       .debug$S                   0000000180000000     node:node.exe
 0000:fffc4000       .debug$S                   0000000180000000     node:node.exe
 0000:fffc4000       .debug$S                   0000000180000000     node:node.exe
 0000:fffc4000       .debug$S                   0000000180000000     node:node.exe
 0000:fffc4000       .debug$S                   0000000180000000     node:node.exe
 0000:fffc4000       .debug$S                   0000000180000000     node:node.exe
 0000:fffc4000       .debug$S                   0000000180000000     node:node.exe
 0000:fffc4000       .debug$S                   0000000180000000     node:node.exe
 0000:fffc4000       .debug$S                   0000000180000000     node:node.exe
 0000:fffc4000       .debug$S                   0000000180000000     node:node.exe
 0000:fffc4000       .debug$S                   0000000180000000     node:node.exe
 0000:fffc4000       .debug$S                   0000000180000000     node:node.exe
 0000:fffc4000       .debug$S                   0000000180000000     node:node.exe
 0000:fffc4000       .debug$S                   0000000180000000     node:node.exe
 0000:fffc4000       .debug$S                   0000000180000000     node:node.exe
 0000:fffc4000       .debug$S                   0000000180000000     node:node.exe
 0000:fffc4000       .debug$S                   0000000180000000     node:node.exe
 0000:fffc4000       .debug$S                   0000000180000000     node:node.exe
 0000:fffc4000       .debug$S                   0000000180000000     node:node.exe
 0000:fffc4000       .debug$S                   0000000180000000     node:node.exe
 0000:fffc4000       .debug$S                   0000000180000000     advapi32:ADVAPI32.dll
 0000:fffc4000       .debug$S                   0000000180000000     node:node.exe
 0000:fffc4000       .debug$S                   0000000180000000     node:node.exe
 0000:fffc4000       .debug$S                   0000000180000000     node:node.exe
 0000:fffc4000       .debug$S                   0000000180000000     node:node.exe
 0000:fffc4000       .debug$S                   0000000180000000     node:node.exe
 0000:fffc4000       .debug$S                   0000000180000000     node:node.exe
 0000:fffc4000       .debug$S                   0000000180000000     node:node.exe
 0000:fffc4000       .debug$S                   0000000180000000     node:node.exe
 0000:fffc4000       .debug$S                   0000000180000000     node:node.exe
 0000:fffc4000       .debug$S                   0000000180000000     node:node.exe
 0000:fffc4000       .debug$S                   0000000180000000     node:node.exe
 0000:fffc4000       .debug$S                   0000000180000000     node:node.exe
 0000:fffc4000       .debug$S                   0000000180000000     node:node.exe
 0000:fffc4000       .debug$S                   0000000180000000     node:node.exe
 0000:fffc4000       .debug$S                   0000000180000000     node:node.exe
 0000:fffc4000       .debug$S                   0000000180000000     node:node.exe
 0000:fffc4000       .debug$S                   0000000180000000     node:node.exe
 0000:fffc4000       .debug$S                   0000000180000000     node:node.exe
 0000:fffc4000       .debug$S                   0000000180000000     node:node.exe
 0000:fffc4000       .debug$S                   0000000180000000     node:node.exe
 0000:fffc4000       .debug$S                   0000000180000000     node:node.exe
 0000:fffc4000       .debug$S                   0000000180000000     node:node.exe
 0000:fffc4000       .debug$S                   0000000180000000     node:node.exe
 0000:fffc4000       .debug$S                   0000000180000000     node:node.exe
 0000:fffc4000       .debug$S                   0000000180000000     node:node.exe
 0000:fffc4000       .debug$S                   0000000180000000     node:node.exe
 0000:fffc4000       .debug$S                   0000000180000000     node:node.exe
 0000:fffc4000       .debug$S                   0000000180000000     node:node.exe
 0000:fffc4000       .debug$S                   0000000180000000     node:node.exe
 0000:fffc4000       .debug$S                   0000000180000000     node:node.exe
 0000:fffc4000       .debug$S                   0000000180000000     node:node.exe
 0000:fffc4000       .debug$S                   0000000180000000     node:node.exe
 0000:fffc4000       .debug$S                   0000000180000000     node:node.exe
 0000:fffc4000       .debug$S                   0000000180000000     node:node.exe
 0000:fffc4000       .debug$S                   0000000180000000     node:node.exe
 0000:fffc4000       .debug$S                   0000000180000000     node:node.exe
 0000:fffc4000       .debug$S                   0000000180000000     node:node.exe
 0000:fffc4000       .debug$S                   0000000180000000     node:node.exe
 0000:fffc4000       .debug$S                   0000000180000000     node:node.exe
 0000:fffc4000       .debug$S                   0000000180000000     node:node.exe
 0000:fffc4000       .debug$S                   0000000180000000     node:node.exe
 0000:fffc4000       .debug$S                   0000000180000000     node:node.exe
 0000:fffc4000       .debug$S                   0000000180000000     node:node.exe
 0000:fffc4000       .debug$S                   0000000180000000     node:node.exe
 0000:fffc4000       .debug$S                   0000000180000000     node:node.exe
 0000:fffc4000       .debug$S                   0000000180000000     node:node.exe
 0000:fffc4000       .debug$S                   0000000180000000     node:node.exe
 0000:fffc4000       .debug$S                   0000000180000000     node:node.exe
 0000:fffc4000       .debug$S                   0000000180000000     node:node.exe
 0000:fffc4000       .debug$S                   0000000180000000     node:node.exe
 0000:fffc4000       .debug$S                   0000000180000000     node:node.exe
 0000:fffc4000       .debug$S                   0000000180000000     node:node.exe
 0000:fffc4000       .debug$S                   0000000180000000     node:node.exe
 0000:fffc4000       .debug$S                   0000000180000000     node:node.exe
 0000:fffc4000       .debug$S                   0000000180000000     node:node.exe
 0000:fffc4000       .debug$S                   0000000180000000     node:node.exe
 0000:fffc4000       .debug$S                   0000000180000000     node:node.exe
 0000:fffc4000       .debug$S                   0000000180000000     node:node.exe
 0000:fffc4000       .debug$S                   0000000180000000     node:node.exe
 0000:fffc4000       .debug$S                   0000000180000000     node:node.exe
 0000:fffc4000       .debug$S                   0000000180000000     node:node.exe
 0000:fffc4000       .debug$S                   0000000180000000     node:node.exe
 0000:fffc4000       .debug$S                   0000000180000000     node:node.exe
 0000:fffc4000       .debug$S                   0000000180000000     node:node.exe
 0000:fffc4000       .debug$S                   0000000180000000     node:node.exe
 0001:000001e0       ??__Eopts_int@zmq@@YAXXZ   00000001800011e0 f   binding.obj
 0001:00000250       ??__Eopts_uint32@zmq@@YAXXZ 0000000180001250 f   binding.obj
 0001:000002c0       ??__Eopts_int64@zmq@@YAXXZ 00000001800012c0 f   binding.obj
 0001:00000330       ??__Eopts_uint64@zmq@@YAXXZ 0000000180001330 f   binding.obj
 0001:000003a0       ??__Eopts_binary@zmq@@YAXXZ 00000001800013a0 f   binding.obj
 0001:00000410       ??__Ecallback_symbol@zmq@@YAXXZ 0000000180001410 f   binding.obj
 0001:00000430       ??__Emonitor_symbol@zmq@@YAXXZ 0000000180001430 f   binding.obj
 0001:00000450       ??__Emonitor_error@zmq@@YAXXZ 0000000180001450 f   binding.obj
 0001:00001730       ?FunctionCallbackWrapper@imp@Nan@@YAXAEBV?$FunctionCallbackInfo@VValue@v8@@@v8@@@Z 0000000180002730 f   binding.obj
 0001:000017e0       ?GetterCallbackWrapper@imp@Nan@@YAXV?$Local@VName@v8@@@v8@@AEBV?$PropertyCallbackInfo@VValue@v8@@@4@@Z 00000001800027e0 f   binding.obj
 0001:00001890       ?SetterCallbackWrapper@imp@Nan@@YAXV?$Local@VName@v8@@@v8@@V?$Local@VValue@v8@@@4@AEBV?$PropertyCallbackInfo@X@4@@Z 0000000180002890 f   binding.obj
 0001:00001f50       ?ExceptionFromError@zmq@@YA?AV?$Local@VValue@v8@@@v8@@XZ 0000000180002f50 f   binding.obj
 0001:00008700       ?on_uv_close@zmq@@YAXPEAUuv_handle_s@@@Z 0000000180009700 f   binding.obj
 0001:00008960       ?ZmqVersion@zmq@@YAXAEBV?$FunctionCallbackInfo@VValue@v8@@@Nan@@@Z 0000000180009960 f   binding.obj
 0001:00008a40       ?ZmqCurveKeypair@zmq@@YAXAEBV?$FunctionCallbackInfo@VValue@v8@@@Nan@@@Z 0000000180009a40 f   binding.obj
 0001:00008cb0       ?Initialize@zmq@@YAXV?$Local@VObject@v8@@@v8@@@Z 0000000180009cb0 f   binding.obj
 0001:0000a510       _register_zmq              000000018000b510 f   binding.obj
 0001:0000bba0       load_exe_hook              000000018000cba0 f   win_delay_load_hook.obj
 0001:0000bfa8       ?PiddFromDllName@@YAPEBUImgDelayDescr@@PEBD@Z 000000018000cfa8 f   DelayImp:delayhlp.obj
 0001:0000ccc0       $$000000                   000000018000dcc0     LIBCMT:_amdsecgs_.obj
 0001:0000cebc       capture_current_context    000000018000debc f   LIBCMT:gs_report.obj
 0001:0000cf2c       capture_previous_context   000000018000df2c f   LIBCMT:gs_report.obj
 0001:0000d3d8       ?dllmain_crt_dispatch@@YAHQEAUHINSTANCE__@@KQEAX@Z 000000018000e3d8 f   LIBCMT:dll_dllmain.obj
 0001:0000d428       ?dllmain_crt_process_attach@@YAHQEAUHINSTANCE__@@QEAX@Z 000000018000e428 f   LIBCMT:dll_dllmain.obj
 0001:0000d554       ?dllmain_crt_process_detach@@YAH_N@Z 000000018000e554 f   LIBCMT:dll_dllmain.obj
 0001:0000d5d8       ?dllmain_dispatch@@YAHQEAUHINSTANCE__@@KQEAX@Z 000000018000e5d8 f   LIBCMT:dll_dllmain.obj
 0001:0000d6e0       ?dllmain_raw@@YAHQEAUHINSTANCE__@@KQEAX@Z 000000018000e6e0 f   LIBCMT:dll_dllmain.obj
 0001:0000dcd0       $$000000                   000000018000ecd0     libvcruntime:memcpy.obj
 0001:0000dd77       MoveSmall                  000000018000ed77     libvcruntime:memcpy.obj
 0001:0000e620       _TlgDefineProvider_annotation__Tlg_Microsoft_CRTProviderProv 000000018000f620 f   libvcruntime:telemetry.obj
 0001:0000e890       $$000000                   000000018000f890     libvcruntime:memset.obj
 0001:0000e97c       MsetTab                    000000018000f97c     libvcruntime:memset.obj
 0001:0000ec8c       ?try_get_function@@YAPEAXW4function_id@?A0x61ce2399@@QEBDQEBW4module_id@2@2@Z 000000018000fc8c f   libvcruntime:winapi_downlevel.obj
 0001:0000f2a0       $$000000                   00000001800102a0     libvcruntime:_jmpuwind_.obj
 0001:0000f640       ??$common_vsprintf@Vformat_validation_base@__crt_stdio_output@@D@@YAH_KQEAD0QEBDQEAU__crt_locale_pointers@@1@Z 0000000180010640 f   libucrt:output.obj
 0001:0000fd28       ??R<lambda_dd75445284c072d0bd3768540cc698fa>@@QEBAHXZ 0000000180010d28 f   libucrt:output.obj
 0001:00012ca4       ??$common_fullpath_user_buffer@_W@@YAPEA_WQEA_WQEB_W_K@Z 0000000180013ca4 f   libucrt:fullpath.obj
 0001:00012e04       ??$common_assert_to_message_box@_W@@YAXQEB_W0IQEAX@Z 0000000180013e04 f   libucrt:assert.obj
 0001:00012ec8       ??$common_assert_to_message_box_build_string@_W@@YAXQEA_W_KQEB_W2IQEAX@Z 0000000180013ec8 f   libucrt:assert.obj
 0001:0001369c       ??$common_assert_to_stderr@_W@@YAXQEB_W0I@Z 000000018001469c f   libucrt:assert.obj
 0001:0001380c       ?get_assert_format@@YAPEB_W_W@Z 000000018001480c f   libucrt:assert.obj
 0001:00013c90       ?atexit_exception_filter@@YAHK@Z 0000000180014c90 f   libucrt:exit.obj
 0001:00013c9c       ?common_exit@@YAXHW4_crt_exit_cleanup_mode@@W4_crt_exit_return_mode@@@Z 0000000180014c9c f   libucrt:exit.obj
 0001:00013e08       ?exit_or_terminate_process@@YAXI@Z 0000000180014e08 f   libucrt:exit.obj
 0001:00013e54       ?try_cor_exit_process@@YAXI@Z 0000000180014e54 f   libucrt:exit.obj
 0001:00013eec       ??$common_initialize_environment_nolock@D@@YAHXZ 0000000180014eec f   libucrt:environment_initialization.obj
 0001:00013f58       ??$create_environment@D@@YAQEAPEADQEAD@Z 0000000180014f58 f   libucrt:environment_initialization.obj
 0001:00014054       ??$free_environment@_W@@YAXQEAPEA_W@Z 0000000180015054 f   libucrt:environment_initialization.obj
 0001:00014054       ??$free_environment@D@@YAXQEAPEAD@Z 0000000180015054 f   libucrt:environment_initialization.obj
 0001:00014098       ??$uninitialize_environment_internal@D@@YAXAEAPEAPEAD@Z 0000000180015098 f   libucrt:environment_initialization.obj
 0001:000140b4       ??$uninitialize_environment_internal@_W@@YAXAEAPEAPEA_W@Z 00000001800150b4 f   libucrt:environment_initialization.obj
 0001:000142ec       ??R<lambda_4e60a939b0d047cfe11ddc22648dfba9>@@QEBAHXZ 00000001800152ec f   libucrt:onexit.obj
 0001:0001459c       initialize_global_variables 000000018001559c f   libucrt:initialization.obj
 0001:000145b0       initialize_c               00000001800155b0 f   libucrt:initialization.obj
 0001:000145d4       uninitialize_environment   00000001800155d4 f   libucrt:initialization.obj
 0001:000145e4       uninitialize_global_state_isolation 00000001800155e4 f   libucrt:initialization.obj
 0001:000145e4       initialize_global_state_isolation 00000001800155e4 f   libucrt:initialization.obj
 0001:000145e4       initialize_environment     00000001800155e4 f   libucrt:initialization.obj
 0001:000145e4       uninitialize_c             00000001800155e4 f   libucrt:initialization.obj
 0001:000145e4       report_memory_leaks        00000001800155e4 f   libucrt:initialization.obj
 0001:000145e8       initialize_pointers        00000001800155e8 f   libucrt:initialization.obj
 0001:0001463c       uninitialize_vcruntime     000000018001563c f   libucrt:initialization.obj
 0001:00014644       uninitialize_allocated_memory 0000000180015644 f   libucrt:initialization.obj
 0001:00015528       ?construct_ptd_array@@YAXQEAU__acrt_ptd@@@Z 0000000180016528 f   libucrt:per_thread_data.obj
 0001:000155f8       ?destroy_fls@@YAXPEAX@Z    00000001800165f8 f   libucrt:per_thread_data.obj
 0001:00015618       ?destroy_ptd_array@@YAXQEAU__acrt_ptd@@@Z 0000000180016618 f   libucrt:per_thread_data.obj
 0001:00015710       ?replace_current_thread_locale_nolock@@YAXQEAU__acrt_ptd@@QEAU__crt_locale_data@@@Z 0000000180016710 f   libucrt:per_thread_data.obj
 0001:000159c4       ?internal_isupper_l@@YA_NHQEAU__crt_locale_pointers@@@Z 00000001800169c4 f   libucrt:tolower_toupper.obj
 0001:000163d0       ?fp_format_a@@YAHQEBNPEAD_KQEAD2H_NIQEAU__crt_locale_pointers@@@Z 00000001800173d0 f   libucrt:cvt.obj
 0001:00016730       ?fp_format_e@@YAHQEBNQEAD_K12H_NIQEAU__crt_locale_pointers@@@Z 0000000180017730 f   libucrt:cvt.obj
 0001:00016800       ?fp_format_e_internal@@YAHQEAD_KH_NIQEAU_strflt@@2QEAU__crt_locale_pointers@@@Z 0000000180017800 f   libucrt:cvt.obj
 0001:000169dc       ?fp_format_f_internal@@YAHQEAD_KHQEAU_strflt@@_NQEAU__crt_locale_pointers@@@Z 00000001800179dc f   libucrt:cvt.obj
 0001:00016b24       ?fp_format_g@@YAHQEBNQEAD_K12H_NIQEAU__crt_locale_pointers@@@Z 0000000180017b24 f   libucrt:cvt.obj
 0001:00016c5c       ?fp_format_nan_or_infinity@@YAHW4__acrt_fp_class@@_NPEAD_K1@Z 0000000180017c5c f   libucrt:cvt.obj
 0001:000174c0       ?initialize_inherited_file_handles_nolock@@YAXXZ 00000001800184c0 f   libucrt:ioinit.obj
 0001:000175ac       ?initialize_stdio_handles_nolock@@YAXXZ 00000001800185ac f   libucrt:ioinit.obj
 0001:00017724       ??$common_getdcwd@_W@@YAPEA_WHQEA_WHHQEBDH@Z 0000000180018724 f   libucrt:getcwd.obj
 0001:00017878       ??$common_getdcwd_user_buffer@_W@@YAPEA_WQEA_W0I@Z 0000000180018878 f   libucrt:getcwd.obj
 0001:000178e4       ?is_valid_drive@@YAHI@Z    00000001800188e4 f   libucrt:getcwd.obj
 0001:0001799c       ??$common_xtox@K_W@@YAHKQEA_W_KI_N@Z 000000018001899c f   libucrt:xtoa.obj
 0001:00017a48       ??$common_xtox_s@K_W@@YAHKQEA_W_KI_N@Z 0000000180018a48 f   libucrt:xtoa.obj
 0001:00017d0c       ??$message_box_wait_thread@_W@@YAKQEAX@Z 0000000180018d0c f   libucrt:crtmbox.obj
 0001:00017f20       common_flush_all           0000000180018f20 f   libucrt:fflush.obj
 0001:00018088       ??R<lambda_b721fa326cdb32351d23dfa67958c160>@@QEBAHXZ 0000000180019088 f   libucrt:setvbuf.obj
 0001:00018604       ?try_get_function@@YAPEAXW4function_id@?A0x63058377@@QEBDQEBW4module_id@2@2@Z 0000000180019604 f   libucrt:winapi_thunks.obj
 0001:00018e68       ??R<lambda_ad1ced32f4ac17aa236e5ef05d6b3b7c>@@QEBAXXZ 0000000180019e68 f   libucrt:mbctype.obj
 0001:00019080       ?getSystemCP@@YAHH@Z       000000018001a080 f   libucrt:mbctype.obj
 0001:00019100       ?setSBCS@@YAXPEAU__crt_multibyte_data@@@Z 000000018001a100 f   libucrt:mbctype.obj
 0001:00019190       ?setSBUpLow@@YAXPEAU__crt_multibyte_data@@@Z 000000018001a190 f   libucrt:mbctype.obj
 0001:00019374       ?setmbcp_internal@@YAHH_N@Z 000000018001a374 f   libucrt:mbctype.obj
 0001:0001a208       ?__acrt_LCMapStringA_stat@@YAHPEAU__crt_locale_pointers@@PEB_WKPEBDHPEADHHH@Z 000000018001b208 f   libucrt:lcmapstringa.obj
 0001:0001befc       memcpy_s                   000000018001cefc f   libucrt:cfout.obj
 0001:0001bf84       ??$write_buffer_nolock@D@@YA_NDV__crt_stdio_stream@@@Z 000000018001cf84 f   libucrt:_flsbuf.obj
 0001:0001c088       ??$write_buffer_nolock@_W@@YA_N_WV__crt_stdio_stream@@@Z 000000018001d088 f   libucrt:_flsbuf.obj
 0001:0001c634       ?free_crt_array_internal@@YAXQEAPEBX_K@Z 000000018001d634 f   libucrt:inittime.obj
 0001:0001ce84       ?write_double_translated_ansi_nolock@@YA?AUwrite_result@?A0x9c548279@@HQEBDI@Z 000000018001de84 f   libucrt:write.obj
 0001:0001d08c       ?write_text_ansi_nolock@@YA?AUwrite_result@?A0x9c548279@@HQEBDI@Z 000000018001e08c f   libucrt:write.obj
 0001:0001d194       ?write_text_utf16le_nolock@@YA?AUwrite_result@?A0x9c548279@@HQEBDI@Z 000000018001e194 f   libucrt:write.obj
 0001:0001d2b0       ?write_text_utf8_nolock@@YA?AUwrite_result@?A0x9c548279@@HQEBDI@Z 000000018001e2b0 f   libucrt:write.obj
 0001:0001d7f4       ?GetTableIndexFromLocaleName@@YAHPEB_W@Z 000000018001e7f4 f   libucrt:lcidtoname_downlevel.obj
 0001:0001d8f0       ?initialize_multibyte@@YAHXZ 000000018001e8f0 f   libucrt:multibyte_initializer.obj
 0001:0001db60       $$000000                   000000018001eb60     libucrt:log10.obj
 0001:0001e10c       ??$common_lseek@_J@@YA_JH_JH@Z 000000018001f10c f   libucrt:lseek.obj
 0001:0001e1fc       ??$common_lseek_nolock@_J@@YA_JH_JH@Z 000000018001f1fc f   libucrt:lseek.obj
 0001:0001e588       common_control87           000000018001f588 f   libucrt:ieee.obj
 0001:0001e820       _call_matherr              000000018001f820 f   libucrt:libm_error.obj
 0001:0001e888       _exception_enabled         000000018001f888 f   libucrt:libm_error.obj
 0001:0001eb20       _log_special_common        000000018001fb20 f   libucrt:log_special.obj
 0001:0001ee30       $$000000                   000000018001fe30     libucrt:fpsr.obj
 0001:0001f420       $$000000                   0000000180020420     LIBCMT:_chkstk_.obj
 0001:0001f5d0       $$000000                   00000001800205d0     libvcruntime:memcmp.obj
 0001:0001f6b0       $$000000                   00000001800206b0     LIBCMT:_guard_dispatch_.obj
 0001:0001f6d0       __scrt_is_nonwritable_in_current_image$filt$0 00000001800206d0 f   LIBCMT:utility.obj
 0001:0001f6e8       ?fin$0@?0??dllmain_crt_process_attach@@YAHQEAUHINSTANCE__@@QEAX@Z@4HA 00000001800206e8 f   LIBCMT:dll_dllmain.obj
 0001:0001f6ff       ?fin$0@?0??dllmain_crt_process_detach@@YAH_N@Z@4HA 00000001800206ff f   LIBCMT:dll_dllmain.obj
 0001:0001f71b       ?filt$0@?0??dllmain_dispatch@@YAHQEAUHINSTANCE__@@KQEAX@Z@4HA 000000018002071b f   LIBCMT:dll_dllmain.obj
 0001:0001f751       _query_new_handler$fin$0   0000000180020751 f   libucrt:new_handler.obj
 0001:0001f767       ?filt$0@?0??common_exit@@YAXHW4_crt_exit_cleanup_mode@@W4_crt_exit_return_mode@@@Z@4HA 0000000180020767 f   libucrt:exit.obj
 0001:0001f782       ?fin$1@?0??common_exit@@YAXHW4_crt_exit_cleanup_mode@@W4_crt_exit_return_mode@@@Z@4HA 0000000180020782 f   libucrt:exit.obj
 0001:0001f79b       ?fin$0@?0???$?RV<lambda_fb3a7dec4e47f37f22dae91bb15c9095>@@AEAV<lambda_698284760c8add0bfb0756c19673e34b>@@V<lambda_dfb8eca1e75fef3034a8fb18dd509707>@@@?$__crt_seh_guarded_call@X@@QEAAX$$QEAV<lambda_fb3a7dec4e47f37f22dae91bb15c9095>@@AEAV<lambda_698284760c8add0bfb0756c19673e34b>@@$$QEAV<lambda_dfb8eca1e75fef3034a8fb18dd509707>@@@Z@4HA 000000018002079b f   libucrt:per_thread_data.obj
 0001:0001f79b       ?fin$0@?0???$?RV<lambda_c36588078e9f5dfd39652860aa6b3aaf>@@AEAV<lambda_ec61778202f4f5fc7e7711acc23c3bca>@@V<lambda_dc9d2797ccde5d239b4a0efae8ebd7db>@@@?$__crt_seh_guarded_call@P6AXH@Z@@QEAAP6AXH@Z$$QEAV<lambda_c36588078e9f5dfd39652860aa6b3aaf>@@AEAV<lambda_ec61778202f4f5fc7e7711acc23c3bca>@@$$QEAV<lambda_dc9d2797ccde5d239b4a0efae8ebd7db>@@@Z@4HA 000000018002079b f   libucrt:signal.obj
 0001:0001f79b       ?fin$0@?0???$?RV<lambda_72d1df2b273a38828b1ce30cbf4cdab5>@@AEAV<lambda_876a65b173b8412d3a47c70a915b0cf4>@@V<lambda_41932305e351933ebe8f8be3ed8bb5dc>@@@?$__crt_seh_guarded_call@X@@QEAAX$$QEAV<lambda_72d1df2b273a38828b1ce30cbf4cdab5>@@AEAV<lambda_876a65b173b8412d3a47c70a915b0cf4>@@$$QEAV<lambda_41932305e351933ebe8f8be3ed8bb5dc>@@@Z@4HA 000000018002079b f   libucrt:per_thread_data.obj
 0001:0001f79b       ?fin$0@?0???$?RV<lambda_5e887d1dcbef67a5eb4283622ba103bf>@@AEAV<lambda_4466841279450cc726390878d4a41900>@@V<lambda_341c25c0346d94847f1f3c463c57e077>@@@?$__crt_seh_guarded_call@X@@QEAAX$$QEAV<lambda_5e887d1dcbef67a5eb4283622ba103bf>@@AEAV<lambda_4466841279450cc726390878d4a41900>@@$$QEAV<lambda_341c25c0346d94847f1f3c463c57e077>@@@Z@4HA 000000018002079b f   libucrt:per_thread_data.obj
 0001:0001f79b       ?fin$0@?0???$?RV<lambda_46352004c1216016012b18bd6f87e700>@@AEAV<lambda_3bd07e1a1191394380780325891bf33f>@@V<lambda_334532d3f185bcaa59b5be82d7d22bff>@@@?$__crt_seh_guarded_call@X@@QEAAX$$QEAV<lambda_46352004c1216016012b18bd6f87e700>@@AEAV<lambda_3bd07e1a1191394380780325891bf33f>@@$$QEAV<lambda_334532d3f185bcaa59b5be82d7d22bff>@@@Z@4HA 000000018002079b f   libucrt:per_thread_data.obj
 0001:0001f79b       ?fin$0@?0???$?RV<lambda_99476a1ad63dd22509b5d3e65b0ffc95>@@AEAV<lambda_ad1ced32f4ac17aa236e5ef05d6b3b7c>@@V<lambda_f7424dd8d45958661754dc4f2697e9c3>@@@?$__crt_seh_guarded_call@X@@QEAAX$$QEAV<lambda_99476a1ad63dd22509b5d3e65b0ffc95>@@AEAV<lambda_ad1ced32f4ac17aa236e5ef05d6b3b7c>@@$$QEAV<lambda_f7424dd8d45958661754dc4f2697e9c3>@@@Z@4HA 000000018002079b f   libucrt:mbctype.obj
 0001:0001f79b       ?fin$0@?0???$?RV<lambda_b8c45f8f788dd370798f47cfe8ac3a86>@@AEAV<lambda_4e60a939b0d047cfe11ddc22648dfba9>@@V<lambda_332c3edc96d0294ec56c57d38c1cdfd5>@@@?$__crt_seh_guarded_call@H@@QEAAH$$QEAV<lambda_b8c45f8f788dd370798f47cfe8ac3a86>@@AEAV<lambda_4e60a939b0d047cfe11ddc22648dfba9>@@$$QEAV<lambda_332c3edc96d0294ec56c57d38c1cdfd5>@@@Z@4HA 000000018002079b f   libucrt:onexit.obj
 0001:0001f7b5       ?fin$0@?0???$?RV<lambda_e24bbb7b643b32fcea6fa61b31d4c984>@@AEAV<lambda_275893d493268fdec8709772e3fcec0e>@@V<lambda_9d71df4d7cf3f480f8d633942495c3b0>@@@?$__crt_seh_guarded_call@H@@QEAAH$$QEAV<lambda_e24bbb7b643b32fcea6fa61b31d4c984>@@AEAV<lambda_275893d493268fdec8709772e3fcec0e>@@$$QEAV<lambda_9d71df4d7cf3f480f8d633942495c3b0>@@@Z@4HA 00000001800207b5 f   libucrt:onexit.obj
 0001:0001f7d2       __acrt_lowio_ensure_fh_exists$fin$0 00000001800207d2 f   libucrt:osfinfo.obj
 0001:0001f7d2       __acrt_initialize_lowio$fin$0 00000001800207d2 f   libucrt:ioinit.obj
 0001:0001f7eb       common_flush_all$fin$0     00000001800207eb f   libucrt:fflush.obj
 0001:0001f805       common_flush_all$fin$1     0000000180020805 f   libucrt:fflush.obj
 0001:0001f81e       fflush$fin$0               000000018002081e f   libucrt:fflush.obj
 0001:0001f81e       fclose$fin$0               000000018002081e f   libucrt:fclose.obj
 0001:0001f836       ?fin$0@?0???$?RV<lambda_7a5ef57ff966f610505f1d28a3d40618>@@AEAV<lambda_b721fa326cdb32351d23dfa67958c160>@@V<lambda_5e0fb27672408a07956fe59e48ccb2aa>@@@?$__crt_seh_guarded_call@H@@QEAAH$$QEAV<lambda_7a5ef57ff966f610505f1d28a3d40618>@@AEAV<lambda_b721fa326cdb32351d23dfa67958c160>@@$$QEAV<lambda_5e0fb27672408a07956fe59e48ccb2aa>@@@Z@4HA 0000000180020836 f   libucrt:setvbuf.obj
 0001:0001f836       ?fin$0@?0???$?RV<lambda_7b91131dde12e1c3dfc74ff76b3f2eac>@@AEAV<lambda_dd75445284c072d0bd3768540cc698fa>@@V<lambda_16bc4ecb55b4718497c16bceaea2ceaf>@@@?$__crt_seh_guarded_call@H@@QEAAH$$QEAV<lambda_7b91131dde12e1c3dfc74ff76b3f2eac>@@AEAV<lambda_dd75445284c072d0bd3768540cc698fa>@@$$QEAV<lambda_16bc4ecb55b4718497c16bceaea2ceaf>@@@Z@4HA 0000000180020836 f   libucrt:output.obj
 0001:0001f851       raise$fin$0                0000000180020851 f   libucrt:signal.obj
 0001:0001f875       __acrt_update_thread_multibyte_data$fin$0 0000000180020875 f   libucrt:mbctype.obj
 0001:0001f88e       __acrt_update_thread_locale_data$fin$0 000000018002088e f   libucrt:locale_refcounting.obj
 0001:0001f88e       __acrt_uninitialize_locale$fin$0 000000018002088e f   libucrt:wsetlocale.obj
 0001:0001f8a7       _fcloseall$fin$0           00000001800208a7 f   libucrt:closeall.obj
 0001:0001f8c0       ?fin$0@?0???$?RV<lambda_b521505b218e5242e90febf6bfebc422>@@AEAV<lambda_6978c1fb23f02e42e1d9e99668cc68aa>@@V<lambda_314360699dd331753a4119843814e9a7>@@@?$__crt_seh_guarded_call@H@@QEAAH$$QEAV<lambda_b521505b218e5242e90febf6bfebc422>@@AEAV<lambda_6978c1fb23f02e42e1d9e99668cc68aa>@@$$QEAV<lambda_314360699dd331753a4119843814e9a7>@@@Z@4HA 00000001800208c0 f   libucrt:commit.obj
 0001:0001f8c0       ?fin$0@?0???$?RV<lambda_bfedae4ebbf01fab1bb6dcc6a9e276e0>@@AEAV<lambda_2fe9b910cf3cbf4a0ab98a02ba45b3ec>@@V<lambda_237c231691f317818eb88cc1d5d642d6>@@@?$__crt_seh_guarded_call@H@@QEAAH$$QEAV<lambda_bfedae4ebbf01fab1bb6dcc6a9e276e0>@@AEAV<lambda_2fe9b910cf3cbf4a0ab98a02ba45b3ec>@@$$QEAV<lambda_237c231691f317818eb88cc1d5d642d6>@@@Z@4HA 00000001800208c0 f   libucrt:close.obj
 0001:0001f8da       _write$fin$0               00000001800208da f   libucrt:write.obj
 0001:0001f8da       ?fin$0@?0???$common_lseek@_J@@YA_JH_JH@Z@4HA 00000001800208da f   libucrt:lseek.obj
 0001:0001f8f1       _ctrlfp$filt$0             00000001800208f1 f   libucrt:fpctrl.obj
 0001:0001f8f1       common_control87$filt$0    00000001800208f1 f   libucrt:ieee.obj
 0001:0001f920       _IsNonwritableInCurrentImage$filt$0 0000000180020920 f   LIBCMT:pesect.obj
 0001:0001f940       ??__Fopts_int@zmq@@YAXXZ   0000000180020940 f   binding.obj
 0001:0001f990       ??__Fopts_uint32@zmq@@YAXXZ 0000000180020990 f   binding.obj
 0001:0001f9e0       ??__Fopts_int64@zmq@@YAXXZ 00000001800209e0 f   binding.obj
 0001:0001fa30       ??__Fopts_uint64@zmq@@YAXXZ 0000000180020a30 f   binding.obj
 0001:0001fa80       ??__Fopts_binary@zmq@@YAXXZ 0000000180020a80 f   binding.obj
 0001:0001fad0       ??__Fcallback_symbol@zmq@@YAXXZ 0000000180020ad0 f   binding.obj
 0001:0001fae0       ??__Fmonitor_symbol@zmq@@YAXXZ 0000000180020ae0 f   binding.obj
 0001:0001faf0       ??__Fmonitor_error@zmq@@YAXXZ 0000000180020af0 f   binding.obj
 0002:00000288       ?monitor_symbol$initializer$@zmq@@3P6AXXZEA 0000000180021288     binding.obj
 0002:00000290       ?monitor_error$initializer$@zmq@@3P6AXXZEA 0000000180021290     binding.obj
 0002:00000298       ?callback_symbol$initializer$@zmq@@3P6AXXZEA 0000000180021298     binding.obj
 0002:000002a0       ?opts_int64$initializer$@zmq@@3P6AXXZEA 00000001800212a0     binding.obj
 0002:000002a8       ?opts_uint32$initializer$@zmq@@3P6AXXZEA 00000001800212a8     binding.obj
 0002:000002b0       ?opts_int$initializer$@zmq@@3P6AXXZEA 00000001800212b0     binding.obj
 0002:000002b8       ?opts_uint64$initializer$@zmq@@3P6AXXZEA 00000001800212b8     binding.obj
 0002:000002c0       ?opts_binary$initializer$@zmq@@3P6AXXZEA 00000001800212c0     binding.obj
 0002:00000460       GS_ExceptionPointers       0000000180021460     LIBCMT:gs_report.obj
 0002:00000560       ?ExceptionTemplate@?1??_CxxThrowException@@9@4UEHExceptionRecord@@B 0000000180021560     libvcruntime:throw.obj
 0002:000005d0       ?module_names@?A0x61ce2399@@3QBQEB_WB 00000001800215d0     libvcruntime:winapi_downlevel.obj
 0002:0000069c       ?candidate_modules@?1??try_get_EventRegister@@YAP6AKPEBU_GUID@@P6AX0KE_K1PEAU_EVENT_FILTER_DESCRIPTOR@@PEAX@Z3PEA_K@ZXZ@4QBW4module_id@?A0x61ce2399@@B 000000018002169c     libvcruntime:winapi_downlevel.obj
 0002:000006b0       ?candidate_modules@?1??try_get_EventSetInformation@@YAP6AK_KW4_EVENT_INFO_CLASS@@PEAXK@ZXZ@4QBW4module_id@?A0x61ce2399@@B 00000001800216b0     libvcruntime:winapi_downlevel.obj
 0002:000006cc       ?candidate_modules@?1??try_get_EventUnregister@@YAP6AK_K@ZXZ@4QBW4module_id@?A0x61ce2399@@B 00000001800216cc     libvcruntime:winapi_downlevel.obj
 0002:000006e0       ?candidate_modules@?1??try_get_EventWriteTransfer@@YAP6AK_KPEBU_EVENT_DESCRIPTOR@@PEBU_GUID@@2KPEAU_EVENT_DATA_DESCRIPTOR@@@ZXZ@4QBW4module_id@?A0x61ce2399@@B 00000001800216e0     libvcruntime:winapi_downlevel.obj
 0002:00000700       ?candidate_modules@?1??try_get_FlsAlloc@@YAP6AKP6AXPEAX@Z@ZXZ@4QBW4module_id@?A0x61ce2399@@B 0000000180021700     libvcruntime:winapi_downlevel.obj
 0002:00000718       ?candidate_modules@?1??try_get_FlsFree@@YAP6AHK@ZXZ@4QBW4module_id@?A0x61ce2399@@B 0000000180021718     libvcruntime:winapi_downlevel.obj
 0002:00000728       ?candidate_modules@?1??try_get_FlsGetValue@@YAP6APEAXK@ZXZ@4QBW4module_id@?A0x61ce2399@@B 0000000180021728     libvcruntime:winapi_downlevel.obj
 0002:00000740       ?candidate_modules@?1??try_get_FlsSetValue@@YAP6AHKPEAX@ZXZ@4QBW4module_id@?A0x61ce2399@@B 0000000180021740     libvcruntime:winapi_downlevel.obj
 0002:00000758       ?candidate_modules@?1??try_get_InitializeCriticalSectionEx@@YAP6AHPEAU_RTL_CRITICAL_SECTION@@KK@ZXZ@4QBW4module_id@?A0x61ce2399@@B 0000000180021758     libvcruntime:winapi_downlevel.obj
 0002:00000c40       ?rttiTable@@3QBQEBDB       0000000180021c40     libvcruntime:undname.obj
 0002:00000c70       ?tokenTable@@3QBQEBDB      0000000180021c70     libvcruntime:undname.obj
 0002:00000ce0       ?nameTable@@3QBQEBDB       0000000180021ce0     libvcruntime:undname.obj
 0002:000015c0       __acrt_initializers        00000001800225c0     libucrt:initialization.obj
 0002:000016b0       errtable                   00000001800226b0     libucrt:errno.obj
 0002:00001ef0       module_names               0000000180022ef0     libucrt:winapi_thunks.obj
 0002:00002420       ?candidate_modules@?1??try_get_FlsAlloc@@YAP6AKP6AXPEAX@Z@ZXZ@4QBW4module_id@?A0x63058377@@B 0000000180023420     libucrt:winapi_thunks.obj
 0002:00002428       ?candidate_modules@?1??try_get_FlsFree@@YAP6AHK@ZXZ@4QBW4module_id@?A0x63058377@@B 0000000180023428     libucrt:winapi_thunks.obj
 0002:00002430       ?candidate_modules@?1??try_get_FlsGetValue@@YAP6APEAXK@ZXZ@4QBW4module_id@?A0x63058377@@B 0000000180023430     libucrt:winapi_thunks.obj
 0002:00002438       ?candidate_modules@?1??try_get_FlsSetValue@@YAP6AHKPEAX@ZXZ@4QBW4module_id@?A0x63058377@@B 0000000180023438     libucrt:winapi_thunks.obj
 0002:00002440       ?candidate_modules@?1??try_get_GetActiveWindow@@YAP6APEAUHWND__@@XZXZ@4QBW4module_id@?A0x63058377@@B 0000000180023440     libucrt:winapi_thunks.obj
 0002:00002458       ?candidate_modules@?1??try_get_GetCurrentPackageId@@YAP6AJPEAIPEAE@ZXZ@4QBW4module_id@?A0x63058377@@B 0000000180023458     libucrt:winapi_thunks.obj
 0002:00002478       ?candidate_modules@?1??try_get_GetLastActivePopup@@YAP6APEAUHWND__@@PEAU2@@ZXZ@4QBW4module_id@?A0x63058377@@B 0000000180023478     libucrt:winapi_thunks.obj
 0002:00002498       ?candidate_modules@?1??try_get_GetProcessWindowStation@@YAP6APEAUHWINSTA__@@XZXZ@4QBW4module_id@?A0x63058377@@B 0000000180023498     libucrt:winapi_thunks.obj
 0002:000024b8       ?candidate_modules@?1??try_get_GetUserObjectInformationW@@YAP6AHPEAXH0KPEAK@ZXZ@4QBW4module_id@?A0x63058377@@B 00000001800234b8     libucrt:winapi_thunks.obj
 0002:000024e0       ?candidate_modules@?1??try_get_InitializeCriticalSectionEx@@YAP6AHPEAU_RTL_CRITICAL_SECTION@@KK@ZXZ@4QBW4module_id@?A0x63058377@@B 00000001800234e0     libucrt:winapi_thunks.obj
 0002:000024e8       ?candidate_modules@?1??try_get_LCMapStringEx@@YAP6AHPEB_WK0HPEA_WHPEAU_nlsversioninfo@@PEAX_J@ZXZ@4QBW4module_id@?A0x63058377@@B 00000001800234e8     libucrt:winapi_thunks.obj
 0002:00002500       ?candidate_modules@?1??try_get_LocaleNameToLCID@@YAP6AKPEB_WK@ZXZ@4QBW4module_id@?A0x63058377@@B 0000000180023500     libucrt:winapi_thunks.obj
 0002:00002520       ?candidate_modules@?1??try_get_MessageBoxA@@YAP6AHPEAUHWND__@@PEBD1I@ZXZ@4QBW4module_id@?A0x63058377@@B 0000000180023520     libucrt:winapi_thunks.obj
 0002:00002538       ?candidate_modules@?1??try_get_MessageBoxW@@YAP6AHPEAUHWND__@@PEB_W1I@ZXZ@4QBW4module_id@?A0x63058377@@B 0000000180023538     libucrt:winapi_thunks.obj
 0002:00002550       _mb_locale_names           0000000180023550     libucrt:mbctype.obj
 0002:000037c0       LcidToLocaleNameTable      00000001800247c0     libucrt:lcidtoname_downlevel.obj
 0002:00005210       LocaleNameToIndexTable     0000000180026210     libucrt:lcidtoname_downlevel.obj
 0002:00006ab0       __real_ninf                0000000180027ab0     libucrt:log10.obj
 0002:00006ac0       __real_inf                 0000000180027ac0     libucrt:log10.obj
 0002:00006ad0       __real_neg_qnan            0000000180027ad0     libucrt:log10.obj
 0002:00006ae0       __real_qnanbit             0000000180027ae0     libucrt:log10.obj
 0002:00006af0       __int_1023                 0000000180027af0     libucrt:log10.obj
 0002:00006b00       __mask_001                 0000000180027b00     libucrt:log10.obj
 0002:00006b10       __mask_mant                0000000180027b10     libucrt:log10.obj
 0002:00006b20       __mask_mant_top8           0000000180027b20     libucrt:log10.obj
 0002:00006b30       __mask_mant9               0000000180027b30     libucrt:log10.obj
 0002:00006b40       __real_log10_e             0000000180027b40     libucrt:log10.obj
 0002:00006b50       __real_log10_e_lead        0000000180027b50     libucrt:log10.obj
 0002:00006b60       __real_log10_e_tail        0000000180027b60     libucrt:log10.obj
 0002:00006b70       __real_log10_2_lead        0000000180027b70     libucrt:log10.obj
 0002:00006b80       __real_log10_2_tail        0000000180027b80     libucrt:log10.obj
 0002:00006b90       __real_two                 0000000180027b90     libucrt:log10.obj
 0002:00006ba0       __real_one                 0000000180027ba0     libucrt:log10.obj
 0002:00006bb0       __real_half                0000000180027bb0     libucrt:log10.obj
 0002:00006bc0       __mask_100                 0000000180027bc0     libucrt:log10.obj
 0002:00006bd0       __real_1_over_512          0000000180027bd0     libucrt:log10.obj
 0002:00006be0       __real_1_over_2            0000000180027be0     libucrt:log10.obj
 0002:00006bf0       __real_1_over_3            0000000180027bf0     libucrt:log10.obj
 0002:00006c00       __real_1_over_4            0000000180027c00     libucrt:log10.obj
 0002:00006c10       __real_1_over_5            0000000180027c10     libucrt:log10.obj
 0002:00006c20       __real_1_over_6            0000000180027c20     libucrt:log10.obj
 0002:00006c30       __real_neg_1023            0000000180027c30     libucrt:log10.obj
 0002:00006c40       __mask_2045                0000000180027c40     libucrt:log10.obj
 0002:00006c50       __real_threshold           0000000180027c50     libucrt:log10.obj
 0002:00006c60       __real_near_one_lt         0000000180027c60     libucrt:log10.obj
 0002:00006c70       __real_near_one_gt         0000000180027c70     libucrt:log10.obj
 0002:00006c80       __real_min_norm            0000000180027c80     libucrt:log10.obj
 0002:00006c90       __real_notsign             0000000180027c90     libucrt:log10.obj
 0002:00006ca0       __real_ca1                 0000000180027ca0     libucrt:log10.obj
 0002:00006cb0       __real_ca2                 0000000180027cb0     libucrt:log10.obj
 0002:00006cc0       __real_ca3                 0000000180027cc0     libucrt:log10.obj
 0002:00006cd0       __real_ca4                 0000000180027cd0     libucrt:log10.obj
 0002:00006ce0       __mask_lower               0000000180027ce0     libucrt:log10.obj
 0002:00006cf0       __flag_x_zero              0000000180027cf0     libucrt:log10.obj
 0002:00006cf4       __flag_x_neg               0000000180027cf4     libucrt:log10.obj
 0002:00006cf8       __flag_x_nan               0000000180027cf8     libucrt:log10.obj
 0002:00008550       __real@433fffffffffffff    0000000180029550     libucrt:fpsr.obj
 0002:00008558       __real@c33fffffffffffff    0000000180029558     libucrt:fpsr.obj
 0002:000096b8       ?_TlgEvent@?3??__telemetry_main_invoke_trigger@@9@4U<unnamed-type-_TlgEvent>@?3??1@YAXQEAUHINSTANCE__@@@Z@B 000000018002a6b8     libvcruntime:telemetry.obj
 0002:000096f4       ?_TlgEvent@?3??__telemetry_main_return_trigger@@9@4U<unnamed-type-_TlgEvent>@?3??1@YAXQEAUHINSTANCE__@@@Z@B 000000018002a6f4     libvcruntime:telemetry.obj
 0002:0000972f       ?_Tlg_Microsoft_CRTProviderProv_Meta@@3U<unnamed-type-_Tlg_Microsoft_CRTProviderProv_Meta>@@B 000000018002a72f     libvcruntime:telemetry.obj
 0002:00009bf8       $unwind$fwprintf           000000018002abf8     libucrt:assert.obj
 0002:00009bf8       $unwind$sprintf            000000018002abf8     binding.obj
 0002:00009c04       $unwind$??1Socket@zmq@@UEAA@XZ 000000018002ac04     binding.obj
 0002:00009c04       $unwind$__scrt_uninitialize_crt 000000018002ac04     LIBCMT:utility.obj
 0002:00009c04       $unwind$_onexit            000000018002ac04     LIBCMT:utility.obj
 0002:00009c04       $unwind$__acrt_stdio_free_buffer_nolock 000000018002ac04     libucrt:_freebuf.obj
 0002:00009c04       $unwind$__acrt_stdio_allocate_buffer_nolock 000000018002ac04     libucrt:_getbuf.obj
 0002:00009c04       $unwind$uninitialize_allocated_memory 000000018002ac04     libucrt:initialization.obj
 0002:00009c04       $unwind$__std_exception_destroy 000000018002ac04     libvcruntime:std_exception.obj
 0002:00009c04       $unwind$strcpy_s           000000018002ac04     libucrt:strcpy_s.obj
 0002:00009c04       $unwind$__std_type_info_destroy_list 000000018002ac04     libvcruntime:std_type_info.obj
 0002:00009c04       $unwind$__acrt_uninitialize_stdio 000000018002ac04     libucrt:_file.obj
 0002:00009c04       $unwind$__vcrt_uninitialize 000000018002ac04     libvcruntime:initialization.obj
 0002:00009c04       $unwind$wcscat_s           000000018002ac04     libucrt:wcscat_s.obj
 0002:00009c04       $unwind$??_Gexception@stdext@@UEAAPEAXI@Z 000000018002ac04     binding.obj
 0002:00009c04       $unwind$wcscpy_s           000000018002ac04     libucrt:wcscpy_s.obj
 0002:00009c04       $unwind$__vcrt_initialize_locks 000000018002ac04     libvcruntime:locks.obj
 0002:00009c04       $unwind$fegetenv           000000018002ac04     libucrt:fegetenv.obj
 0002:00009c04       $unwind$__vcrt_uninitialize_locks 000000018002ac04     libvcruntime:locks.obj
 0002:00009c04       $unwind$feholdexcept       000000018002ac04     libucrt:feholdexcept.obj
 0002:00009c04       $unwind$fesetenv           000000018002ac04     libucrt:fesetenv.obj
 0002:00009c04       $unwind$__vcrt_freeptd     000000018002ac04     libvcruntime:per_thread_data.obj
 0002:00009c04       $unwind$__scrt_initialize_crt 000000018002ac04     LIBCMT:utility.obj
 0002:00009c04       $unwind$??_EPersistentHandleVisitor@v8@@UEAAPEAXI@Z 000000018002ac04     binding.obj
 0002:00009c04       $unwind$?Ref@ObjectWrap@Nan@@MEAAXXZ 000000018002ac04     binding.obj
 0002:00009c04       $unwind$__acrt_update_locale_info 000000018002ac04     libucrt:locale_update.obj
 0002:00009c04       $unwind$?GetSocket@Socket@zmq@@CAPEAV12@AEBV?$FunctionCallbackInfo@VValue@v8@@@Nan@@@Z 000000018002ac04     binding.obj
 0002:00009c04       $unwind$??_EExternalSourceStream@ScriptCompiler@v8@@UEAAPEAXI@Z 000000018002ac04     binding.obj
 0002:00009c04       $unwind$__acrt_freeptd     000000018002ac04     libucrt:per_thread_data.obj
 0002:00009c04       $unwind$__acrt_uninitialize_winapi_thunks 000000018002ac04     libucrt:winapi_thunks.obj
 0002:00009c04       $unwind$_fflush_nolock     000000018002ac04     libucrt:fflush.obj
 0002:00009c04       $unwind$??$message_box_wait_thread@_W@@YAKQEAX@Z 000000018002ac04     libucrt:crtmbox.obj
 0002:00009c04       $unwind$__scrt_release_startup_lock 000000018002ac04     LIBCMT:utility.obj
 0002:00009c04       $unwind$??0Scope@Isolate@v8@@QEAA@PEAV12@@Z 000000018002ac04     binding.obj
 0002:00009c04       $unwind$??2@YAPEAX_K@Z     000000018002ac04     LIBCMT:new_scalar.obj
 0002:00009c04       $unwind$??0Unlocker@v8@@QEAA@PEAVIsolate@1@@Z 000000018002ac04     binding.obj
 0002:00009c04       $unwind$?Unref@ObjectWrap@Nan@@MEAAXXZ 000000018002ac04     binding.obj
 0002:00009c04       $unwind$??0Locker@v8@@QEAA@PEAVIsolate@1@@Z 000000018002ac04     binding.obj
 0002:00009c04       $unwind$?WeakCallback@ObjectWrap@Nan@@CAXAEBV?$WeakCallbackInfo@VObjectWrap@Nan@@@v8@@@Z 000000018002ac04     binding.obj
 0002:00009c04       $unwind$??_Gtype_info@@UEAAPEAXI@Z 000000018002ac04     LIBCMT:std_type_info_static.obj
 0002:00009c04       $unwind$?GetInternalField@Object@v8@@QEAA?AV?$Local@VValue@v8@@@2@H@Z 000000018002ac04     binding.obj
 0002:00009c04       $unwind$??_EExternalResourceVisitor@v8@@UEAAPEAXI@Z 000000018002ac04     binding.obj
 0002:00009c04       $unwind$__raise_securityfailure 000000018002ac04     LIBCMT:gs_report.obj
 0002:00009c04       $unwind$??0?$output_processor@_WV?$stream_output_adapter@_W@__crt_stdio_output@@V?$standard_base@_WV?$stream_output_adapter@_W@__crt_stdio_output@@@2@@__crt_stdio_output@@QEAA@AEBV?$stream_output_adapter@_W@1@_KQEB_WQEAU__crt_locale_pointers@@QEAD@Z 000000018002ac04     libucrt:output.obj
 0002:00009c04       $unwind$??_EExtension@v8@@UEAAPEAXI@Z 000000018002ac04     binding.obj
 0002:00009c04       $unwind$??0length_error@std@@QEAA@AEBV01@@Z 000000018002ac04     libcpmt:xthrow.obj
 0002:00009c04       $unwind$??_EExternalOneByteStringResourceImpl@v8@@UEAAPEAXI@Z 000000018002ac04     binding.obj
 0002:00009c04       $unwind$??0logic_error@std@@QEAA@AEBV01@@Z 000000018002ac04     libcpmt:xthrow.obj
 0002:00009c04       $unwind$?type_case_integer@?$output_processor@DV?$string_output_adapter@D@__crt_stdio_output@@V?$format_validation_base@DV?$string_output_adapter@D@__crt_stdio_output@@@2@@__crt_stdio_output@@AEAA_NI_N@Z 000000018002ac04     libucrt:output.obj
 0002:00009c04       $unwind$??0bad_alloc@std@@QEAA@AEBV01@@Z 000000018002ac04     libcpmt:xthrow.obj
 0002:00009c04       $unwind$?GetContext@Context@zmq@@CAPEAV12@AEBV?$FunctionCallbackInfo@VValue@v8@@@Nan@@@Z 000000018002ac04     binding.obj
 0002:00009c04       $unwind$??0exception@std@@QEAA@AEBV01@@Z 000000018002ac04     libcpmt:xthrow.obj
 0002:00009c04       $unwind$?type_case_integer@?$output_processor@_WV?$stream_output_adapter@_W@__crt_stdio_output@@V?$standard_base@_WV?$stream_output_adapter@_W@__crt_stdio_output@@@2@@__crt_stdio_output@@AEAA_NI_N@Z 000000018002ac04     libucrt:output.obj
 0002:00009c04       $unwind$??_EExternalOneByteStringResource@String@v8@@UEAAPEAXI@Z 000000018002ac04     binding.obj
 0002:00009c04       $unwind$?Unmonitor@Socket@zmq@@CAXAEBV?$FunctionCallbackInfo@VValue@v8@@@Nan@@@Z 000000018002ac04     binding.obj
 0002:00009c04       $unwind$?GetEmbedderData@Context@v8@@QEAA?AV?$Local@VValue@v8@@@2@H@Z 000000018002ac04     binding.obj
 0002:00009c04       $unwind$?SetAllowCodeGenerationFromStringsCallback@V8@v8@@SAXP6A_NV?$Local@VContext@v8@@@2@@Z@Z 000000018002ac04     binding.obj
 0002:00009c04       $unwind$??0?$output_processor@DV?$string_output_adapter@D@__crt_stdio_output@@V?$standard_base@DV?$string_output_adapter@D@__crt_stdio_output@@@2@@__crt_stdio_output@@QEAA@AEBV?$string_output_adapter@D@1@_KQEBDQEAU__crt_locale_pointers@@QEAD@Z 000000018002ac04     libucrt:output.obj
 0002:00009c04       $unwind$?RemoveMessageListeners@V8@v8@@SAXP6AXV?$Local@VMessage@v8@@@2@V?$Local@VValue@v8@@@2@@Z@Z 000000018002ac04     binding.obj
 0002:00009c04       $unwind$??_EAllocator@ArrayBuffer@v8@@UEAAPEAXI@Z 000000018002ac04     binding.obj
 0002:00009c04       $unwind$?SetFailedAccessCheckCallbackFunction@V8@v8@@SAXP6AXV?$Local@VObject@v8@@@2@W4AccessType@2@V?$Local@VValue@v8@@@2@@Z@Z 000000018002ac04     binding.obj
 0002:00009c04       $unwind$?state_case_normal@?$output_processor@DV?$string_output_adapter@D@__crt_stdio_output@@V?$format_validation_base@DV?$string_output_adapter@D@__crt_stdio_output@@@2@@__crt_stdio_output@@AEAA_NXZ 000000018002ac04     libucrt:output.obj
 0002:00009c04       $unwind$?state_case_normal@?$output_processor@DV?$string_output_adapter@D@__crt_stdio_output@@V?$standard_base@DV?$string_output_adapter@D@__crt_stdio_output@@@2@@__crt_stdio_output@@AEAA_NXZ 000000018002ac04     libucrt:output.obj
 0002:00009c04       $unwind$?SetFatalErrorHandler@V8@v8@@SAXP6AXPEBD0@Z@Z 000000018002ac04     binding.obj
 0002:00009c04       $unwind$__acrt_update_multibyte_info 000000018002ac04     libucrt:locale_update.obj
 0002:00009c04       $unwind$??0bad_array_new_length@std@@QEAA@AEBV01@@Z 000000018002ac04     LIBCMT:throw_bad_alloc.obj
 0002:00009c04       $unwind$_malloc_base       000000018002ac04     libucrt:malloc_base.obj
 0002:00009c04       $unwind$??_Gruntime_error@std@@UEAAPEAXI@Z 000000018002ac04     binding.obj
 0002:00009c04       $unwind$_setfpstatusword   000000018002ac04     libucrt:_fenvutils.obj
 0002:00009c04       $unwind$?exit_or_terminate_process@@YAXI@Z 000000018002ac04     libucrt:exit.obj
 0002:00009c04       $unwind$?RemoveGCPrologueCallback@V8@v8@@SAXP6AXW4GCType@2@W4GCCallbackFlags@2@@Z@Z 000000018002ac04     binding.obj
 0002:00009c04       $unwind$??0?$output_processor@DV?$string_output_adapter@D@__crt_stdio_output@@V?$format_validation_base@DV?$string_output_adapter@D@__crt_stdio_output@@@2@@__crt_stdio_output@@QEAA@AEBV?$string_output_adapter@D@1@_KQEBDQEAU__crt_locale_pointers@@QEAD@Z 000000018002ac04     libucrt:output.obj
 0002:00009c04       $unwind$__acrt_uninitialize_locks 000000018002ac04     libucrt:locks.obj
 0002:00009c04       $unwind$?RemoveGCEpilogueCallback@V8@v8@@SAXP6AXW4GCType@2@W4GCCallbackFlags@2@@Z@Z 000000018002ac04     binding.obj
 0002:00009c04       $unwind$?RemoveMemoryAllocationCallback@V8@v8@@SAXP6AXW4ObjectSpace@2@W4AllocationAction@2@H@Z@Z 000000018002ac04     binding.obj
 0002:00009c04       $unwind$?UV_UnbindAsync@Socket@zmq@@CAXPEAUuv_work_s@@@Z 000000018002ac04     binding.obj
 0002:00009c04       $unwind$?VisitExternalResources@V8@v8@@SAXPEAVExternalResourceVisitor@2@@Z 000000018002ac04     binding.obj
 0002:00009c04       $unwind$__acrt_initialize_locks 000000018002ac04     libucrt:locks.obj
 0002:00009c04       $unwind$_calloc_base       000000018002ac04     libucrt:calloc_base.obj
 0002:00009c04       $unwind$?VisitHandlesWithClassIds@V8@v8@@SAXPEAVPersistentHandleVisitor@2@@Z 000000018002ac04     binding.obj
 0002:00009c04       $unwind$?type_case_integer@?$output_processor@DV?$string_output_adapter@D@__crt_stdio_output@@V?$standard_base@DV?$string_output_adapter@D@__crt_stdio_output@@@2@@__crt_stdio_output@@AEAA_NI_N@Z 000000018002ac04     libucrt:output.obj
 0002:00009c04       $unwind$__acrt_can_show_message_box 000000018002ac04     libucrt:winapi_thunks.obj
 0002:00009c04       $unwind$__acrt_fp_strflt_to_string 000000018002ac04     libucrt:_fptostr.obj
 0002:00009c04       $unwind$??0?$output_processor@_WV?$string_output_adapter@_W@__crt_stdio_output@@V?$standard_base@_WV?$string_output_adapter@_W@__crt_stdio_output@@@2@@__crt_stdio_output@@QEAA@AEBV?$string_output_adapter@_W@1@_KQEB_WQEAU__crt_locale_pointers@@QEAD@Z 000000018002ac04     libucrt:output.obj
 0002:00009c04       $unwind$_set_statfp        000000018002ac04     libucrt:fpctrl.obj
 0002:00009c04       $unwind$??_EExternalStringResourceBase@String@v8@@UEAAPEAXI@Z 000000018002ac04     binding.obj
 0002:00009c04       $unwind$_purecall          000000018002ac04     libvcruntime:purevirt.obj
 0002:00009c04       $unwind$load_exe_hook      000000018002ac04     win_delay_load_hook.obj
 0002:00009c04       $unwind$_clrfp             000000018002ac04     libucrt:fpctrl.obj
 0002:00009c04       $unwind$?UV_BindAsync@Socket@zmq@@CAXPEAUuv_work_s@@@Z 000000018002ac04     binding.obj
 0002:00009c04       $unwind$_clearfp           000000018002ac04     libucrt:ieee.obj
 0002:00009c04       $unwind$?type_case_integer@?$output_processor@_WV?$string_output_adapter@_W@__crt_stdio_output@@V?$standard_base@_WV?$string_output_adapter@_W@__crt_stdio_output@@@2@@__crt_stdio_output@@AEAA_NI_N@Z 000000018002ac04     libucrt:output.obj
 0002:00009c04       $unwind$??_EExternalStringResource@String@v8@@UEAAPEAXI@Z 000000018002ac04     binding.obj
 0002:00009c04       $unwind$initialize_pointers 000000018002ac04     libucrt:initialization.obj
 0002:00009c04       $unwind$?DloadReleaseSectionWriteAccess@@YAXXZ 000000018002ac04     DelayImp:delayhlp.obj
 0002:00009c0c       $chain$0$??_EExternalSourceStream@ScriptCompiler@v8@@UEAAPEAXI@Z 000000018002ac0c     binding.obj
 0002:00009c20       $chain$1$??_EExternalSourceStream@ScriptCompiler@v8@@UEAAPEAXI@Z 000000018002ac20     binding.obj
 0002:00009c30       $unwind$??0length_error@std@@QEAA@PEBD@Z 000000018002ac30     libcpmt:xthrow.obj
 0002:00009c30       $unwind$wcstol             000000018002ac30     libucrt:strtox.obj
 0002:00009c30       $unwind$??1Context@zmq@@UEAA@XZ 000000018002ac30     binding.obj
 0002:00009c30       $unwind$strtol             000000018002ac30     libucrt:strtox.obj
 0002:00009c30       $unwind$?Close@Context@zmq@@CAXAEBV?$FunctionCallbackInfo@VValue@v8@@@Nan@@@Z 000000018002ac30     binding.obj
 0002:00009c30       $unwind$?NewInstance@Function@v8@@QEBA?AV?$MaybeLocal@VObject@v8@@@2@V?$Local@VContext@v8@@@2@@Z 000000018002ac30     binding.obj
 0002:00009c30       $unwind$??$common_xtox_s@K_W@@YAHKQEA_W_KI_N@Z 000000018002ac30     libucrt:xtoa.obj
 0002:00009c30       $unwind$?Close@Socket@zmq@@AEAAXXZ 000000018002ac30     binding.obj
 0002:00009c30       $unwind$?Unmonitor@Socket@zmq@@AEAAXXZ 000000018002ac30     binding.obj
 0002:00009c30       $unwind$??_GMessageReference@IncomingMessage@Socket@zmq@@QEAAPEAXI@Z 000000018002ac30     binding.obj
 0002:00009c38       $unwind$?SetIndexedPropertyHandler@ObjectTemplate@v8@@QEAAXP6AXIAEBV?$PropertyCallbackInfo@VValue@v8@@@2@@ZP6AXIV?$Local@VValue@v8@@@2@0@ZP6AXIAEBV?$PropertyCallbackInfo@VInteger@v8@@@2@@ZP6AXIAEBV?$PropertyCallbackInfo@VBoolean@v8@@@2@@ZP6AXAEBV?$PropertyCallbackInfo@VArray@v8@@@2@@Z2@Z 000000018002ac38     binding.obj
 0002:00009c40       $unwind$?Set@Template@v8@@QEAAXPEAVIsolate@2@PEBDV?$Local@VData@v8@@@2@@Z 000000018002ac40     binding.obj
 0002:00009c4c       $unwind$??$common_initialize_environment_nolock@D@@YAHXZ 000000018002ac4c     libucrt:environment_initialization.obj
 0002:00009c4c       $unwind$??$common_fullpath_user_buffer@_W@@YAPEA_WQEA_WQEB_W_K@Z 000000018002ac4c     libucrt:fullpath.obj
 0002:00009c4c       $unwind$__acrt_FlsAlloc    000000018002ac4c     libucrt:winapi_thunks.obj
 0002:00009c4c       $unwind$??_GContext@zmq@@UEAAPEAXI@Z 000000018002ac4c     binding.obj
 0002:00009c4c       $unwind$?AdjustAmountOfExternalAllocatedMemory@Isolate@v8@@QEAA_J_J@Z 000000018002ac4c     binding.obj
 0002:00009c4c       $unwind$__acrt_FlsFree     000000018002ac4c     libucrt:winapi_thunks.obj
 0002:00009c4c       $unwind$__vcrt_FlsGetValue 000000018002ac4c     libvcruntime:winapi_downlevel.obj
 0002:00009c4c       $unwind$__vcrt_FlsFree     000000018002ac4c     libvcruntime:winapi_downlevel.obj
 0002:00009c4c       $unwind$__vcrt_FlsAlloc    000000018002ac4c     libvcruntime:winapi_downlevel.obj
 0002:00009c4c       $unwind$__vcrt_EventUnregister 000000018002ac4c     libvcruntime:winapi_downlevel.obj
 0002:00009c4c       $unwind$?DloadAcquireSectionWriteAccess@@YAXXZ 000000018002ac4c     DelayImp:delayhlp.obj
 0002:00009c4c       $unwind$?ToInt32@Value@v8@@QEBA?AV?$Local@VInt32@v8@@@2@XZ 000000018002ac4c     binding.obj
 0002:00009c4c       $unwind$?DloadGetSRWLockFunctionPointers@@YAEXZ 000000018002ac4c     DelayImp:delayhlp.obj
 0002:00009c4c       $unwind$__acrt_invoke_user_matherr 000000018002ac4c     libucrt:matherr.obj
 0002:00009c4c       $unwind$?ToUint32@Value@v8@@QEBA?AV?$Local@VUint32@v8@@@2@XZ 000000018002ac4c     binding.obj
 0002:00009c4c       $unwind$??_Gexception@std@@UEAAPEAXI@Z 000000018002ac4c     libcpmt:xthrow.obj
 0002:00009c4c       $unwind$?try_cor_exit_process@@YAXI@Z 000000018002ac4c     libucrt:exit.obj
 0002:00009c4c       $unwind$__acrt_get_parent_window 000000018002ac4c     libucrt:winapi_thunks.obj
 0002:00009c4c       $unwind$?type_case_c_tchar@?$output_processor@DV?$string_output_adapter@D@__crt_stdio_output@@V?$format_validation_base@DV?$string_output_adapter@D@__crt_stdio_output@@@2@@__crt_stdio_output@@AEAA_ND@Z 000000018002ac4c     libucrt:output.obj
 0002:00009c4c       $unwind$??_Gbad_alloc@std@@UEAAPEAXI@Z 000000018002ac4c     libcpmt:xthrow.obj
 0002:00009c4c       $unwind$_callnewh          000000018002ac4c     libucrt:new_handler.obj
 0002:00009c4c       $unwind$wcsncat_s          000000018002ac4c     libucrt:wcsncat_s.obj
 0002:00009c4c       $unwind$??$common_xtox@K_W@@YAHKQEA_W_KI_N@Z 000000018002ac4c     libucrt:xtoa.obj
 0002:00009c4c       $unwind$?ToDetailString@Value@v8@@QEBA?AV?$Local@VString@v8@@@2@XZ 000000018002ac4c     binding.obj
 0002:00009c4c       $unwind$??_Glogic_error@std@@UEAAPEAXI@Z 000000018002ac4c     libcpmt:xthrow.obj
 0002:00009c4c       $unwind$_updatetlocinfoEx_nolock 000000018002ac4c     libucrt:locale_refcounting.obj
 0002:00009c4c       $unwind$_realloc_base      000000018002ac4c     libucrt:realloc_base.obj
 0002:00009c4c       $unwind$?type_case_c_tchar@?$output_processor@DV?$string_output_adapter@D@__crt_stdio_output@@V?$standard_base@DV?$string_output_adapter@D@__crt_stdio_output@@@2@@__crt_stdio_output@@AEAA_ND@Z 000000018002ac4c     libucrt:output.obj
 0002:00009c4c       $unwind$?ToString@Value@v8@@QEBA?AV?$Local@VString@v8@@@2@XZ 000000018002ac4c     binding.obj
 0002:00009c4c       $unwind$??_Glength_error@std@@UEAAPEAXI@Z 000000018002ac4c     libcpmt:xthrow.obj
 0002:00009c4c       $unwind$_fclose_nolock     000000018002ac4c     libucrt:fclose.obj
 0002:00009c4c       $unwind$__acrt_stdio_begin_temporary_buffering_nolock 000000018002ac4c     libucrt:_sftbuf.obj
 0002:00009c4c       $unwind$_close_nolock      000000018002ac4c     libucrt:close.obj
 0002:00009c4c       $unwind$?GetPending@Socket@zmq@@CAXV?$Local@VString@v8@@@v8@@AEBV?$PropertyCallbackInfo@VValue@v8@@@Nan@@@Z 000000018002ac4c     binding.obj
 0002:00009c4c       $unwind$?GetState@Socket@zmq@@CAXV?$Local@VString@v8@@@v8@@AEBV?$PropertyCallbackInfo@VValue@v8@@@Nan@@@Z 000000018002ac4c     binding.obj
 0002:00009c4c       $unwind$?ToNumber@Value@v8@@QEBA?AV?$Local@VNumber@v8@@@2@XZ 000000018002ac4c     binding.obj
 0002:00009c4c       $unwind$?ToBoolean@Value@v8@@QEBA?AV?$Local@VBoolean@v8@@@2@XZ 000000018002ac4c     binding.obj
 0002:00009c4c       $unwind$?force_decimal_point@__crt_stdio_output@@YAXPEADQEAU__crt_locale_pointers@@@Z 000000018002ac4c     libucrt:output.obj
 0002:00009c4c       $unwind$?ToObject@Value@v8@@QEBA?AV?$Local@VObject@v8@@@2@XZ 000000018002ac4c     binding.obj
 0002:00009c4c       $unwind$??_GSocket@zmq@@UEAAPEAXI@Z 000000018002ac4c     binding.obj
 0002:00009c4c       $unwind$??0_LocaleUpdate@@QEAA@QEAU__crt_locale_pointers@@@Z 000000018002ac4c     libucrt:output.obj
 0002:00009c4c       $unwind$??_Gbad_array_new_length@std@@UEAAPEAXI@Z 000000018002ac4c     LIBCMT:throw_bad_alloc.obj
 0002:00009c4c       $unwind$??$common_getdcwd_user_buffer@_W@@YAPEA_WQEA_W0I@Z 000000018002ac4c     libucrt:getcwd.obj
 0002:00009c4c       $unwind$__acrt_getptd      000000018002ac4c     libucrt:per_thread_data.obj
 0002:00009c4c       $unwind$??_GObjectWrap@Nan@@UEAAPEAXI@Z 000000018002ac4c     binding.obj
 0002:00009c4c       $unwind$__acrt_FlsGetValue 000000018002ac4c     libucrt:winapi_thunks.obj
 0002:00009c4c       $unwind$__acrt_errno_map_os_error 000000018002ac4c     libucrt:errno.obj
 0002:00009c4c       $unwind$__acrt_uninitialize_lowio 000000018002ac4c     libucrt:ioinit.obj
 0002:00009c4c       $unwind$?ToInteger@Value@v8@@QEBA?AV?$Local@VInteger@v8@@@2@XZ 000000018002ac4c     binding.obj
 0002:00009c4c       $unwind$?internal_isupper_l@@YA_NHQEAU__crt_locale_pointers@@@Z 000000018002ac4c     libucrt:tolower_toupper.obj
 0002:00009c4c       $unwind$?replace_current_thread_locale_nolock@@YAXQEAU__acrt_ptd@@QEAU__crt_locale_data@@@Z 000000018002ac4c     libucrt:per_thread_data.obj
 0002:00009c58       $unwind$__doserrno         000000018002ac58     libucrt:errno.obj
 0002:00009c58       $unwind$?dllmain_crt_dispatch@@YAHQEAUHINSTANCE__@@KQEAX@Z 000000018002ac58     LIBCMT:dll_dllmain.obj
 0002:00009c58       $unwind$_errno             000000018002ac58     libucrt:errno.obj
 0002:00009c58       $unwind$atexit             000000018002ac58     LIBCMT:utility.obj
 0002:00009c58       $unwind$__acrt_thread_attach 000000018002ac58     libucrt:initialization.obj
 0002:00009c58       $unwind$__acrt_thread_detach 000000018002ac58     libucrt:initialization.obj
 0002:00009c58       $unwind$__scrt_acquire_startup_lock 000000018002ac58     LIBCMT:utility.obj
 0002:00009c58       $unwind$initialize_c       000000018002ac58     libucrt:initialization.obj
 0002:00009c58       $unwind$uninitialize_environment 000000018002ac58     libucrt:initialization.obj
 0002:00009c58       $unwind$__acrt_uninitialize_ptd 000000018002ac58     libucrt:per_thread_data.obj
 0002:00009c58       $unwind$__acrt_uninitialize_critical 000000018002ac58     libucrt:initialization.obj
 0002:00009c58       $unwind$_invoke_watson     000000018002ac58     libucrt:invalid_parameter.obj
 0002:00009c58       $unwind$__scrt_dllmain_before_initialize_c 000000018002ac58     LIBCMT:utility.obj
 0002:00009c58       $unwind$_set_error_mode    000000018002ac58     libucrt:set_error_mode.obj
 0002:00009c58       $unwind$__scrt_initialize_default_local_stdio_options 000000018002ac58     LIBCMT:default_local_stdio_options.obj
 0002:00009c58       $unwind$_fileno            000000018002ac58     libucrt:fileno.obj
 0002:00009c58       $unwind$__scrt_dllmain_after_initialize_c 000000018002ac58     LIBCMT:utility.obj
 0002:00009c58       $unwind$__scrt_dllmain_uninitialize_c 000000018002ac58     LIBCMT:utility.obj
 0002:00009c58       $unwind$__report_rangecheckfailure 000000018002ac58     LIBCMT:gs_report.obj
 0002:00009c58       $unwind$__acrt_initialize_ptd 000000018002ac58     libucrt:per_thread_data.obj
 0002:00009c58       $unwind$?state_case_size@?$output_processor@_WV?$stream_output_adapter@_W@__crt_stdio_output@@V?$standard_base@_WV?$stream_output_adapter@_W@__crt_stdio_output@@@2@@__crt_stdio_output@@AEAA_NXZ 000000018002ac58     libucrt:output.obj
 0002:00009c58       $unwind$__GSHandlerCheck   000000018002ac58     LIBCMT:_gshandler_.obj
 0002:00009c58       $unwind$__scrt_dllmain_uninitialize_critical 000000018002ac58     LIBCMT:utility.obj
 0002:00009c58       $unwind$__acrt_initialize_multibyte 000000018002ac58     libucrt:mbctype.obj
 0002:00009c58       $unwind$__scrt_dllmain_crt_thread_attach 000000018002ac58     LIBCMT:utility.obj
 0002:00009c58       $unwind$__scrt_dllmain_crt_thread_detach 000000018002ac58     LIBCMT:utility.obj
 0002:00009c58       $unwind$_stricmp           000000018002ac58     libucrt:stricmp.obj
 0002:00009c58       $unwind$__vcrt_initialize  000000018002ac58     libvcruntime:initialization.obj
 0002:00009c58       $unwind$?initialize_multibyte@@YAHXZ 000000018002ac58     libucrt:multibyte_initializer.obj
 0002:00009c58       $unwind$__vcrt_uninitialize_critical 000000018002ac58     libvcruntime:initialization.obj
 0002:00009c58       $unwind$__vcrt_thread_attach 000000018002ac58     libvcruntime:initialization.obj
 0002:00009c58       $unwind$__vcrt_thread_detach 000000018002ac58     libvcruntime:initialization.obj
 0002:00009c58       $unwind$abort              000000018002ac58     libucrt:abort.obj
 0002:00009c58       $unwind$__acrt_initialize_command_line 000000018002ac58     libucrt:argv_data.obj
 0002:00009c58       $unwind$__vcrt_initialize_ptd 000000018002ac58     libvcruntime:per_thread_data.obj
 0002:00009c58       $unwind$__vcrt_uninitialize_ptd 000000018002ac58     libvcruntime:per_thread_data.obj
 0002:00009c58       $unwind$_set_errno_from_matherr 000000018002ac58     libucrt:fpexcept.obj
 0002:00009c58       $unwind$__vcrt_freefls     000000018002ac58     libvcruntime:per_thread_data.obj
 0002:00009c58       $unwind$_msize             000000018002ac58     libucrt:msize.obj
 0002:00009c58       $unwind$_getfpstatusword   000000018002ac58     libucrt:_fenvutils.obj
 0002:00009c58       $unwind$_getfpcontrolword  000000018002ac58     libucrt:_fenvutils.obj
 0002:00009c58       $unwind$__acrt_initialize_heap 000000018002ac58     libucrt:heap_handle.obj
 0002:00009c58       $unwind$__dcrt_terminate_console_output 000000018002ac58     libucrt:initcon.obj
 0002:00009c58       $unwind$??$uninitialize_environment_internal@_W@@YAXAEAPEAPEA_W@Z 000000018002ac58     libucrt:environment_initialization.obj
 0002:00009c58       $unwind$??$uninitialize_environment_internal@D@@YAXAEAPEAPEAD@Z 000000018002ac58     libucrt:environment_initialization.obj
 0002:00009c58       $unwind$__dcrt_uninitialize_environments_nolock 000000018002ac58     libucrt:environment_initialization.obj
 0002:00009c58       $unwind$?IsDead@V8@v8@@SA_NXZ 000000018002ac58     binding.obj
 0002:00009c58       $unwind$?state_case_size@?$output_processor@DV?$string_output_adapter@D@__crt_stdio_output@@V?$format_validation_base@DV?$string_output_adapter@D@__crt_stdio_output@@@2@@__crt_stdio_output@@AEAA_NXZ 000000018002ac58     libucrt:output.obj
 0002:00009c58       $unwind$_statfp            000000018002ac58     libucrt:fpctrl.obj
 0002:00009c58       $unwind$__vcrt_uninitialize_telemetry_provider 000000018002ac58     libvcruntime:telemetry.obj
 0002:00009c58       $unwind$?state_case_normal_tchar@?$output_processor@DV?$string_output_adapter@D@__crt_stdio_output@@V?$format_validation_base@DV?$string_output_adapter@D@__crt_stdio_output@@@2@@__crt_stdio_output@@AEAA_ND@Z 000000018002ac58     libucrt:output.obj
 0002:00009c58       $unwind$_get_osfhandle     000000018002ac58     libucrt:osfinfo.obj
 0002:00009c58       $unwind$?state_case_normal_tchar@?$output_processor@DV?$string_output_adapter@D@__crt_stdio_output@@V?$standard_base@DV?$string_output_adapter@D@__crt_stdio_output@@@2@@__crt_stdio_output@@AEAA_ND@Z 000000018002ac58     libucrt:output.obj
 0002:00009c58       $unwind$__acrt_DownlevelLocaleNameToLCID 000000018002ac58     libucrt:lcidtoname_downlevel.obj
 0002:00009c58       $unwind$?state_case_size@?$output_processor@DV?$string_output_adapter@D@__crt_stdio_output@@V?$standard_base@DV?$string_output_adapter@D@__crt_stdio_output@@@2@@__crt_stdio_output@@AEAA_NXZ 000000018002ac58     libucrt:output.obj
 0002:00009c58       $unwind$__acrt_release_locale_ref 000000018002ac58     libucrt:locale_refcounting.obj
 0002:00009c58       $unwind$?IsExecutionTerminating@V8@v8@@SA_NPEAVIsolate@2@@Z 000000018002ac58     binding.obj
 0002:00009c58       $unwind$??__Fopts_binary@zmq@@YAXXZ 000000018002ac58     binding.obj
 0002:00009c58       $unwind$??__Eopts_binary@zmq@@YAXXZ 000000018002ac58     binding.obj
 0002:00009c58       $unwind$??__Fopts_uint64@zmq@@YAXXZ 000000018002ac58     binding.obj
 0002:00009c58       $unwind$??__Eopts_uint64@zmq@@YAXXZ 000000018002ac58     binding.obj
 0002:00009c58       $unwind$??__Fopts_int64@zmq@@YAXXZ 000000018002ac58     binding.obj
 0002:00009c58       $unwind$?state_case_size@?$output_processor@_WV?$string_output_adapter@_W@__crt_stdio_output@@V?$standard_base@_WV?$string_output_adapter@_W@__crt_stdio_output@@@2@@__crt_stdio_output@@AEAA_NXZ 000000018002ac58     libucrt:output.obj
 0002:00009c58       $unwind$??__Eopts_int64@zmq@@YAXXZ 000000018002ac58     binding.obj
 0002:00009c58       $unwind$_isatty            000000018002ac58     libucrt:isatty.obj
 0002:00009c58       $unwind$??__Fopts_uint32@zmq@@YAXXZ 000000018002ac58     binding.obj
 0002:00009c58       $unwind$??__Eopts_uint32@zmq@@YAXXZ 000000018002ac58     binding.obj
 0002:00009c58       $unwind$??__Fopts_int@zmq@@YAXXZ 000000018002ac58     binding.obj
 0002:00009c58       $unwind$tolower            000000018002ac58     libucrt:tolower_toupper.obj
 0002:00009c58       $unwind$??__Eopts_int@zmq@@YAXXZ 000000018002ac58     binding.obj
 0002:00009c58       $unwind$__pctype_func      000000018002ac58     libucrt:ctype.obj
 0002:00009c60       $unwind$?AddMessageListener@V8@v8@@SA_NP6AXV?$Local@VMessage@v8@@@2@V?$Local@VValue@v8@@@2@@Z1@Z 000000018002ac60     binding.obj
 0002:00009c60       $unwind$_free_base         000000018002ac60     libucrt:free_base.obj
 0002:00009c60       $unwind$__acrt_locale_free_lc_time_if_unreferenced 000000018002ac60     libucrt:locale_refcounting.obj
 0002:00009c60       $unwind$__acrt_locale_free_numeric 000000018002ac60     libucrt:initnum.obj
 0002:00009c60       $unwind$?destroy_fls@@YAXPEAX@Z 000000018002ac60     libucrt:per_thread_data.obj
 0002:00009c68       $unwind$__HrLoadAllImportsForDll 000000018002ac68     DelayImp:delayhlp.obj
 0002:00009c68       $unwind$memcpy_s           000000018002ac68     libucrt:cfout.obj
 0002:00009c68       $unwind$_RTC_Initialize    000000018002ac68     LIBCMT:_initsect_.obj
 0002:00009c68       $unwind$_RTC_Terminate     000000018002ac68     LIBCMT:_initsect_.obj
 0002:00009c68       $unwind$__acrt_getptd_noexit 000000018002ac68     libucrt:per_thread_data.obj
 0002:00009c68       $unwind$__acrt_LocaleNameToLCID 000000018002ac68     libucrt:winapi_thunks.obj
 0002:00009c68       $unwind$__acrt_FlsSetValue 000000018002ac68     libucrt:winapi_thunks.obj
 0002:00009c68       $unwind$_DllMainCRTStartup 000000018002ac68     LIBCMT:dll_dllmain.obj
 0002:00009c68       $unwind$__vcrt_getptd_noexit 000000018002ac68     libvcruntime:per_thread_data.obj
 0002:00009c68       $unwind$?_Erase@?$_Tree@V?$_Tset_traits@HU?$less@H@std@@V?$allocator@H@2@$0A@@std@@@std@@IEAAXPEAU?$_Tree_node@HPEAX@2@@Z 000000018002ac68     binding.obj
 0002:00009c68       $unwind$??R<lambda_ad1ced32f4ac17aa236e5ef05d6b3b7c>@@QEBAXXZ 000000018002ac68     libucrt:mbctype.obj
 0002:00009c68       $unwind$?type_case_n@?$output_processor@_WV?$string_output_adapter@_W@__crt_stdio_output@@V?$standard_base@_WV?$string_output_adapter@_W@__crt_stdio_output@@@2@@__crt_stdio_output@@AEAA_NXZ 000000018002ac68     libucrt:output.obj
 0002:00009c68       $unwind$?TraceLoggingRegister@__vcrt_trace_logging_provider@@YAJPEBU_TlgProvider_t@1@PEBU_GUID@@P6AX1KE_K2PEAU_EVENT_FILTER_DESCRIPTOR@@PEAX@Z4@Z 000000018002ac68     libvcruntime:telemetry.obj
 0002:00009c68       $unwind$_exception_enabled 000000018002ac68     libucrt:libm_error.obj
 0002:00009c68       $unwind$_initterm_e        000000018002ac68     libucrt:initterm.obj
 0002:00009c68       $unwind$__acrt_execute_uninitializers 000000018002ac68     libucrt:shared_initialization.obj
 0002:00009c68       $unwind$?type_case_Z@?$output_processor@_WV?$string_output_adapter@_W@__crt_stdio_output@@V?$standard_base@_WV?$string_output_adapter@_W@__crt_stdio_output@@@2@@__crt_stdio_output@@AEAA_NXZ 000000018002ac68     libucrt:output.obj
 0002:00009c68       $unwind$__acrt_stdio_flush_and_write_narrow_nolock 000000018002ac68     libucrt:_flsbuf.obj
 0002:00009c68       $unwind$__acrt_stdio_flush_and_write_wide_nolock 000000018002ac68     libucrt:_flsbuf.obj
 0002:00009c68       $unwind$__acrt_stdio_flush_nolock 000000018002ac68     libucrt:fflush.obj
 0002:00009c68       $unwind$?type_case_n@?$output_processor@DV?$string_output_adapter@D@__crt_stdio_output@@V?$format_validation_base@DV?$string_output_adapter@D@__crt_stdio_output@@@2@@__crt_stdio_output@@AEAA_NXZ 000000018002ac68     libucrt:output.obj
 0002:00009c68       $unwind$?type_case_Z@?$output_processor@_WV?$stream_output_adapter@_W@__crt_stdio_output@@V?$standard_base@_WV?$stream_output_adapter@_W@__crt_stdio_output@@@2@@__crt_stdio_output@@AEAA_NXZ 000000018002ac68     libucrt:output.obj
 0002:00009c68       $unwind$?type_case_s@?$output_processor@_WV?$stream_output_adapter@_W@__crt_stdio_output@@V?$standard_base@_WV?$stream_output_adapter@_W@__crt_stdio_output@@@2@@__crt_stdio_output@@AEAA_NXZ 000000018002ac68     libucrt:output.obj
 0002:00009c68       $unwind$?type_case_s@?$output_processor@DV?$string_output_adapter@D@__crt_stdio_output@@V?$format_validation_base@DV?$string_output_adapter@D@__crt_stdio_output@@@2@@__crt_stdio_output@@AEAA_NXZ 000000018002ac68     libucrt:output.obj
 0002:00009c68       $unwind$__vcrt_FlsSetValue 000000018002ac68     libvcruntime:winapi_downlevel.obj
 0002:00009c68       $unwind$?free_crt_array_internal@@YAXQEAPEBX_K@Z 000000018002ac68     libucrt:inittime.obj
 0002:00009c68       $unwind$?type_case_Z@?$output_processor@DV?$string_output_adapter@D@__crt_stdio_output@@V?$format_validation_base@DV?$string_output_adapter@D@__crt_stdio_output@@@2@@__crt_stdio_output@@AEAA_NXZ 000000018002ac68     libucrt:output.obj
 0002:00009c68       $unwind$?type_case_n@?$output_processor@_WV?$stream_output_adapter@_W@__crt_stdio_output@@V?$standard_base@_WV?$stream_output_adapter@_W@__crt_stdio_output@@@2@@__crt_stdio_output@@AEAA_NXZ 000000018002ac68     libucrt:output.obj
 0002:00009c68       $unwind$??$common_lseek_nolock@_J@@YA_JH_JH@Z 000000018002ac68     libucrt:lseek.obj
 0002:00009c68       $unwind$?SetCaptureStackTraceForUncaughtExceptions@V8@v8@@SAX_NHW4StackTraceOptions@StackTrace@2@@Z 000000018002ac68     binding.obj
 0002:00009c68       $unwind$?AddMemoryAllocationCallback@V8@v8@@SAXP6AXW4ObjectSpace@2@W4AllocationAction@2@H@Z01@Z 000000018002ac68     binding.obj
 0002:00009c68       $unwind$?type_case_Z@?$output_processor@DV?$string_output_adapter@D@__crt_stdio_output@@V?$standard_base@DV?$string_output_adapter@D@__crt_stdio_output@@@2@@__crt_stdio_output@@AEAA_NXZ 000000018002ac68     libucrt:output.obj
 0002:00009c68       $unwind$?type_case_s@?$output_processor@DV?$string_output_adapter@D@__crt_stdio_output@@V?$standard_base@DV?$string_output_adapter@D@__crt_stdio_output@@@2@@__crt_stdio_output@@AEAA_NXZ 000000018002ac68     libucrt:output.obj
 0002:00009c68       $unwind$?type_case_n@?$output_processor@DV?$string_output_adapter@D@__crt_stdio_output@@V?$standard_base@DV?$string_output_adapter@D@__crt_stdio_output@@@2@@__crt_stdio_output@@AEAA_NXZ 000000018002ac68     libucrt:output.obj
 0002:00009c68       $unwind$?type_case_s@?$output_processor@_WV?$string_output_adapter@_W@__crt_stdio_output@@V?$standard_base@_WV?$string_output_adapter@_W@__crt_stdio_output@@@2@@__crt_stdio_output@@AEAA_NXZ 000000018002ac68     libucrt:output.obj
 0002:00009c78       $chain$0$??_EExternalStringResource@String@v8@@UEAAPEAXI@Z 000000018002ac78     binding.obj
 0002:00009c78       $chain$0$??_EExternalOneByteStringResource@String@v8@@UEAAPEAXI@Z 000000018002ac78     binding.obj
 0002:00009c78       $chain$0$??_EExternalStringResourceBase@String@v8@@UEAAPEAXI@Z 000000018002ac78     binding.obj
 0002:00009c8c       $chain$1$??_EExternalOneByteStringResource@String@v8@@UEAAPEAXI@Z 000000018002ac8c     binding.obj
 0002:00009c8c       $chain$1$??_EExternalStringResource@String@v8@@UEAAPEAXI@Z 000000018002ac8c     binding.obj
 0002:00009c8c       $chain$1$??_EExternalStringResourceBase@String@v8@@UEAAPEAXI@Z 000000018002ac8c     binding.obj
 0002:00009c9c       $chain$0$??_EAllocator@ArrayBuffer@v8@@UEAAPEAXI@Z 000000018002ac9c     binding.obj
 0002:00009cb0       $chain$1$??_EAllocator@ArrayBuffer@v8@@UEAAPEAXI@Z 000000018002acb0     binding.obj
 0002:00009cc0       $chain$0$??_EExternalOneByteStringResourceImpl@v8@@UEAAPEAXI@Z 000000018002acc0     binding.obj
 0002:00009cd4       $chain$1$??_EExternalOneByteStringResourceImpl@v8@@UEAAPEAXI@Z 000000018002acd4     binding.obj
 0002:00009ce4       $chain$0$??_EExtension@v8@@UEAAPEAXI@Z 000000018002ace4     binding.obj
 0002:00009cf8       $chain$1$??_EExtension@v8@@UEAAPEAXI@Z 000000018002acf8     binding.obj
 0002:00009d08       $chain$0$??_EPersistentHandleVisitor@v8@@UEAAPEAXI@Z 000000018002ad08     binding.obj
 0002:00009d08       $chain$0$??_EExternalResourceVisitor@v8@@UEAAPEAXI@Z 000000018002ad08     binding.obj
 0002:00009d1c       $chain$1$??_EExternalResourceVisitor@v8@@UEAAPEAXI@Z 000000018002ad1c     binding.obj
 0002:00009d1c       $chain$1$??_EPersistentHandleVisitor@v8@@UEAAPEAXI@Z 000000018002ad1c     binding.obj
 0002:00009d2c       $unwind$?FunctionCallbackWrapper@imp@Nan@@YAXAEBV?$FunctionCallbackInfo@VValue@v8@@@v8@@@Z 000000018002ad2c     binding.obj
 0002:00009d3c       $unwind$?GetterCallbackWrapper@imp@Nan@@YAXV?$Local@VName@v8@@@v8@@AEBV?$PropertyCallbackInfo@VValue@v8@@@4@@Z 000000018002ad3c     binding.obj
 0002:00009d48       $unwind$?SetterCallbackWrapper@imp@Nan@@YAXV?$Local@VName@v8@@@v8@@V?$Local@VValue@v8@@@4@AEBV?$PropertyCallbackInfo@X@4@@Z 000000018002ad48     binding.obj
 0002:00009d54       $unwind$?New@?$Factory@VFunctionTemplate@v8@@@imp@Nan@@SA?AV?$Local@VFunctionTemplate@v8@@@v8@@P6AXAEBV?$FunctionCallbackInfo@VValue@v8@@@3@@ZV?$Local@VValue@v8@@@5@V?$Local@VSignature@v8@@@5@@Z 000000018002ad54     binding.obj
 0002:00009d60       $chain$0$?New@?$Factory@VFunctionTemplate@v8@@@imp@Nan@@SA?AV?$Local@VFunctionTemplate@v8@@@v8@@P6AXAEBV?$FunctionCallbackInfo@VValue@v8@@@3@@ZV?$Local@VValue@v8@@@5@V?$Local@VSignature@v8@@@5@@Z 000000018002ad60     binding.obj
 0002:00009d74       $chain$1$?New@?$Factory@VFunctionTemplate@v8@@@imp@Nan@@SA?AV?$Local@VFunctionTemplate@v8@@@v8@@P6AXAEBV?$FunctionCallbackInfo@VValue@v8@@@3@@ZV?$Local@VValue@v8@@@5@V?$Local@VSignature@v8@@@5@@Z 000000018002ad74     binding.obj
 0002:00009d84       $unwind$?SetAccessor@Nan@@YAXV?$Local@VObjectTemplate@v8@@@v8@@V?$Local@VString@v8@@@3@P6AX1AEBV?$PropertyCallbackInfo@VValue@v8@@@1@@ZP6AX1V?$Local@VValue@v8@@@3@AEBV?$PropertyCallbackInfo@X@1@@Z4W4AccessControl@3@W4PropertyAttribute@3@V?$Local@VAccessorSignature@v8@@@3@@Z 000000018002ad84     binding.obj
 0002:00009d94       $unwind$?erase@?$_Tree@V?$_Tset_traits@HU?$less@H@std@@V?$allocator@H@2@$0A@@std@@@std@@QEAA?AV?$_Tree_const_iterator@V?$_Tree_val@U?$_Tree_simple_types@H@std@@@std@@@2@V32@@Z 000000018002ad94     binding.obj
 0002:00009d94       $unwind$??$free_environment@D@@YAXQEAPEAD@Z 000000018002ad94     libucrt:environment_initialization.obj
 0002:00009d94       $unwind$?Wrap@ObjectWrap@Nan@@IEAAXV?$Local@VObject@v8@@@v8@@@Z 000000018002ad94     binding.obj
 0002:00009d94       $unwind$??$free_environment@_W@@YAXQEAPEA_W@Z 000000018002ad94     libucrt:environment_initialization.obj
 0002:00009da0       $unwind$?ExceptionFromError@zmq@@YA?AV?$Local@VValue@v8@@@v8@@XZ 000000018002ada0     binding.obj
 0002:00009dac       $unwind$?Initialize@Context@zmq@@SAXV?$Local@VObject@v8@@@v8@@@Z 000000018002adac     binding.obj
 0002:00009dbc       $unwind$?New@Context@zmq@@CAXAEBV?$FunctionCallbackInfo@VValue@v8@@@Nan@@@Z 000000018002adbc     binding.obj
 0002:00009dc8       $chain$0$?New@Context@zmq@@CAXAEBV?$FunctionCallbackInfo@VValue@v8@@@Nan@@@Z 000000018002adc8     binding.obj
 0002:00009ddc       $chain$4$?New@Context@zmq@@CAXAEBV?$FunctionCallbackInfo@VValue@v8@@@Nan@@@Z 000000018002addc     binding.obj
 0002:00009ddc       $chain$2$?New@Context@zmq@@CAXAEBV?$FunctionCallbackInfo@VValue@v8@@@Nan@@@Z 000000018002addc     binding.obj
 0002:00009df0       $unwind$?SetOpt@Context@zmq@@CAXAEBV?$FunctionCallbackInfo@VValue@v8@@@Nan@@@Z 000000018002adf0     binding.obj
 0002:00009df0       $unwind$?GetOpt@Context@zmq@@CAXAEBV?$FunctionCallbackInfo@VValue@v8@@@Nan@@@Z 000000018002adf0     binding.obj
 0002:00009dfc       $unwind$?Initialize@Socket@zmq@@SAXV?$Local@VObject@v8@@@v8@@@Z 000000018002adfc     binding.obj
 0002:00009e10       $unwind$?New@Socket@zmq@@CAXAEBV?$FunctionCallbackInfo@VValue@v8@@@Nan@@@Z 000000018002ae10     binding.obj
 0002:00009e1c       $chain$1$?New@Socket@zmq@@CAXAEBV?$FunctionCallbackInfo@VValue@v8@@@Nan@@@Z 000000018002ae1c     binding.obj
 0002:00009e30       $chain$3$?New@Socket@zmq@@CAXAEBV?$FunctionCallbackInfo@VValue@v8@@@Nan@@@Z 000000018002ae30     binding.obj
 0002:00009e30       $chain$5$?New@Socket@zmq@@CAXAEBV?$FunctionCallbackInfo@VValue@v8@@@Nan@@@Z 000000018002ae30     binding.obj
 0002:00009e44       $unwind$?Close@Socket@zmq@@CAXAEBV?$FunctionCallbackInfo@VValue@v8@@@Nan@@@Z 000000018002ae44     binding.obj
 0002:00009e44       $unwind$?IsReady@Socket@zmq@@AEAA_NXZ 000000018002ae44     binding.obj
 0002:00009e4c       $unwind$?CallbackIfReady@Socket@zmq@@QEAAXXZ 000000018002ae4c     binding.obj
 0002:00009e54       $chain$1$?CallbackIfReady@Socket@zmq@@QEAAXXZ 000000018002ae54     binding.obj
 0002:00009e6c       $chain$2$?CallbackIfReady@Socket@zmq@@QEAAXXZ 000000018002ae6c     binding.obj
 0002:00009e7c       $unwind$?UV_PollCallback@Socket@zmq@@CAXPEAUuv_poll_s@@HH@Z 000000018002ae7c     binding.obj
 0002:00009e84       $chain$0$?UV_PollCallback@Socket@zmq@@CAXPEAUuv_poll_s@@HH@Z 000000018002ae84     binding.obj
 0002:00009e98       $chain$1$?UV_PollCallback@Socket@zmq@@CAXPEAUuv_poll_s@@HH@Z 000000018002ae98     binding.obj
 0002:00009ea8       $unwind$?MonitorEvent@Socket@zmq@@QEAAXGHPEAD@Z 000000018002aea8     binding.obj
 0002:00009ec8       $unwind$?MonitorError@Socket@zmq@@QEAAXPEBD@Z 000000018002aec8     binding.obj
 0002:00009ed8       $unwind$?UV_MonitorCallback@Socket@zmq@@CAXPEAUuv_timer_s@@H@Z 000000018002aed8     binding.obj
 0002:00009efc       $unwind$??0Socket@zmq@@AEAA@PEAVContext@1@H@Z 000000018002aefc     binding.obj
 0002:00009f10       $unwind$?SetPending@Socket@zmq@@CAXV?$Local@VString@v8@@@v8@@V?$Local@VValue@v8@@@4@AEBV?$PropertyCallbackInfo@X@Nan@@@Z 000000018002af10     binding.obj
 0002:00009f1c       $unwind$??$GetSockOpt@PEAD@Socket@zmq@@AEAA?AV?$Local@VValue@v8@@@v8@@H@Z 000000018002af1c     binding.obj
 0002:00009f30       $chain$0$??$GetSockOpt@PEAD@Socket@zmq@@AEAA?AV?$Local@VValue@v8@@@v8@@H@Z 000000018002af30     binding.obj
 0002:00009f44       $chain$1$??$GetSockOpt@PEAD@Socket@zmq@@AEAA?AV?$Local@VValue@v8@@@v8@@H@Z 000000018002af44     binding.obj
 0002:00009f54       $unwind$??$SetSockOpt@PEAD@Socket@zmq@@AEAA?AV?$Local@VValue@v8@@@v8@@HV23@@Z 000000018002af54     binding.obj
 0002:00009f64       $chain$0$??$SetSockOpt@PEAD@Socket@zmq@@AEAA?AV?$Local@VValue@v8@@@v8@@HV23@@Z 000000018002af64     binding.obj
 0002:00009f78       $chain$1$??$SetSockOpt@PEAD@Socket@zmq@@AEAA?AV?$Local@VValue@v8@@@v8@@HV23@@Z 000000018002af78     binding.obj
 0002:00009f88       $unwind$?GetSockOpt@Socket@zmq@@CAXAEBV?$FunctionCallbackInfo@VValue@v8@@@Nan@@@Z 000000018002af88     binding.obj
 0002:00009f94       $chain$0$?GetSockOpt@Socket@zmq@@CAXAEBV?$FunctionCallbackInfo@VValue@v8@@@Nan@@@Z 000000018002af94     binding.obj
 0002:00009fa8       $chain$2$?GetSockOpt@Socket@zmq@@CAXAEBV?$FunctionCallbackInfo@VValue@v8@@@Nan@@@Z 000000018002afa8     binding.obj
 0002:00009fbc       $chain$5$?GetSockOpt@Socket@zmq@@CAXAEBV?$FunctionCallbackInfo@VValue@v8@@@Nan@@@Z 000000018002afbc     binding.obj
 0002:00009fd4       $unwind$?SetSockOpt@Socket@zmq@@CAXAEBV?$FunctionCallbackInfo@VValue@v8@@@Nan@@@Z 000000018002afd4     binding.obj
 0002:00009fe0       $chain$0$?SetSockOpt@Socket@zmq@@CAXAEBV?$FunctionCallbackInfo@VValue@v8@@@Nan@@@Z 000000018002afe0     binding.obj
 0002:00009ff4       $chain$2$?SetSockOpt@Socket@zmq@@CAXAEBV?$FunctionCallbackInfo@VValue@v8@@@Nan@@@Z 000000018002aff4     binding.obj
 0002:0000a008       $chain$5$?SetSockOpt@Socket@zmq@@CAXAEBV?$FunctionCallbackInfo@VValue@v8@@@Nan@@@Z 000000018002b008     binding.obj
 0002:0000a020       $unwind$??0BindState@Socket@zmq@@QEAA@PEAV12@V?$Local@VFunction@v8@@@v8@@V?$Local@VString@v8@@@4@@Z 000000018002b020     binding.obj
 0002:0000a030       $unwind$?Unbind@Socket@zmq@@CAXAEBV?$FunctionCallbackInfo@VValue@v8@@@Nan@@@Z 000000018002b030     binding.obj
 0002:0000a030       $unwind$?Bind@Socket@zmq@@CAXAEBV?$FunctionCallbackInfo@VValue@v8@@@Nan@@@Z 000000018002b030     binding.obj
 0002:0000a040       $chain$1$?Bind@Socket@zmq@@CAXAEBV?$FunctionCallbackInfo@VValue@v8@@@Nan@@@Z 000000018002b040     binding.obj
 0002:0000a054       $chain$3$?Bind@Socket@zmq@@CAXAEBV?$FunctionCallbackInfo@VValue@v8@@@Nan@@@Z 000000018002b054     binding.obj
 0002:0000a068       $chain$4$?Bind@Socket@zmq@@CAXAEBV?$FunctionCallbackInfo@VValue@v8@@@Nan@@@Z 000000018002b068     binding.obj
 0002:0000a078       $unwind$?UV_BindAsyncAfter@Socket@zmq@@CAXPEAUuv_work_s@@@Z 000000018002b078     binding.obj
 0002:0000a078       $unwind$?UV_UnbindAsyncAfter@Socket@zmq@@CAXPEAUuv_work_s@@@Z 000000018002b078     binding.obj
 0002:0000a088       $unwind$?BindSync@Socket@zmq@@CAXAEBV?$FunctionCallbackInfo@VValue@v8@@@Nan@@@Z 000000018002b088     binding.obj
 0002:0000a088       $unwind$?UnbindSync@Socket@zmq@@CAXAEBV?$FunctionCallbackInfo@VValue@v8@@@Nan@@@Z 000000018002b088     binding.obj
 0002:0000a0a4       $chain$0$?BindSync@Socket@zmq@@CAXAEBV?$FunctionCallbackInfo@VValue@v8@@@Nan@@@Z 000000018002b0a4     binding.obj
 0002:0000a0b8       $chain$1$?BindSync@Socket@zmq@@CAXAEBV?$FunctionCallbackInfo@VValue@v8@@@Nan@@@Z 000000018002b0b8     binding.obj
 0002:0000a0c8       $chain$1$?Unbind@Socket@zmq@@CAXAEBV?$FunctionCallbackInfo@VValue@v8@@@Nan@@@Z 000000018002b0c8     binding.obj
 0002:0000a0dc       $chain$3$?Unbind@Socket@zmq@@CAXAEBV?$FunctionCallbackInfo@VValue@v8@@@Nan@@@Z 000000018002b0dc     binding.obj
 0002:0000a0f0       $chain$4$?Unbind@Socket@zmq@@CAXAEBV?$FunctionCallbackInfo@VValue@v8@@@Nan@@@Z 000000018002b0f0     binding.obj
 0002:0000a100       $chain$0$?UnbindSync@Socket@zmq@@CAXAEBV?$FunctionCallbackInfo@VValue@v8@@@Nan@@@Z 000000018002b100     binding.obj
 0002:0000a114       $chain$1$?UnbindSync@Socket@zmq@@CAXAEBV?$FunctionCallbackInfo@VValue@v8@@@Nan@@@Z 000000018002b114     binding.obj
 0002:0000a124       $unwind$?Connect@Socket@zmq@@CAXAEBV?$FunctionCallbackInfo@VValue@v8@@@Nan@@@Z 000000018002b124     binding.obj
 0002:0000a124       $unwind$?Disconnect@Socket@zmq@@CAXAEBV?$FunctionCallbackInfo@VValue@v8@@@Nan@@@Z 000000018002b124     binding.obj
 0002:0000a13c       $chain$0$?Connect@Socket@zmq@@CAXAEBV?$FunctionCallbackInfo@VValue@v8@@@Nan@@@Z 000000018002b13c     binding.obj
 0002:0000a150       $chain$1$?Connect@Socket@zmq@@CAXAEBV?$FunctionCallbackInfo@VValue@v8@@@Nan@@@Z 000000018002b150     binding.obj
 0002:0000a150       $chain$5$?Connect@Socket@zmq@@CAXAEBV?$FunctionCallbackInfo@VValue@v8@@@Nan@@@Z 000000018002b150     binding.obj
 0002:0000a160       $chain$2$?Connect@Socket@zmq@@CAXAEBV?$FunctionCallbackInfo@VValue@v8@@@Nan@@@Z 000000018002b160     binding.obj
 0002:0000a174       $chain$3$?Connect@Socket@zmq@@CAXAEBV?$FunctionCallbackInfo@VValue@v8@@@Nan@@@Z 000000018002b174     binding.obj
 0002:0000a188       $chain$4$?Connect@Socket@zmq@@CAXAEBV?$FunctionCallbackInfo@VValue@v8@@@Nan@@@Z 000000018002b188     binding.obj
 0002:0000a198       $chain$0$?Disconnect@Socket@zmq@@CAXAEBV?$FunctionCallbackInfo@VValue@v8@@@Nan@@@Z 000000018002b198     binding.obj
 0002:0000a1ac       $chain$1$?Disconnect@Socket@zmq@@CAXAEBV?$FunctionCallbackInfo@VValue@v8@@@Nan@@@Z 000000018002b1ac     binding.obj
 0002:0000a1ac       $chain$5$?Disconnect@Socket@zmq@@CAXAEBV?$FunctionCallbackInfo@VValue@v8@@@Nan@@@Z 000000018002b1ac     binding.obj
 0002:0000a1bc       $chain$2$?Disconnect@Socket@zmq@@CAXAEBV?$FunctionCallbackInfo@VValue@v8@@@Nan@@@Z 000000018002b1bc     binding.obj
 0002:0000a1d0       $chain$3$?Disconnect@Socket@zmq@@CAXAEBV?$FunctionCallbackInfo@VValue@v8@@@Nan@@@Z 000000018002b1d0     binding.obj
 0002:0000a1e4       $chain$4$?Disconnect@Socket@zmq@@CAXAEBV?$FunctionCallbackInfo@VValue@v8@@@Nan@@@Z 000000018002b1e4     binding.obj
 0002:0000a1f4       $unwind$?FreeCallback@IncomingMessage@Socket@zmq@@CAXPEADPEAX@Z 000000018002b1f4     binding.obj
 0002:0000a1fc       $unwind$?Monitor@Socket@zmq@@CAXAEBV?$FunctionCallbackInfo@VValue@v8@@@Nan@@@Z 000000018002b1fc     binding.obj
 0002:0000a21c       $unwind$?Recv@Socket@zmq@@CAXAEBV?$FunctionCallbackInfo@VValue@v8@@@Nan@@@Z 000000018002b21c     binding.obj
 0002:0000a22c       $chain$0$?Recv@Socket@zmq@@CAXAEBV?$FunctionCallbackInfo@VValue@v8@@@Nan@@@Z 000000018002b22c     binding.obj
 0002:0000a240       $chain$1$?Recv@Socket@zmq@@CAXAEBV?$FunctionCallbackInfo@VValue@v8@@@Nan@@@Z 000000018002b240     binding.obj
 0002:0000a250       $chain$2$?Recv@Socket@zmq@@CAXAEBV?$FunctionCallbackInfo@VValue@v8@@@Nan@@@Z 000000018002b250     binding.obj
 0002:0000a264       $chain$6$?Recv@Socket@zmq@@CAXAEBV?$FunctionCallbackInfo@VValue@v8@@@Nan@@@Z 000000018002b264     binding.obj
 0002:0000a280       $chain$8$?Recv@Socket@zmq@@CAXAEBV?$FunctionCallbackInfo@VValue@v8@@@Nan@@@Z 000000018002b280     binding.obj
 0002:0000a29c       $unwind$?Send@Socket@zmq@@CAXAEBV?$FunctionCallbackInfo@VValue@v8@@@Nan@@@Z 000000018002b29c     binding.obj
 0002:0000a2b4       $chain$0$?Send@Socket@zmq@@CAXAEBV?$FunctionCallbackInfo@VValue@v8@@@Nan@@@Z 000000018002b2b4     binding.obj
 0002:0000a2c8       $chain$1$?Send@Socket@zmq@@CAXAEBV?$FunctionCallbackInfo@VValue@v8@@@Nan@@@Z 000000018002b2c8     binding.obj
 0002:0000a2dc       $chain$2$?Send@Socket@zmq@@CAXAEBV?$FunctionCallbackInfo@VValue@v8@@@Nan@@@Z 000000018002b2dc     binding.obj
 0002:0000a2f0       $chain$3$?Send@Socket@zmq@@CAXAEBV?$FunctionCallbackInfo@VValue@v8@@@Nan@@@Z 000000018002b2f0     binding.obj
 0002:0000a300       $chain$4$?Send@Socket@zmq@@CAXAEBV?$FunctionCallbackInfo@VValue@v8@@@Nan@@@Z 000000018002b300     binding.obj
 0002:0000a310       $chain$5$?Send@Socket@zmq@@CAXAEBV?$FunctionCallbackInfo@VValue@v8@@@Nan@@@Z 000000018002b310     binding.obj
 0002:0000a320       $unwind$?ZmqVersion@zmq@@YAXAEBV?$FunctionCallbackInfo@VValue@v8@@@Nan@@@Z 000000018002b320     binding.obj
 0002:0000a330       $unwind$?ZmqCurveKeypair@zmq@@YAXAEBV?$FunctionCallbackInfo@VValue@v8@@@Nan@@@Z 000000018002b330     binding.obj
 0002:0000a34c       $chain$1$?ZmqCurveKeypair@zmq@@YAXAEBV?$FunctionCallbackInfo@VValue@v8@@@Nan@@@Z 000000018002b34c     binding.obj
 0002:0000a364       $chain$2$?ZmqCurveKeypair@zmq@@YAXAEBV?$FunctionCallbackInfo@VValue@v8@@@Nan@@@Z 000000018002b364     binding.obj
 0002:0000a374       $unwind$?Initialize@zmq@@YAXV?$Local@VObject@v8@@@v8@@@Z 000000018002b374     binding.obj
 0002:0000a38c       $unwind$init               000000018002b38c     binding.obj
 0002:0000a3a4       $unwind$?erase@?$_Tree@V?$_Tset_traits@HU?$less@H@std@@V?$allocator@H@2@$0A@@std@@@std@@QEAA?AV?$_Tree_const_iterator@V?$_Tree_val@U?$_Tree_simple_types@H@std@@@std@@@2@V32@0@Z 000000018002b3a4     binding.obj
 0002:0000a3b0       $chain$0$?erase@?$_Tree@V?$_Tset_traits@HU?$less@H@std@@V?$allocator@H@2@$0A@@std@@@std@@QEAA?AV?$_Tree_const_iterator@V?$_Tree_val@U?$_Tree_simple_types@H@std@@@std@@@2@V32@0@Z 000000018002b3b0     binding.obj
 0002:0000a3c4       $chain$1$?erase@?$_Tree@V?$_Tset_traits@HU?$less@H@std@@V?$allocator@H@2@$0A@@std@@@std@@QEAA?AV?$_Tree_const_iterator@V?$_Tree_val@U?$_Tree_simple_types@H@std@@@std@@@2@V32@0@Z 000000018002b3c4     binding.obj
 0002:0000a3d4       $unwind$??$Unwrap@VContext@zmq@@@ObjectWrap@Nan@@SAPEAVContext@zmq@@V?$Local@VObject@v8@@@v8@@@Z 000000018002b3d4     binding.obj
 0002:0000a3dc       $unwind$??$GetSockOpt@I@Socket@zmq@@AEAA?AV?$Local@VValue@v8@@@v8@@H@Z 000000018002b3dc     binding.obj
 0002:0000a3dc       $unwind$??$GetSockOpt@_J@Socket@zmq@@AEAA?AV?$Local@VValue@v8@@@v8@@H@Z 000000018002b3dc     binding.obj
 0002:0000a3dc       $unwind$??$GetSockOpt@H@Socket@zmq@@AEAA?AV?$Local@VValue@v8@@@v8@@H@Z 000000018002b3dc     binding.obj
 0002:0000a3dc       $unwind$??$GetSockOpt@_K@Socket@zmq@@AEAA?AV?$Local@VValue@v8@@@v8@@H@Z 000000018002b3dc     binding.obj
 0002:0000a3ec       $chain$0$??$GetSockOpt@H@Socket@zmq@@AEAA?AV?$Local@VValue@v8@@@v8@@H@Z 000000018002b3ec     binding.obj
 0002:0000a400       $chain$1$??$GetSockOpt@H@Socket@zmq@@AEAA?AV?$Local@VValue@v8@@@v8@@H@Z 000000018002b400     binding.obj
 0002:0000a410       $chain$0$??$GetSockOpt@I@Socket@zmq@@AEAA?AV?$Local@VValue@v8@@@v8@@H@Z 000000018002b410     binding.obj
 0002:0000a424       $chain$1$??$GetSockOpt@I@Socket@zmq@@AEAA?AV?$Local@VValue@v8@@@v8@@H@Z 000000018002b424     binding.obj
 0002:0000a434       $chain$0$??$GetSockOpt@_J@Socket@zmq@@AEAA?AV?$Local@VValue@v8@@@v8@@H@Z 000000018002b434     binding.obj
 0002:0000a448       $chain$1$??$GetSockOpt@_J@Socket@zmq@@AEAA?AV?$Local@VValue@v8@@@v8@@H@Z 000000018002b448     binding.obj
 0002:0000a458       $chain$0$??$GetSockOpt@_K@Socket@zmq@@AEAA?AV?$Local@VValue@v8@@@v8@@H@Z 000000018002b458     binding.obj
 0002:0000a46c       $chain$1$??$GetSockOpt@_K@Socket@zmq@@AEAA?AV?$Local@VValue@v8@@@v8@@H@Z 000000018002b46c     binding.obj
 0002:0000a47c       $unwind$??$SetSockOpt@H@Socket@zmq@@AEAA?AV?$Local@VValue@v8@@@v8@@HV23@@Z 000000018002b47c     binding.obj
 0002:0000a47c       $unwind$??$SetSockOpt@_J@Socket@zmq@@AEAA?AV?$Local@VValue@v8@@@v8@@HV23@@Z 000000018002b47c     binding.obj
 0002:0000a47c       $unwind$??$SetSockOpt@I@Socket@zmq@@AEAA?AV?$Local@VValue@v8@@@v8@@HV23@@Z 000000018002b47c     binding.obj
 0002:0000a490       $unwind$??$_snprintf_s@$0BA@@@YAHAEAY0BA@D_KPEBDZZ 000000018002b490     binding.obj
 0002:0000a4a0       $unwind$??$_Insert_nohint@HU_Nil@std@@@?$_Tree@V?$_Tset_traits@HU?$less@H@std@@V?$allocator@H@2@$0A@@std@@@std@@IEAA?AU?$pair@V?$_Tree_const_iterator@V?$_Tree_val@U?$_Tree_simple_types@H@std@@@std@@@std@@_N@1@_N$$QEAHU_Nil@1@@Z 000000018002b4a0     binding.obj
 0002:0000a4ac       $unwind$__std_exception_copy 000000018002b4ac     libvcruntime:std_exception.obj
 0002:0000a4ac       $unwind$?initialize_stdio_handles_nolock@@YAXXZ 000000018002b4ac     libucrt:ioinit.obj
 0002:0000a4ac       $unwind$_free_osfhnd       000000018002b4ac     libucrt:osfinfo.obj
 0002:0000a4ac       $unwind$??$_Insert_at@HU_Nil@std@@@?$_Tree@V?$_Tset_traits@HU?$less@H@std@@V?$allocator@H@2@$0A@@std@@@std@@IEAA?AV?$_Tree_const_iterator@V?$_Tree_val@U?$_Tree_simple_types@H@std@@@std@@@1@_NPEAU?$_Tree_node@HPEAX@1@$$QEAHU_Nil@1@@Z 000000018002b4ac     binding.obj
 0002:0000a4c0       $unwind$?DloadObtainSection@@YAPEAXPEAK0@Z 000000018002b4c0     DelayImp:delayhlp.obj
 0002:0000a4d0       $unwind$?DloadMakePermanentImageCommit@@YAXPEAX_K@Z 000000018002b4d0     DelayImp:delayhlp.obj
 0002:0000a4dc       $unwind$?DloadProtectSection@@YAXKPEAK@Z 000000018002b4dc     DelayImp:delayhlp.obj
 0002:0000a4ec       $unwind$__delayLoadHelper2 000000018002b4ec     DelayImp:delayhlp.obj
 0002:0000a504       xdata                      000000018002b504     node:node.exe
 0002:0000a50c       xdata                      000000018002b50c     libzmq-v100-mt-4_0_4:libzmq-v100-mt-4_0_4.dll
 0002:0000a518       $xdatasym                  000000018002b518     LIBCMT:_amdsecgs_.obj
 0002:0000a51c       $unwind$__report_securityfailure 000000018002b51c     LIBCMT:gs_report.obj
 0002:0000a524       $unwind$_putwch_nolock     000000018002b524     libucrt:putwch.obj
 0002:0000a524       $unwind$__report_gsfailure 000000018002b524     LIBCMT:gs_report.obj
 0002:0000a52c       $unwind$capture_current_context 000000018002b52c     LIBCMT:gs_report.obj
 0002:0000a538       $unwind$capture_previous_context 000000018002b538     LIBCMT:gs_report.obj
 0002:0000a544       $unwind$__scrt_is_nonwritable_in_current_image 000000018002b544     LIBCMT:utility.obj
 0002:0000a564       $unwind$__scrt_is_nonwritable_in_current_image$filt$0 000000018002b564     LIBCMT:utility.obj
 0002:0000a56c       $unwind$__scrt_initialize_onexit_tables 000000018002b56c     LIBCMT:utility.obj
 0002:0000a578       $unwind$?dllmain_crt_process_attach@@YAHQEAUHINSTANCE__@@QEAX@Z 000000018002b578     LIBCMT:dll_dllmain.obj
 0002:0000a5a4       $unwind$?dllmain_crt_process_detach@@YAH_N@Z 000000018002b5a4     LIBCMT:dll_dllmain.obj
 0002:0000a5cc       $unwind$?dllmain_dispatch@@YAHQEAUHINSTANCE__@@KQEAX@Z 000000018002b5cc     LIBCMT:dll_dllmain.obj
 0002:0000a5f4       $unwind$?filt$0@?0??dllmain_dispatch@@YAHQEAUHINSTANCE__@@KQEAX@Z@4HA 000000018002b5f4     LIBCMT:dll_dllmain.obj
 0002:0000a5fc       $unwind$__dcrt_lowio_initialize_console_output 000000018002b5fc     libucrt:initcon.obj
 0002:0000a5fc       $unwind$?_Xlength_error@std@@YAXPEBD@Z 000000018002b5fc     libcpmt:xthrow.obj
 0002:0000a5fc       $unwind$?__scrt_throw_std_bad_array_new_length@@YAXXZ 000000018002b5fc     LIBCMT:throw_bad_alloc.obj
 0002:0000a5fc       $unwind$?__scrt_throw_std_bad_alloc@@YAXXZ 000000018002b5fc     LIBCMT:throw_bad_alloc.obj
 0002:0000a5fc       $unwind$_raise_exc         000000018002b5fc     libucrt:fpexcept.obj
 0002:0000a604       $unwind$__isa_available_init 000000018002b604     LIBCMT:_cpu_disp_.obj
 0002:0000a610       $unwind$__scrt_fastfail    000000018002b610     LIBCMT:utility_desktop.obj
 0002:0000a620       $unwind$__security_init_cookie 000000018002b620     LIBCMT:gs_support.obj
 0002:0000a630       $xdatasym                  000000018002b630     LIBCMT:_guard_dispatch_.obj
 0002:0000a638       $xdatasym                  000000018002b638     libvcruntime:memcpy.obj
 0002:0000a63c       $unwind$_CxxThrowException 000000018002b63c     libvcruntime:throw.obj
 0002:0000a650       $unwind$__C_specific_handler 000000018002b650     libvcruntime:_chandler_.obj
 0002:0000a66c       $unwind$__telemetry_main_invoke_trigger 000000018002b66c     libvcruntime:telemetry.obj
 0002:0000a66c       $unwind$__telemetry_main_return_trigger 000000018002b66c     libvcruntime:telemetry.obj
 0002:0000a684       $unwind$?_TlgEnableCallback@__vcrt_trace_logging_provider@@YAXPEBU_GUID@@KE_K1PEAU_EVENT_FILTER_DESCRIPTOR@@PEAX@Z 000000018002b684     libvcruntime:telemetry.obj
 0002:0000a6a0       $unwind$isdigit            000000018002b6a0     libucrt:_ctype.obj
 0002:0000a6a0       $unwind$?getSystemCP@@YAHH@Z 000000018002b6a0     libucrt:mbctype.obj
 0002:0000a6a0       $unwind$?_TlgWrite@__vcrt_trace_logging_provider@@YAJPEBU_TlgProvider_t@1@PEFBXPEBU_GUID@@2IPEAU_EVENT_DATA_DESCRIPTOR@@@Z 000000018002b6a0     libvcruntime:telemetry.obj
 0002:0000a6a0       $unwind$_isleadbyte_l      000000018002b6a0     libucrt:_wctype.obj
 0002:0000a6a8       $xdatasym                  000000018002b6a8     libvcruntime:memset.obj
 0002:0000a6b0       $xdatasym                  000000018002b6b0     libvcruntime:_jmpuwind_.obj
 0002:0000a6c4       $unwind$_itow_s            000000018002b6c4     libucrt:xtoa.obj
 0002:0000a6c4       $unwind$wctomb_s           000000018002b6c4     libucrt:wctomb.obj
 0002:0000a6c4       $unwind$_log10_special     000000018002b6c4     libucrt:log_special.obj
 0002:0000a6c4       $unwind$_invalid_parameter_noinfo_noreturn 000000018002b6c4     libucrt:invalid_parameter.obj
 0002:0000a6c4       $unwind$_invalid_parameter_noinfo 000000018002b6c4     libucrt:invalid_parameter.obj
 0002:0000a6c4       $unwind$_wgetcwd           000000018002b6c4     libucrt:getcwd.obj
 0002:0000a6cc       $unwind$__acrt_call_reportfault 000000018002b6cc     libucrt:invalid_parameter.obj
 0002:0000a6ec       $unwind$_invalid_parameter 000000018002b6ec     libucrt:invalid_parameter.obj
 0002:0000a6ec       $unwind$__vcrt_EventWriteTransfer 000000018002b6ec     libvcruntime:winapi_downlevel.obj
 0002:0000a704       $unwind$wcsncpy            000000018002b704     libucrt:wcsncpy.obj
 0002:0000a704       $unwind$__vcrt_initialize_winapi_thunks 000000018002b704     libvcruntime:winapi_downlevel.obj
 0002:0000a704       $unwind$__acrt_initialize_winapi_thunks 000000018002b704     libucrt:winapi_thunks.obj
 0002:0000a70c       $unwind$__stdio_common_vfwprintf 000000018002b70c     libucrt:output.obj
 0002:0000a714       $unwind$__stdio_common_vswprintf 000000018002b714     libucrt:output.obj
 0002:0000a714       $unwind$__stdio_common_vsprintf 000000018002b714     libucrt:output.obj
 0002:0000a738       $unwind$__stdio_common_vsnprintf_s 000000018002b738     libucrt:output.obj
 0002:0000a750       $unwind$?write_string@?$stream_output_adapter@_W@__crt_stdio_output@@QEBAXQEB_WHQEAH1@Z 000000018002b750     libucrt:output.obj
 0002:0000a768       $unwind$?process@?$output_processor@_WV?$stream_output_adapter@_W@__crt_stdio_output@@V?$standard_base@_WV?$stream_output_adapter@_W@__crt_stdio_output@@@2@@__crt_stdio_output@@QEAAHXZ 000000018002b768     libucrt:output.obj
 0002:0000a780       $unwind$?parse_int_from_format_string@?$output_processor@_WV?$stream_output_adapter@_W@__crt_stdio_output@@V?$standard_base@_WV?$stream_output_adapter@_W@__crt_stdio_output@@@2@@__crt_stdio_output@@AEAA_NQEAH@Z 000000018002b780     libucrt:output.obj
 0002:0000a780       $unwind$?parse_int_from_format_string@?$output_processor@_WV?$string_output_adapter@_W@__crt_stdio_output@@V?$standard_base@_WV?$string_output_adapter@_W@__crt_stdio_output@@@2@@__crt_stdio_output@@AEAA_NQEAH@Z 000000018002b780     libucrt:output.obj
 0002:0000a794       $unwind$?state_case_type@?$output_processor@_WV?$stream_output_adapter@_W@__crt_stdio_output@@V?$standard_base@_WV?$stream_output_adapter@_W@__crt_stdio_output@@@2@@__crt_stdio_output@@AEAA_NXZ 000000018002b794     libucrt:output.obj
 0002:0000a794       $unwind$?state_case_type@?$output_processor@_WV?$string_output_adapter@_W@__crt_stdio_output@@V?$standard_base@_WV?$string_output_adapter@_W@__crt_stdio_output@@@2@@__crt_stdio_output@@AEAA_NXZ 000000018002b794     libucrt:output.obj
 0002:0000a7b8       $unwind$?type_case_c_tchar@?$output_processor@_WV?$stream_output_adapter@_W@__crt_stdio_output@@V?$standard_base@_WV?$stream_output_adapter@_W@__crt_stdio_output@@@2@@__crt_stdio_output@@AEAA_N_W@Z 000000018002b7b8     libucrt:output.obj
 0002:0000a7b8       $unwind$?type_case_c_tchar@?$output_processor@_WV?$string_output_adapter@_W@__crt_stdio_output@@V?$standard_base@_WV?$string_output_adapter@_W@__crt_stdio_output@@@2@@__crt_stdio_output@@AEAA_N_W@Z 000000018002b7b8     libucrt:output.obj
 0002:0000a7b8       $unwind$??R<lambda_b721fa326cdb32351d23dfa67958c160>@@QEBAHXZ 000000018002b7b8     libucrt:setvbuf.obj
 0002:0000a7c8       $unwind$?type_case_a@?$output_processor@_WV?$string_output_adapter@_W@__crt_stdio_output@@V?$standard_base@_WV?$string_output_adapter@_W@__crt_stdio_output@@@2@@__crt_stdio_output@@AEAA_NXZ 000000018002b7c8     libucrt:output.obj
 0002:0000a7c8       $unwind$?type_case_a@?$output_processor@_WV?$stream_output_adapter@_W@__crt_stdio_output@@V?$standard_base@_WV?$stream_output_adapter@_W@__crt_stdio_output@@@2@@__crt_stdio_output@@AEAA_NXZ 000000018002b7c8     libucrt:output.obj
 0002:0000a7d8       $unwind$?write_stored_string_tchar@?$output_processor@_WV?$stream_output_adapter@_W@__crt_stdio_output@@V?$standard_base@_WV?$stream_output_adapter@_W@__crt_stdio_output@@@2@@__crt_stdio_output@@AEAA_N_W@Z 000000018002b7d8     libucrt:output.obj
 0002:0000a7ec       $unwind$??R<lambda_dd75445284c072d0bd3768540cc698fa>@@QEBAHXZ 000000018002b7ec     libucrt:output.obj
 0002:0000a808       $unwind$?write_string@?$string_output_adapter@D@__crt_stdio_output@@QEBAXQEBDHQEAH1@Z 000000018002b808     libucrt:output.obj
 0002:0000a808       $unwind$??R<lambda_4e60a939b0d047cfe11ddc22648dfba9>@@QEBAHXZ 000000018002b808     libucrt:onexit.obj
 0002:0000a824       $unwind$?process@?$output_processor@DV?$string_output_adapter@D@__crt_stdio_output@@V?$standard_base@DV?$string_output_adapter@D@__crt_stdio_output@@@2@@__crt_stdio_output@@QEAAHXZ 000000018002b824     libucrt:output.obj
 0002:0000a834       $unwind$?state_case_type@?$output_processor@DV?$string_output_adapter@D@__crt_stdio_output@@V?$format_validation_base@DV?$string_output_adapter@D@__crt_stdio_output@@@2@@__crt_stdio_output@@AEAA_NXZ 000000018002b834     libucrt:output.obj
 0002:0000a834       $unwind$?state_case_type@?$output_processor@DV?$string_output_adapter@D@__crt_stdio_output@@V?$standard_base@DV?$string_output_adapter@D@__crt_stdio_output@@@2@@__crt_stdio_output@@AEAA_NXZ 000000018002b834     libucrt:output.obj
 0002:0000a84c       $unwind$?type_case_a@?$output_processor@DV?$string_output_adapter@D@__crt_stdio_output@@V?$format_validation_base@DV?$string_output_adapter@D@__crt_stdio_output@@@2@@__crt_stdio_output@@AEAA_NXZ 000000018002b84c     libucrt:output.obj
 0002:0000a84c       $unwind$?type_case_a@?$output_processor@DV?$string_output_adapter@D@__crt_stdio_output@@V?$standard_base@DV?$string_output_adapter@D@__crt_stdio_output@@@2@@__crt_stdio_output@@AEAA_NXZ 000000018002b84c     libucrt:output.obj
 0002:0000a858       $unwind$?write_stored_string_tchar@?$output_processor@DV?$string_output_adapter@D@__crt_stdio_output@@V?$standard_base@DV?$string_output_adapter@D@__crt_stdio_output@@@2@@__crt_stdio_output@@AEAA_ND@Z 000000018002b858     libucrt:output.obj
 0002:0000a858       $unwind$?write_stored_string_tchar@?$output_processor@DV?$string_output_adapter@D@__crt_stdio_output@@V?$format_validation_base@DV?$string_output_adapter@D@__crt_stdio_output@@@2@@__crt_stdio_output@@AEAA_ND@Z 000000018002b858     libucrt:output.obj
 0002:0000a870       $unwind$?write_stored_string_tchar@?$output_processor@_WV?$string_output_adapter@_W@__crt_stdio_output@@V?$standard_base@_WV?$string_output_adapter@_W@__crt_stdio_output@@@2@@__crt_stdio_output@@AEAA_N_W@Z 000000018002b870     libucrt:output.obj
 0002:0000a884       $unwind$??$common_vsprintf@Vformat_validation_base@__crt_stdio_output@@D@@YAH_KQEAD0QEBDQEAU__crt_locale_pointers@@1@Z 000000018002b884     libucrt:output.obj
 0002:0000a8a4       $unwind$??$write_multiple_characters@V?$stream_output_adapter@_W@__crt_stdio_output@@D@__crt_stdio_output@@YAXAEBV?$stream_output_adapter@_W@0@DHQEAH@Z 000000018002b8a4     libucrt:output.obj
 0002:0000a8bc       $unwind$??$write_multiple_characters@V?$string_output_adapter@_W@__crt_stdio_output@@D@__crt_stdio_output@@YAXAEBV?$string_output_adapter@_W@0@DHQEAH@Z 000000018002b8bc     libucrt:output.obj
 0002:0000a8c8       $unwind$??$write_multiple_characters@V?$string_output_adapter@D@__crt_stdio_output@@D@__crt_stdio_output@@YAXAEBV?$string_output_adapter@D@0@DHQEAH@Z 000000018002b8c8     libucrt:output.obj
 0002:0000a8c8       $unwind$??$type_case_integer_parse_into_buffer@I@?$output_processor@DV?$string_output_adapter@D@__crt_stdio_output@@V?$standard_base@DV?$string_output_adapter@D@__crt_stdio_output@@@2@@__crt_stdio_output@@AEAAXII_N@Z 000000018002b8c8     libucrt:output.obj
 0002:0000a8c8       $unwind$?PiddFromDllName@@YAPEBUImgDelayDescr@@PEBD@Z 000000018002b8c8     DelayImp:delayhlp.obj
 0002:0000a8c8       $unwind$??$type_case_integer_parse_into_buffer@I@?$output_processor@_WV?$string_output_adapter@_W@__crt_stdio_output@@V?$standard_base@_WV?$string_output_adapter@_W@__crt_stdio_output@@@2@@__crt_stdio_output@@AEAAXII_N@Z 000000018002b8c8     libucrt:output.obj
 0002:0000a8c8       $unwind$??$type_case_integer_parse_into_buffer@_K@?$output_processor@DV?$string_output_adapter@D@__crt_stdio_output@@V?$standard_base@DV?$string_output_adapter@D@__crt_stdio_output@@@2@@__crt_stdio_output@@AEAAX_KI_N@Z 000000018002b8c8     libucrt:output.obj
 0002:0000a8c8       $unwind$??$type_case_integer_parse_into_buffer@_K@?$output_processor@_WV?$stream_output_adapter@_W@__crt_stdio_output@@V?$standard_base@_WV?$stream_output_adapter@_W@__crt_stdio_output@@@2@@__crt_stdio_output@@AEAAX_KI_N@Z 000000018002b8c8     libucrt:output.obj
 0002:0000a8c8       $unwind$??$type_case_integer_parse_into_buffer@I@?$output_processor@_WV?$stream_output_adapter@_W@__crt_stdio_output@@V?$standard_base@_WV?$stream_output_adapter@_W@__crt_stdio_output@@@2@@__crt_stdio_output@@AEAAXII_N@Z 000000018002b8c8     libucrt:output.obj
 0002:0000a8c8       $unwind$??$type_case_integer_parse_into_buffer@I@?$output_processor@DV?$string_output_adapter@D@__crt_stdio_output@@V?$format_validation_base@DV?$string_output_adapter@D@__crt_stdio_output@@@2@@__crt_stdio_output@@AEAAXII_N@Z 000000018002b8c8     libucrt:output.obj
 0002:0000a8c8       $unwind$??$type_case_integer_parse_into_buffer@_K@?$output_processor@_WV?$string_output_adapter@_W@__crt_stdio_output@@V?$standard_base@_WV?$string_output_adapter@_W@__crt_stdio_output@@@2@@__crt_stdio_output@@AEAAX_KI_N@Z 000000018002b8c8     libucrt:output.obj
 0002:0000a8c8       $unwind$??$type_case_integer_parse_into_buffer@_K@?$output_processor@DV?$string_output_adapter@D@__crt_stdio_output@@V?$format_validation_base@DV?$string_output_adapter@D@__crt_stdio_output@@@2@@__crt_stdio_output@@AEAAX_KI_N@Z 000000018002b8c8     libucrt:output.obj
 0002:0000a8d0       $unwind$??$?RV<lambda_7b91131dde12e1c3dfc74ff76b3f2eac>@@AEAV<lambda_dd75445284c072d0bd3768540cc698fa>@@V<lambda_16bc4ecb55b4718497c16bceaea2ceaf>@@@?$__crt_seh_guarded_call@H@@QEAAH$$QEAV<lambda_7b91131dde12e1c3dfc74ff76b3f2eac>@@AEAV<lambda_dd75445284c072d0bd3768540cc698fa>@@$$QEAV<lambda_16bc4ecb55b4718497c16bceaea2ceaf>@@@Z 000000018002b8d0     libucrt:output.obj
 0002:0000a8f4       $unwind$?parse_int_from_format_string@?$output_processor@DV?$string_output_adapter@D@__crt_stdio_output@@V?$format_validation_base@DV?$string_output_adapter@D@__crt_stdio_output@@@2@@__crt_stdio_output@@AEAA_NQEAH@Z 000000018002b8f4     libucrt:output.obj
 0002:0000a8f4       $unwind$?parse_int_from_format_string@?$output_processor@DV?$string_output_adapter@D@__crt_stdio_output@@V?$standard_base@DV?$string_output_adapter@D@__crt_stdio_output@@@2@@__crt_stdio_output@@AEAA_NQEAH@Z 000000018002b8f4     libucrt:output.obj
 0002:0000a908       $unwind$swprintf           000000018002b908     libucrt:assert.obj
 0002:0000a918       $unwind$??$common_assert_to_stderr@_W@@YAXQEB_W0I@Z 000000018002b918     libucrt:assert.obj
 0002:0000a934       $unwind$??$common_assert_to_message_box@_W@@YAXQEB_W0IQEAX@Z 000000018002b934     libucrt:assert.obj
 0002:0000a950       $unwind$??$common_assert_to_message_box_build_string@_W@@YAXQEA_W_KQEB_W2IQEAX@Z 000000018002b950     libucrt:assert.obj
 0002:0000a970       $unwind$_stricmp_l         000000018002b970     libucrt:stricmp.obj
 0002:0000a980       $unwind$_query_new_handler 000000018002b980     libucrt:new_handler.obj
 0002:0000a9a0       $unwind$?common_exit@@YAXHW4_crt_exit_cleanup_mode@@W4_crt_exit_return_mode@@@Z 000000018002b9a0     libucrt:exit.obj
 0002:0000a9e0       $unwind$??$create_environment@D@@YAQEAPEADQEAD@Z 000000018002b9e0     libucrt:environment_initialization.obj
 0002:0000a9f8       $unwind$_register_onexit_function 000000018002b9f8     libucrt:onexit.obj
 0002:0000aa00       $unwind$_execute_onexit_table 000000018002ba00     libucrt:onexit.obj
 0002:0000aa08       $unwind$??$?RV<lambda_b8c45f8f788dd370798f47cfe8ac3a86>@@AEAV<lambda_4e60a939b0d047cfe11ddc22648dfba9>@@V<lambda_332c3edc96d0294ec56c57d38c1cdfd5>@@@?$__crt_seh_guarded_call@H@@QEAAH$$QEAV<lambda_b8c45f8f788dd370798f47cfe8ac3a86>@@AEAV<lambda_4e60a939b0d047cfe11ddc22648dfba9>@@$$QEAV<lambda_332c3edc96d0294ec56c57d38c1cdfd5>@@@Z 000000018002ba08     libucrt:onexit.obj
 0002:0000aa2c       $unwind$??$?RV<lambda_e24bbb7b643b32fcea6fa61b31d4c984>@@AEAV<lambda_275893d493268fdec8709772e3fcec0e>@@V<lambda_9d71df4d7cf3f480f8d633942495c3b0>@@@?$__crt_seh_guarded_call@H@@QEAAH$$QEAV<lambda_e24bbb7b643b32fcea6fa61b31d4c984>@@AEAV<lambda_275893d493268fdec8709772e3fcec0e>@@$$QEAV<lambda_9d71df4d7cf3f480f8d633942495c3b0>@@@Z 000000018002ba2c     libucrt:onexit.obj
 0002:0000aa5c       $unwind$terminate          000000018002ba5c     libucrt:terminate.obj
 0002:0000aa7c       $unwind$??$parse_integer@KV?$c_string_character_source@D@__crt_strtox@@@__crt_strtox@@YAKQEAU__crt_locale_pointers@@V?$c_string_character_source@D@0@H_N@Z 000000018002ba7c     libucrt:atox.obj
 0002:0000aa98       $unwind$??$parse_integer@KV?$c_string_character_source@_W@__crt_strtox@@@__crt_strtox@@YAKQEAU__crt_locale_pointers@@V?$c_string_character_source@_W@0@H_N@Z 000000018002ba98     libucrt:atox.obj
 0002:0000aab4       $unwind$?construct_ptd_array@@YAXQEAU__acrt_ptd@@@Z 000000018002bab4     libucrt:per_thread_data.obj
 0002:0000aabc       $unwind$?destroy_ptd_array@@YAXQEAU__acrt_ptd@@@Z 000000018002babc     libucrt:per_thread_data.obj
 0002:0000aac4       $unwind$??$?RV<lambda_72d1df2b273a38828b1ce30cbf4cdab5>@@AEAV<lambda_876a65b173b8412d3a47c70a915b0cf4>@@V<lambda_41932305e351933ebe8f8be3ed8bb5dc>@@@?$__crt_seh_guarded_call@X@@QEAAX$$QEAV<lambda_72d1df2b273a38828b1ce30cbf4cdab5>@@AEAV<lambda_876a65b173b8412d3a47c70a915b0cf4>@@$$QEAV<lambda_41932305e351933ebe8f8be3ed8bb5dc>@@@Z 000000018002bac4     libucrt:per_thread_data.obj
 0002:0000aae8       $unwind$??$?RV<lambda_5e887d1dcbef67a5eb4283622ba103bf>@@AEAV<lambda_4466841279450cc726390878d4a41900>@@V<lambda_341c25c0346d94847f1f3c463c57e077>@@@?$__crt_seh_guarded_call@X@@QEAAX$$QEAV<lambda_5e887d1dcbef67a5eb4283622ba103bf>@@AEAV<lambda_4466841279450cc726390878d4a41900>@@$$QEAV<lambda_341c25c0346d94847f1f3c463c57e077>@@@Z 000000018002bae8     libucrt:per_thread_data.obj
 0002:0000ab0c       $unwind$??$?RV<lambda_46352004c1216016012b18bd6f87e700>@@AEAV<lambda_3bd07e1a1191394380780325891bf33f>@@V<lambda_334532d3f185bcaa59b5be82d7d22bff>@@@?$__crt_seh_guarded_call@X@@QEAAX$$QEAV<lambda_46352004c1216016012b18bd6f87e700>@@AEAV<lambda_3bd07e1a1191394380780325891bf33f>@@$$QEAV<lambda_334532d3f185bcaa59b5be82d7d22bff>@@@Z 000000018002bb0c     libucrt:per_thread_data.obj
 0002:0000ab30       $unwind$??$?RV<lambda_fb3a7dec4e47f37f22dae91bb15c9095>@@AEAV<lambda_698284760c8add0bfb0756c19673e34b>@@V<lambda_dfb8eca1e75fef3034a8fb18dd509707>@@@?$__crt_seh_guarded_call@X@@QEAAX$$QEAV<lambda_fb3a7dec4e47f37f22dae91bb15c9095>@@AEAV<lambda_698284760c8add0bfb0756c19673e34b>@@$$QEAV<lambda_dfb8eca1e75fef3034a8fb18dd509707>@@@Z 000000018002bb30     libucrt:per_thread_data.obj
 0002:0000ab54       $unwind$_tolower_l         000000018002bb54     libucrt:tolower_toupper.obj
 0002:0000ab64       $unwind$_wctomb_s_l        000000018002bb64     libucrt:wctomb.obj
 0002:0000ab74       $unwind$wcsnlen            000000018002bb74     libucrt:strnlen.obj
 0002:0000ab74       $unwind$strnlen            000000018002bb74     libucrt:strnlen.obj
 0002:0000ab7c       $unwind$__acrt_fp_format   000000018002bb7c     libucrt:cvt.obj
 0002:0000ab98       $unwind$?fp_format_nan_or_infinity@@YAHW4__acrt_fp_class@@_NPEAD_K1@Z 000000018002bb98     libucrt:cvt.obj
 0002:0000abac       $unwind$?fp_format_e_internal@@YAHQEAD_KH_NIQEAU_strflt@@2QEAU__crt_locale_pointers@@@Z 000000018002bbac     libucrt:cvt.obj
 0002:0000abc4       $unwind$?fp_format_e@@YAHQEBNQEAD_K12H_NIQEAU__crt_locale_pointers@@@Z 000000018002bbc4     libucrt:cvt.obj
 0002:0000abd8       $unwind$?fp_format_a@@YAHQEBNPEAD_KQEAD2H_NIQEAU__crt_locale_pointers@@@Z 000000018002bbd8     libucrt:cvt.obj
 0002:0000abf4       $unwind$?fp_format_g@@YAHQEBNQEAD_K12H_NIQEAU__crt_locale_pointers@@@Z 000000018002bbf4     libucrt:cvt.obj
 0002:0000ac08       $unwind$_fputwc_nolock     000000018002bc08     libucrt:fputwc.obj
 0002:0000ac24       $unwind$__vcrt_uninitialize_winapi_thunks 000000018002bc24     libvcruntime:winapi_downlevel.obj
 0002:0000ac24       $unwind$__acrt_stdio_end_temporary_buffering_nolock 000000018002bc24     libucrt:_sftbuf.obj
 0002:0000ac2c       $unwind$__acrt_uninitialize_locale 000000018002bc2c     libucrt:wsetlocale.obj
 0002:0000ac4c       $unwind$__acrt_initialize_lowio 000000018002bc4c     libucrt:ioinit.obj
 0002:0000ac6c       $unwind$?initialize_inherited_file_handles_nolock@@YAXXZ 000000018002bc6c     libucrt:ioinit.obj
 0002:0000ac88       $unwind$?is_valid_drive@@YAHI@Z 000000018002bc88     libucrt:getcwd.obj
 0002:0000ac98       $unwind$??$common_getdcwd@_W@@YAPEA_WHQEA_WHHQEBDH@Z 000000018002bc98     libucrt:getcwd.obj
 0002:0000acb0       $unwind$__acrt_LCMapStringEx 000000018002bcb0     libucrt:winapi_thunks.obj
 0002:0000acb0       $unwind$_mbtowc_l          000000018002bcb0     libucrt:mbtowc.obj
 0002:0000acb0       $unwind$__acrt_show_wide_message_box 000000018002bcb0     libucrt:crtmbox.obj
 0002:0000acc8       $unwind$fflush             000000018002bcc8     libucrt:fflush.obj
 0002:0000acec       $unwind$common_control87$filt$0 000000018002bcec     libucrt:ieee.obj
 0002:0000acec       $unwind$?fin$0@?0???$?RV<lambda_99476a1ad63dd22509b5d3e65b0ffc95>@@AEAV<lambda_ad1ced32f4ac17aa236e5ef05d6b3b7c>@@V<lambda_f7424dd8d45958661754dc4f2697e9c3>@@@?$__crt_seh_guarded_call@X@@QEAAX$$QEAV<lambda_99476a1ad63dd22509b5d3e65b0ffc95>@@AEAV<lambda_ad1ced32f4ac17aa236e5ef05d6b3b7c>@@$$QEAV<lambda_f7424dd8d45958661754dc4f2697e9c3>@@@Z@4HA 000000018002bcec     libucrt:mbctype.obj
 0002:0000acec       $unwind$_ctrlfp$filt$0     000000018002bcec     libucrt:fpctrl.obj
 0002:0000acec       $unwind$?fin$0@?0???$?RV<lambda_b521505b218e5242e90febf6bfebc422>@@AEAV<lambda_6978c1fb23f02e42e1d9e99668cc68aa>@@V<lambda_314360699dd331753a4119843814e9a7>@@@?$__crt_seh_guarded_call@H@@QEAAH$$QEAV<lambda_b521505b218e5242e90febf6bfebc422>@@AEAV<lambda_6978c1fb23f02e42e1d9e99668cc68aa>@@$$QEAV<lambda_314360699dd331753a4119843814e9a7>@@@Z@4HA 000000018002bcec     libucrt:commit.obj
 0002:0000acec       $unwind$common_flush_all$fin$0 000000018002bcec     libucrt:fflush.obj
 0002:0000acec       $unwind$?fin$0@?0???$common_lseek@_J@@YA_JH_JH@Z@4HA 000000018002bcec     libucrt:lseek.obj
 0002:0000acec       $unwind$_write$fin$0       000000018002bcec     libucrt:write.obj
 0002:0000acec       $unwind$?fin$0@?0??dllmain_crt_process_attach@@YAHQEAUHINSTANCE__@@QEAX@Z@4HA 000000018002bcec     LIBCMT:dll_dllmain.obj
 0002:0000acec       $unwind$?fin$0@?0???$?RV<lambda_7a5ef57ff966f610505f1d28a3d40618>@@AEAV<lambda_b721fa326cdb32351d23dfa67958c160>@@V<lambda_5e0fb27672408a07956fe59e48ccb2aa>@@@?$__crt_seh_guarded_call@H@@QEAAH$$QEAV<lambda_7a5ef57ff966f610505f1d28a3d40618>@@AEAV<lambda_b721fa326cdb32351d23dfa67958c160>@@$$QEAV<lambda_5e0fb27672408a07956fe59e48ccb2aa>@@@Z@4HA 000000018002bcec     libucrt:setvbuf.obj
 0002:0000acec       $unwind$__acrt_uninitialize_locale$fin$0 000000018002bcec     libucrt:wsetlocale.obj
 0002:0000acec       $unwind$?fin$0@?0???$?RV<lambda_46352004c1216016012b18bd6f87e700>@@AEAV<lambda_3bd07e1a1191394380780325891bf33f>@@V<lambda_334532d3f185bcaa59b5be82d7d22bff>@@@?$__crt_seh_guarded_call@X@@QEAAX$$QEAV<lambda_46352004c1216016012b18bd6f87e700>@@AEAV<lambda_3bd07e1a1191394380780325891bf33f>@@$$QEAV<lambda_334532d3f185bcaa59b5be82d7d22bff>@@@Z@4HA 000000018002bcec     libucrt:per_thread_data.obj
 0002:0000acec       $unwind$?fin$1@?0??common_exit@@YAXHW4_crt_exit_cleanup_mode@@W4_crt_exit_return_mode@@@Z@4HA 000000018002bcec     libucrt:exit.obj
 0002:0000acec       $unwind$fflush$fin$0       000000018002bcec     libucrt:fflush.obj
 0002:0000acec       $unwind$__acrt_lowio_ensure_fh_exists$fin$0 000000018002bcec     libucrt:osfinfo.obj
 0002:0000acec       $unwind$_fcloseall$fin$0   000000018002bcec     libucrt:closeall.obj
 0002:0000acec       $unwind$?fin$0@?0???$?RV<lambda_5e887d1dcbef67a5eb4283622ba103bf>@@AEAV<lambda_4466841279450cc726390878d4a41900>@@V<lambda_341c25c0346d94847f1f3c463c57e077>@@@?$__crt_seh_guarded_call@X@@QEAAX$$QEAV<lambda_5e887d1dcbef67a5eb4283622ba103bf>@@AEAV<lambda_4466841279450cc726390878d4a41900>@@$$QEAV<lambda_341c25c0346d94847f1f3c463c57e077>@@@Z@4HA 000000018002bcec     libucrt:per_thread_data.obj
 0002:0000acec       $unwind$?fin$0@?0???$?RV<lambda_b8c45f8f788dd370798f47cfe8ac3a86>@@AEAV<lambda_4e60a939b0d047cfe11ddc22648dfba9>@@V<lambda_332c3edc96d0294ec56c57d38c1cdfd5>@@@?$__crt_seh_guarded_call@H@@QEAAH$$QEAV<lambda_b8c45f8f788dd370798f47cfe8ac3a86>@@AEAV<lambda_4e60a939b0d047cfe11ddc22648dfba9>@@$$QEAV<lambda_332c3edc96d0294ec56c57d38c1cdfd5>@@@Z@4HA 000000018002bcec     libucrt:onexit.obj
 0002:0000acec       $unwind$__acrt_update_thread_multibyte_data$fin$0 000000018002bcec     libucrt:mbctype.obj
 0002:0000acec       $unwind$_query_new_handler$fin$0 000000018002bcec     libucrt:new_handler.obj
 0002:0000acec       $unwind$?fin$0@?0???$?RV<lambda_e24bbb7b643b32fcea6fa61b31d4c984>@@AEAV<lambda_275893d493268fdec8709772e3fcec0e>@@V<lambda_9d71df4d7cf3f480f8d633942495c3b0>@@@?$__crt_seh_guarded_call@H@@QEAAH$$QEAV<lambda_e24bbb7b643b32fcea6fa61b31d4c984>@@AEAV<lambda_275893d493268fdec8709772e3fcec0e>@@$$QEAV<lambda_9d71df4d7cf3f480f8d633942495c3b0>@@@Z@4HA 000000018002bcec     libucrt:onexit.obj
 0002:0000acec       $unwind$?fin$0@?0???$?RV<lambda_fb3a7dec4e47f37f22dae91bb15c9095>@@AEAV<lambda_698284760c8add0bfb0756c19673e34b>@@V<lambda_dfb8eca1e75fef3034a8fb18dd509707>@@@?$__crt_seh_guarded_call@X@@QEAAX$$QEAV<lambda_fb3a7dec4e47f37f22dae91bb15c9095>@@AEAV<lambda_698284760c8add0bfb0756c19673e34b>@@$$QEAV<lambda_dfb8eca1e75fef3034a8fb18dd509707>@@@Z@4HA 000000018002bcec     libucrt:per_thread_data.obj
 0002:0000acec       $unwind$raise$fin$0        000000018002bcec     libucrt:signal.obj
 0002:0000acec       $unwind$?filt$0@?0??common_exit@@YAXHW4_crt_exit_cleanup_mode@@W4_crt_exit_return_mode@@@Z@4HA 000000018002bcec     libucrt:exit.obj
 0002:0000acec       $unwind$?fin$0@?0??dllmain_crt_process_detach@@YAH_N@Z@4HA 000000018002bcec     LIBCMT:dll_dllmain.obj
 0002:0000acec       $unwind$?fin$0@?0???$?RV<lambda_72d1df2b273a38828b1ce30cbf4cdab5>@@AEAV<lambda_876a65b173b8412d3a47c70a915b0cf4>@@V<lambda_41932305e351933ebe8f8be3ed8bb5dc>@@@?$__crt_seh_guarded_call@X@@QEAAX$$QEAV<lambda_72d1df2b273a38828b1ce30cbf4cdab5>@@AEAV<lambda_876a65b173b8412d3a47c70a915b0cf4>@@$$QEAV<lambda_41932305e351933ebe8f8be3ed8bb5dc>@@@Z@4HA 000000018002bcec     libucrt:per_thread_data.obj
 0002:0000acec       $unwind$?fin$0@?0???$?RV<lambda_c36588078e9f5dfd39652860aa6b3aaf>@@AEAV<lambda_ec61778202f4f5fc7e7711acc23c3bca>@@V<lambda_dc9d2797ccde5d239b4a0efae8ebd7db>@@@?$__crt_seh_guarded_call@P6AXH@Z@@QEAAP6AXH@Z$$QEAV<lambda_c36588078e9f5dfd39652860aa6b3aaf>@@AEAV<lambda_ec61778202f4f5fc7e7711acc23c3bca>@@$$QEAV<lambda_dc9d2797ccde5d239b4a0efae8ebd7db>@@@Z@4HA 000000018002bcec     libucrt:signal.obj
 0002:0000acec       $unwind$_IsNonwritableInCurrentImage$filt$0 000000018002bcec     LIBCMT:pesect.obj
 0002:0000acec       $unwind$?fin$0@?0???$?RV<lambda_7b91131dde12e1c3dfc74ff76b3f2eac>@@AEAV<lambda_dd75445284c072d0bd3768540cc698fa>@@V<lambda_16bc4ecb55b4718497c16bceaea2ceaf>@@@?$__crt_seh_guarded_call@H@@QEAAH$$QEAV<lambda_7b91131dde12e1c3dfc74ff76b3f2eac>@@AEAV<lambda_dd75445284c072d0bd3768540cc698fa>@@$$QEAV<lambda_16bc4ecb55b4718497c16bceaea2ceaf>@@@Z@4HA 000000018002bcec     libucrt:output.obj
 0002:0000acec       $unwind$__acrt_initialize_lowio$fin$0 000000018002bcec     libucrt:ioinit.obj
 0002:0000acec       $unwind$__acrt_update_thread_locale_data$fin$0 000000018002bcec     libucrt:locale_refcounting.obj
 0002:0000acec       $unwind$fclose$fin$0       000000018002bcec     libucrt:fclose.obj
 0002:0000acec       $unwind$common_flush_all$fin$1 000000018002bcec     libucrt:fflush.obj
 0002:0000acec       $unwind$?fin$0@?0???$?RV<lambda_bfedae4ebbf01fab1bb6dcc6a9e276e0>@@AEAV<lambda_2fe9b910cf3cbf4a0ab98a02ba45b3ec>@@V<lambda_237c231691f317818eb88cc1d5d642d6>@@@?$__crt_seh_guarded_call@H@@QEAAH$$QEAV<lambda_bfedae4ebbf01fab1bb6dcc6a9e276e0>@@AEAV<lambda_2fe9b910cf3cbf4a0ab98a02ba45b3ec>@@$$QEAV<lambda_237c231691f317818eb88cc1d5d642d6>@@@Z@4HA 000000018002bcec     libucrt:close.obj
 0002:0000acf4       $unwind$common_flush_all   000000018002bcf4     libucrt:fflush.obj
 0002:0000ad30       $unwind$setvbuf            000000018002bd30     libucrt:setvbuf.obj
 0002:0000ad38       $unwind$??$?RV<lambda_7a5ef57ff966f610505f1d28a3d40618>@@AEAV<lambda_b721fa326cdb32351d23dfa67958c160>@@V<lambda_5e0fb27672408a07956fe59e48ccb2aa>@@@?$__crt_seh_guarded_call@H@@QEAAH$$QEAV<lambda_7a5ef57ff966f610505f1d28a3d40618>@@AEAV<lambda_b721fa326cdb32351d23dfa67958c160>@@$$QEAV<lambda_5e0fb27672408a07956fe59e48ccb2aa>@@@Z 000000018002bd38     libucrt:setvbuf.obj
 0002:0000ad5c       $unwind$__acrt_get_sigabrt_handler 000000018002bd5c     libucrt:signal.obj
 0002:0000ad64       $unwind$raise              000000018002bd64     libucrt:signal.obj
 0002:0000ad90       $unwind$??$?RV<lambda_c36588078e9f5dfd39652860aa6b3aaf>@@AEAV<lambda_ec61778202f4f5fc7e7711acc23c3bca>@@V<lambda_dc9d2797ccde5d239b4a0efae8ebd7db>@@@?$__crt_seh_guarded_call@P6AXH@Z@@QEAAP6AXH@Z$$QEAV<lambda_c36588078e9f5dfd39652860aa6b3aaf>@@AEAV<lambda_ec61778202f4f5fc7e7711acc23c3bca>@@$$QEAV<lambda_dc9d2797ccde5d239b4a0efae8ebd7db>@@@Z 000000018002bd90     libucrt:signal.obj
 0002:0000adb4       $unwind$?process@?$output_processor@_WV?$string_output_adapter@_W@__crt_stdio_output@@V?$standard_base@_WV?$string_output_adapter@_W@__crt_stdio_output@@@2@@__crt_stdio_output@@QEAAHXZ 000000018002bdb4     libucrt:output.obj
 0002:0000adb4       $unwind$__acrt_initialize_stdio 000000018002bdb4     libucrt:_file.obj
 0002:0000adb4       $unwind$__acrt_MessageBoxW 000000018002bdb4     libucrt:winapi_thunks.obj
 0002:0000adb4       $unwind$__vcrt_EventRegister 000000018002bdb4     libvcruntime:winapi_downlevel.obj
 0002:0000adb4       $unwind$__vcrt_EventSetInformation 000000018002bdb4     libvcruntime:winapi_downlevel.obj
 0002:0000adb4       $unwind$_initterm          000000018002bdb4     libucrt:initterm.obj
 0002:0000adcc       $unwind$__acrt_is_interactive 000000018002bdcc     libucrt:winapi_thunks.obj
 0002:0000ade0       $unwind$?try_get_function@@YAPEAXW4function_id@?A0x63058377@@QEBDQEBW4module_id@2@2@Z 000000018002bde0     libucrt:winapi_thunks.obj
 0002:0000ade0       $unwind$?try_get_function@@YAPEAXW4function_id@?A0x61ce2399@@QEBDQEBW4module_id@2@2@Z 000000018002bde0     libvcruntime:winapi_downlevel.obj
 0002:0000ade0       $unwind$?write_string@?$string_output_adapter@_W@__crt_stdio_output@@QEBAXQEB_WHQEAH1@Z 000000018002bde0     libucrt:output.obj
 0002:0000adfc       $unwind$__acrt_update_thread_multibyte_data 000000018002bdfc     libucrt:mbctype.obj
 0002:0000ae20       $unwind$_setmbcp_nolock    000000018002be20     libucrt:mbctype.obj
 0002:0000ae40       $unwind$__scrt_dllmain_exception_filter 000000018002be40     LIBCMT:utility.obj
 0002:0000ae40       $unwind$?process@?$output_processor@DV?$string_output_adapter@D@__crt_stdio_output@@V?$format_validation_base@DV?$string_output_adapter@D@__crt_stdio_output@@@2@@__crt_stdio_output@@QEAAHXZ 000000018002be40     libucrt:output.obj
 0002:0000ae40       $unwind$_seh_filter_exe    000000018002be40     libucrt:exception_filter.obj
 0002:0000ae40       $unwind$__acrt_free_locale 000000018002be40     libucrt:locale_refcounting.obj
 0002:0000ae40       $unwind$_wassert           000000018002be40     libucrt:assert.obj
 0002:0000ae40       $unwind$__vcrt_InitializeCriticalSectionEx 000000018002be40     libvcruntime:winapi_downlevel.obj
 0002:0000ae40       $unwind$__acrt_execute_initializers 000000018002be40     libucrt:shared_initialization.obj
 0002:0000ae40       $unwind$_wfullpath         000000018002be40     libucrt:fullpath.obj
 0002:0000ae40       $unwind$__acrt_InitializeCriticalSectionEx 000000018002be40     libucrt:winapi_thunks.obj
 0002:0000ae40       $unwind$?dllmain_raw@@YAHQEAUHINSTANCE__@@KQEAX@Z 000000018002be40     LIBCMT:dll_dllmain.obj
 0002:0000ae40       $unwind$?setSBCS@@YAXPEAU__crt_multibyte_data@@@Z 000000018002be40     libucrt:mbctype.obj
 0002:0000ae40       $unwind$??$ensure_buffer_is_big_enough@D@formatting_buffer@__crt_stdio_output@@QEAA_N_K@Z 000000018002be40     libucrt:output.obj
 0002:0000ae40       $unwind$_recalloc_base     000000018002be40     libucrt:recalloc.obj
 0002:0000ae40       $unwind$__acrt_lowio_create_handle_array 000000018002be40     libucrt:osfinfo.obj
 0002:0000ae54       $unwind$?setSBUpLow@@YAXPEAU__crt_multibyte_data@@@Z 000000018002be54     libucrt:mbctype.obj
 0002:0000ae70       $unwind$?setmbcp_internal@@YAHH_N@Z 000000018002be70     libucrt:mbctype.obj
 0002:0000ae80       $unwind$??$?RV<lambda_99476a1ad63dd22509b5d3e65b0ffc95>@@AEAV<lambda_ad1ced32f4ac17aa236e5ef05d6b3b7c>@@V<lambda_f7424dd8d45958661754dc4f2697e9c3>@@@?$__crt_seh_guarded_call@X@@QEAAX$$QEAV<lambda_99476a1ad63dd22509b5d3e65b0ffc95>@@AEAV<lambda_ad1ced32f4ac17aa236e5ef05d6b3b7c>@@$$QEAV<lambda_f7424dd8d45958661754dc4f2697e9c3>@@@Z 000000018002be80     libucrt:mbctype.obj
 0002:0000aea4       $unwind$__dcrt_get_narrow_environment_from_os 000000018002bea4     libucrt:get_environment_from_os.obj
 0002:0000aea4       $unwind$?fp_format_f_internal@@YAHQEAD_KHQEAU_strflt@@_NQEAU__crt_locale_pointers@@@Z 000000018002bea4     libucrt:cvt.obj
 0002:0000aebc       $unwind$iswctype           000000018002bebc     libucrt:iswctype.obj
 0002:0000aebc       $unwind$__acrt_is_packaged_app 000000018002bebc     libucrt:winapi_thunks.obj
 0002:0000aec8       $unwind$_isctype_l         000000018002bec8     libucrt:isctype.obj
 0002:0000aee4       $unwind$__acrt_update_thread_locale_data 000000018002bee4     libucrt:locale_refcounting.obj
 0002:0000af08       $unwind$__acrt_LCMapStringA 000000018002bf08     libucrt:lcmapstringa.obj
 0002:0000af18       $unwind$?__acrt_LCMapStringA_stat@@YAHPEAU__crt_locale_pointers@@PEB_WKPEBDHPEADHHH@Z 000000018002bf18     libucrt:lcmapstringa.obj
 0002:0000af40       $unwind$__acrt_fltout      000000018002bf40     libucrt:cfout.obj
 0002:0000af60       $unwind$?divide@__crt_strtox@@YA_KAEAUbig_integer@1@AEBU21@@Z 000000018002bf60     libucrt:cfout.obj
 0002:0000af80       $chain$5$?divide@__crt_strtox@@YA_KAEAUbig_integer@1@AEBU21@@Z 000000018002bf80     libucrt:cfout.obj
 0002:0000af94       $chain$6$?divide@__crt_strtox@@YA_KAEAUbig_integer@1@AEBU21@@Z 000000018002bf94     libucrt:cfout.obj
 0002:0000afa4       $unwind$??$write_buffer_nolock@D@@YA_NDV__crt_stdio_stream@@@Z 000000018002bfa4     libucrt:_flsbuf.obj
 0002:0000afb4       $unwind$??$write_buffer_nolock@_W@@YA_N_WV__crt_stdio_stream@@@Z 000000018002bfb4     libucrt:_flsbuf.obj
 0002:0000afc4       $unwind$_fcloseall         000000018002bfc4     libucrt:closeall.obj
 0002:0000afe8       $unwind$__acrt_locale_free_monetary 000000018002bfe8     libucrt:initmon.obj
 0002:0000aff0       $unwind$__acrt_locale_free_time 000000018002bff0     libucrt:inittime.obj
 0002:0000b000       $unwind$__acrt_GetStringTypeA 000000018002c000     libucrt:getstringtypea.obj
 0002:0000b028       $unwind$__acrt_lowio_destroy_handle_array 000000018002c028     libucrt:osfinfo.obj
 0002:0000b038       $unwind$__acrt_lowio_ensure_fh_exists 000000018002c038     libucrt:osfinfo.obj
 0002:0000b064       $unwind$_getdrive          000000018002c064     libucrt:drive.obj
 0002:0000b080       $unwind$??$?RV<lambda_b521505b218e5242e90febf6bfebc422>@@AEAV<lambda_6978c1fb23f02e42e1d9e99668cc68aa>@@V<lambda_314360699dd331753a4119843814e9a7>@@@?$__crt_seh_guarded_call@H@@QEAAH$$QEAV<lambda_b521505b218e5242e90febf6bfebc422>@@AEAV<lambda_6978c1fb23f02e42e1d9e99668cc68aa>@@$$QEAV<lambda_314360699dd331753a4119843814e9a7>@@@Z 000000018002c080     libucrt:commit.obj
 0002:0000b0a4       $unwind$_write             000000018002c0a4     libucrt:write.obj
 0002:0000b0d4       $unwind$_write_nolock      000000018002c0d4     libucrt:write.obj
 0002:0000b0ec       $unwind$?write_double_translated_ansi_nolock@@YA?AUwrite_result@?A0x9c548279@@HQEBDI@Z 000000018002c0ec     libucrt:write.obj
 0002:0000b10c       $unwind$?write_text_utf16le_nolock@@YA?AUwrite_result@?A0x9c548279@@HQEBDI@Z 000000018002c10c     libucrt:write.obj
 0002:0000b10c       $unwind$?write_text_ansi_nolock@@YA?AUwrite_result@?A0x9c548279@@HQEBDI@Z 000000018002c10c     libucrt:write.obj
 0002:0000b12c       $unwind$?write_text_utf8_nolock@@YA?AUwrite_result@?A0x9c548279@@HQEBDI@Z 000000018002c12c     libucrt:write.obj
 0002:0000b150       $unwind$?GetTableIndexFromLocaleName@@YAHPEB_W@Z 000000018002c150     libucrt:lcidtoname_downlevel.obj
 0002:0000b168       $xdatasym                  000000018002c168     libucrt:log10.obj
 0002:0000b174       $unwind$??$common_lseek@_J@@YA_JH_JH@Z 000000018002c174     libucrt:lseek.obj
 0002:0000b1a4       $unwind$fclose             000000018002c1a4     libucrt:fclose.obj
 0002:0000b1c8       $unwind$common_control87   000000018002c1c8     libucrt:ieee.obj
 0002:0000b1f8       $unwind$_call_matherr      000000018002c1f8     libucrt:libm_error.obj
 0002:0000b200       $unwind$_handle_error      000000018002c200     libucrt:libm_error.obj
 0002:0000b220       $unwind$__acrt_initialize_fma3 000000018002c220     libucrt:fma3_available.obj
 0002:0000b228       $unwind$_log_special_common 000000018002c228     libucrt:log_special.obj
 0002:0000b234       $unwind$_close             000000018002c234     libucrt:close.obj
 0002:0000b234       $unwind$_commit            000000018002c234     libucrt:commit.obj
 0002:0000b23c       $unwind$??$?RV<lambda_bfedae4ebbf01fab1bb6dcc6a9e276e0>@@AEAV<lambda_2fe9b910cf3cbf4a0ab98a02ba45b3ec>@@V<lambda_237c231691f317818eb88cc1d5d642d6>@@@?$__crt_seh_guarded_call@H@@QEAAH$$QEAV<lambda_bfedae4ebbf01fab1bb6dcc6a9e276e0>@@AEAV<lambda_2fe9b910cf3cbf4a0ab98a02ba45b3ec>@@$$QEAV<lambda_237c231691f317818eb88cc1d5d642d6>@@@Z 000000018002c23c     libucrt:close.obj
 0002:0000b260       $xdatasym                  000000018002c260     libucrt:fpsr.obj
 0002:0000b268       $unwind$_raise_exc_ex      000000018002c268     libucrt:fpexcept.obj
 0002:0000b27c       $unwind$_ctrlfp            000000018002c27c     libucrt:fpctrl.obj
 0002:0000b2a4       $unwind$_IsNonwritableInCurrentImage 000000018002c2a4     LIBCMT:pesect.obj
 0002:0000b2c8       $unwind$__GSHandlerCheckCommon 000000018002c2c8     LIBCMT:_gshandler_.obj
 0002:0000b2d0       $xdatasym                  000000018002c2d0     LIBCMT:_chkstk_.obj
 0002:0000b2d8       $unwind$strrchr            000000018002c2d8     libvcruntime:strrchr.obj
 0002:0000b2e0       $xdatasym                  000000018002c2e0     libvcruntime:memcmp.obj
 0002:0000daf0       .edata                     000000018002eaf0     zmq.exp
 0002:0000db18       rgpv                       000000018002eb18     zmq.exp
 0002:0000dff8       rgszName                   000000018002eff8     zmq.exp
 0002:0000e4d8       rgwOrd                     000000018002f4d8     zmq.exp
 0002:0000e748       szName                     000000018002f748     zmq.exp
 0002:0000e751       $N00001                    000000018002f751     zmq.exp
 0002:0000e77e       $N00002                    000000018002f77e     zmq.exp
 0002:0000e7a3       $N00003                    000000018002f7a3     zmq.exp
 0002:0000e7cc       $N00004                    000000018002f7cc     zmq.exp
 0002:0000e7f0       $N00005                    000000018002f7f0     zmq.exp
 0002:0000e81a       $N00006                    000000018002f81a     zmq.exp
 0002:0000e848       $N00007                    000000018002f848     zmq.exp
 0002:0000e86e       $N00008                    000000018002f86e     zmq.exp
 0002:0000e8a2       $N00009                    000000018002f8a2     zmq.exp
 0002:0000e8d9       $N00010                    000000018002f8d9     zmq.exp
 0002:0000e90a       $N00011                    000000018002f90a     zmq.exp
 0002:0000e938       $N00012                    000000018002f938     zmq.exp
 0002:0000e95f       $N00013                    000000018002f95f     zmq.exp
 0002:0000e99a       $N00014                    000000018002f99a     zmq.exp
 0002:0000e9cd       $N00015                    000000018002f9cd     zmq.exp
 0002:0000e9fa       $N00016                    000000018002f9fa     zmq.exp
 0002:0000ea2b       $N00017                    000000018002fa2b     zmq.exp
 0002:0000ea46       $N00018                    000000018002fa46     zmq.exp
 0002:0000ea6a       $N00019                    000000018002fa6a     zmq.exp
 0002:0000ea98       $N00020                    000000018002fa98     zmq.exp
 0002:0000eabf       $N00021                    000000018002fabf     zmq.exp
 0002:0000eae3       $N00022                    000000018002fae3     zmq.exp
 0002:0000eb09       $N00023                    000000018002fb09     zmq.exp
 0002:0000eb2e       $N00024                    000000018002fb2e     zmq.exp
 0002:0000eb52       $N00025                    000000018002fb52     zmq.exp
 0002:0000eb6b       $N00026                    000000018002fb6b     zmq.exp
 0002:0000eb9f       $N00027                    000000018002fb9f     zmq.exp
 0002:0000ebd0       $N00028                    000000018002fbd0     zmq.exp
 0002:0000ebf7       $N00029                    000000018002fbf7     zmq.exp
 0002:0000ec2a       $N00030                    000000018002fc2a     zmq.exp
 0002:0000ec57       $N00031                    000000018002fc57     zmq.exp
 0002:0000ec88       $N00032                    000000018002fc88     zmq.exp
 0002:0000ecaf       $N00033                    000000018002fcaf     zmq.exp
 0002:0000eccc       $N00034                    000000018002fccc     zmq.exp
 0002:0000ecfc       $N00035                    000000018002fcfc     zmq.exp
 0002:0000ed2a       $N00036                    000000018002fd2a     zmq.exp
 0002:0000ed5e       $N00037                    000000018002fd5e     zmq.exp
 0002:0000ed82       $N00038                    000000018002fd82     zmq.exp
 0002:0000eda4       $N00039                    000000018002fda4     zmq.exp
 0002:0000edce       $N00040                    000000018002fdce     zmq.exp
 0002:0000edf6       $N00041                    000000018002fdf6     zmq.exp
 0002:0000ee24       $N00042                    000000018002fe24     zmq.exp
 0002:0000ee50       $N00043                    000000018002fe50     zmq.exp
 0002:0000ee76       $N00044                    000000018002fe76     zmq.exp
 0002:0000ee9a       $N00045                    000000018002fe9a     zmq.exp
 0002:0000eec6       $N00046                    000000018002fec6     zmq.exp
 0002:0000eef0       $N00047                    000000018002fef0     zmq.exp
 0002:0000ef25       $N00048                    000000018002ff25     zmq.exp
 0002:0000ef58       $N00049                    000000018002ff58     zmq.exp
 0002:0000ef93       $N00050                    000000018002ff93     zmq.exp
 0002:0000efcc       $N00051                    000000018002ffcc     zmq.exp
 0002:0000eff2       $N00052                    000000018002fff2     zmq.exp
 0002:0000f016       $N00053                    0000000180030016     zmq.exp
 0002:0000f039       $N00054                    0000000180030039     zmq.exp
 0002:0000f05a       $N00055                    000000018003005a     zmq.exp
 0002:0000f081       $N00056                    0000000180030081     zmq.exp
 0002:0000f0a6       $N00057                    00000001800300a6     zmq.exp
 0002:0000f0c9       $N00058                    00000001800300c9     zmq.exp
 0002:0000f0ea       $N00059                    00000001800300ea     zmq.exp
 0002:0000f112       $N00060                    0000000180030112     zmq.exp
 0002:0000f138       $N00061                    0000000180030138     zmq.exp
 0002:0000f15f       $N00062                    000000018003015f     zmq.exp
 0002:0000f184       $N00063                    0000000180030184     zmq.exp
 0002:0000f1b8       $N00064                    00000001800301b8     zmq.exp
 0002:0000f1fa       $N00065                    00000001800301fa     zmq.exp
 0002:0000f225       $N00066                    0000000180030225     zmq.exp
 0002:0000f24e       $N00067                    000000018003024e     zmq.exp
 0002:0000f279       $N00068                    0000000180030279     zmq.exp
 0002:0000f2a2       $N00069                    00000001800302a2     zmq.exp
 0002:0000f2c9       $N00070                    00000001800302c9     zmq.exp
 0002:0000f2ee       $N00071                    00000001800302ee     zmq.exp
 0002:0000f31d       $N00072                    000000018003031d     zmq.exp
 0002:0000f34a       $N00073                    000000018003034a     zmq.exp
 0002:0000f37d       $N00074                    000000018003037d     zmq.exp
 0002:0000f3ae       $N00075                    00000001800303ae     zmq.exp
 0002:0000f3e0       $N00076                    00000001800303e0     zmq.exp
 0002:0000f410       $N00077                    0000000180030410     zmq.exp
 0002:0000f43d       $N00078                    000000018003043d     zmq.exp
 0002:0000f468       $N00079                    0000000180030468     zmq.exp
 0002:0000f491       $N00080                    0000000180030491     zmq.exp
 0002:0000f4b8       $N00081                    00000001800304b8     zmq.exp
 0002:0000f4dc       $N00082                    00000001800304dc     zmq.exp
 0002:0000f4fe       $N00083                    00000001800304fe     zmq.exp
 0002:0000f527       $N00084                    0000000180030527     zmq.exp
 0002:0000f54e       $N00085                    000000018003054e     zmq.exp
 0002:0000f576       $N00086                    0000000180030576     zmq.exp
 0002:0000f59c       $N00087                    000000018003059c     zmq.exp
 0002:0000f5c2       $N00088                    00000001800305c2     zmq.exp
 0002:0000f5e6       $N00089                    00000001800305e6     zmq.exp
 0002:0000f609       $N00090                    0000000180030609     zmq.exp
 0002:0000f62a       $N00091                    000000018003062a     zmq.exp
 0002:0000f64c       $N00092                    000000018003064c     zmq.exp
 0002:0000f66c       $N00093                    000000018003066c     zmq.exp
 0002:0000f692       $N00094                    0000000180030692     zmq.exp
 0002:0000f6b6       $N00095                    00000001800306b6     zmq.exp
 0002:0000f6d9       $N00096                    00000001800306d9     zmq.exp
 0002:0000f6fa       $N00097                    00000001800306fa     zmq.exp
 0002:0000f726       $N00098                    0000000180030726     zmq.exp
 0002:0000f750       $N00099                    0000000180030750     zmq.exp
 0002:0000f775       $N00100                    0000000180030775     zmq.exp
 0002:0000f798       $N00101                    0000000180030798     zmq.exp
 0002:0000f7c3       $N00102                    00000001800307c3     zmq.exp
 0002:0000f7ec       $N00103                    00000001800307ec     zmq.exp
 0002:0000f811       $N00104                    0000000180030811     zmq.exp
 0002:0000f834       $N00105                    0000000180030834     zmq.exp
 0002:0000f861       $N00106                    0000000180030861     zmq.exp
 0002:0000f88c       $N00107                    000000018003088c     zmq.exp
 0002:0000f8c0       $N00108                    00000001800308c0     zmq.exp
 0002:0000f8e8       $N00109                    00000001800308e8     zmq.exp
 0002:0000f90e       $N00110                    000000018003090e     zmq.exp
 0002:0000f934       $N00111                    0000000180030934     zmq.exp
 0002:0000f958       $N00112                    0000000180030958     zmq.exp
 0002:0000f97d       $N00113                    000000018003097d     zmq.exp
 0002:0000f9a0       $N00114                    00000001800309a0     zmq.exp
 0002:0000f9d1       $N00115                    00000001800309d1     zmq.exp
 0002:0000fa00       $N00116                    0000000180030a00     zmq.exp
 0002:0000fa32       $N00117                    0000000180030a32     zmq.exp
 0002:0000fa62       $N00118                    0000000180030a62     zmq.exp
 0002:0000fa87       $N00119                    0000000180030a87     zmq.exp
 0002:0000faaa       $N00120                    0000000180030aaa     zmq.exp
 0002:0000fad7       $N00121                    0000000180030ad7     zmq.exp
 0002:0000fb02       $N00122                    0000000180030b02     zmq.exp
 0002:0000fb24       $N00123                    0000000180030b24     zmq.exp
 0002:0000fb44       $N00124                    0000000180030b44     zmq.exp
 0002:0000fb74       $N00125                    0000000180030b74     zmq.exp
 0002:0000fba2       $N00126                    0000000180030ba2     zmq.exp
 0002:0000fbca       $N00127                    0000000180030bca     zmq.exp
 0002:0000fbf0       $N00128                    0000000180030bf0     zmq.exp
 0002:0000fc19       $N00129                    0000000180030c19     zmq.exp
 0002:0000fc40       $N00130                    0000000180030c40     zmq.exp
 0002:0000fc69       $N00131                    0000000180030c69     zmq.exp
 0002:0000fc90       $N00132                    0000000180030c90     zmq.exp
 0002:0000fcba       $N00133                    0000000180030cba     zmq.exp
 0002:0000fce2       $N00134                    0000000180030ce2     zmq.exp
 0002:0000fd07       $N00135                    0000000180030d07     zmq.exp
 0002:0000fd2a       $N00136                    0000000180030d2a     zmq.exp
 0002:0000fd55       $N00137                    0000000180030d55     zmq.exp
 0002:0000fd7e       $N00138                    0000000180030d7e     zmq.exp
 0002:0000fda3       $N00139                    0000000180030da3     zmq.exp
 0002:0000fdc6       $N00140                    0000000180030dc6     zmq.exp
 0002:0000fdf1       $N00141                    0000000180030df1     zmq.exp
 0002:0000fe1a       $N00142                    0000000180030e1a     zmq.exp
 0002:0000fe41       $N00143                    0000000180030e41     zmq.exp
 0002:0000fe66       $N00144                    0000000180030e66     zmq.exp
 0002:0000fe8f       $N00145                    0000000180030e8f     zmq.exp
 0002:0000feb6       $N00146                    0000000180030eb6     zmq.exp
 0002:0000fedf       $N00147                    0000000180030edf     zmq.exp
 0002:0000ff06       $N00148                    0000000180030f06     zmq.exp
 0002:0000ff30       $N00149                    0000000180030f30     zmq.exp
 0002:0000ff58       $N00150                    0000000180030f58     zmq.exp
 0002:0000ff7d       $N00151                    0000000180030f7d     zmq.exp
 0002:0000ffa0       $N00152                    0000000180030fa0     zmq.exp
 0002:0000ffca       $N00153                    0000000180030fca     zmq.exp
 0002:0000fff2       $N00154                    0000000180030ff2     zmq.exp
 0002:0001001b       $N00155                    000000018003101b     zmq.exp
 0002:00010042       $N00156                    0000000180031042     zmq.exp
 0002:00010072       $N00157                    0000000180031072     zmq.exp
 0002:000100a0       $N00158                    00000001800310a0     zmq.exp
 0002:000100cc       $N00159                    00000001800310cc     zmq.exp
 0002:000100f6       $N00160                    00000001800310f6     zmq.exp
 0002:0001011b       $N00161                    000000018003111b     zmq.exp
 0002:0001013c       $N00162                    000000018003113c     zmq.exp
 0002:0001015b       $N00163                    000000018003115b     zmq.exp
 0002:0001017f       $N00164                    000000018003117f     zmq.exp
 0002:000101a1       $N00165                    00000001800311a1     zmq.exp
 0002:000101c4       $N00166                    00000001800311c4     zmq.exp
 0002:000101e7       $N00167                    00000001800311e7     zmq.exp
 0002:00010206       $N00168                    0000000180031206     zmq.exp
 0002:00010225       $N00169                    0000000180031225     zmq.exp
 0002:00010247       $N00170                    0000000180031247     zmq.exp
 0002:0001025d       $N00171                    000000018003125d     zmq.exp
 0002:0001028e       $N00172                    000000018003128e     zmq.exp
 0002:000102bc       $N00173                    00000001800312bc     zmq.exp
 0002:000102e0       $N00174                    00000001800312e0     zmq.exp
 0002:00010310       $N00175                    0000000180031310     zmq.exp
 0002:0001033a       $N00176                    000000018003133a     zmq.exp
 0002:00010368       $N00177                    0000000180031368     zmq.exp
 0002:0001038c       $N00178                    000000018003138c     zmq.exp
 0002:000103e4       $N00179                    00000001800313e4     zmq.exp
 0002:0001043d       $N00180                    000000018003143d     zmq.exp
 0002:0001047b       $N00181                    000000018003147b     zmq.exp
 0002:000104a9       $N00182                    00000001800314a9     zmq.exp
 0002:000104dd       $N00183                    00000001800314dd     zmq.exp
 0002:00010512       $N00184                    0000000180031512     zmq.exp
 0002:0001053a       $N00185                    000000018003153a     zmq.exp
 0002:00010568       $N00186                    0000000180031568     zmq.exp
 0002:0001059a       $N00187                    000000018003159a     zmq.exp
 0002:000105c4       $N00188                    00000001800315c4     zmq.exp
 0002:000105f4       $N00189                    00000001800315f4     zmq.exp
 0002:0001061f       $N00190                    000000018003161f     zmq.exp
 0002:00010646       $N00191                    0000000180031646     zmq.exp
 0002:00010671       $N00192                    0000000180031671     zmq.exp
 0002:000106a0       $N00193                    00000001800316a0     zmq.exp
 0002:000106cf       $N00194                    00000001800316cf     zmq.exp
 0002:000106fa       $N00195                    00000001800316fa     zmq.exp
 0002:00010727       $N00196                    0000000180031727     zmq.exp
 0002:0001074f       $N00197                    000000018003174f     zmq.exp
 0002:0001077c       $N00198                    000000018003177c     zmq.exp
 0002:000107a8       $N00199                    00000001800317a8     zmq.exp
 0002:000107d2       $N00200                    00000001800317d2     zmq.exp
 0002:000107f8       $N00201                    00000001800317f8     zmq.exp
 0002:0001081f       $N00202                    000000018003181f     zmq.exp
 0002:00010848       $N00203                    0000000180031848     zmq.exp
 0002:00010877       $N00204                    0000000180031877     zmq.exp
 0002:000108a0       $N00205                    00000001800318a0     zmq.exp
 0002:000108ca       $N00206                    00000001800318ca     zmq.exp
 0002:000108f3       $N00207                    00000001800318f3     zmq.exp
 0002:00010927       $N00208                    0000000180031927     zmq.exp
 0002:0001094d       $N00209                    000000018003194d     zmq.exp
 0002:00010981       $N00210                    0000000180031981     zmq.exp
 0002:000109aa       $N00211                    00000001800319aa     zmq.exp
 0002:000109d9       $N00212                    00000001800319d9     zmq.exp
 0002:00010a02       $N00213                    0000000180031a02     zmq.exp
 0002:00010a31       $N00214                    0000000180031a31     zmq.exp
 0002:00010a5e       $N00215                    0000000180031a5e     zmq.exp
 0002:00010a8c       $N00216                    0000000180031a8c     zmq.exp
 0002:00010ab5       $N00217                    0000000180031ab5     zmq.exp
 0002:00010ae3       $N00218                    0000000180031ae3     zmq.exp
 0002:00010b10       $N00219                    0000000180031b10     zmq.exp
 0002:00010b44       $N00220                    0000000180031b44     zmq.exp
 0002:00010b6e       $N00221                    0000000180031b6e     zmq.exp
 0002:00010b9e       $N00222                    0000000180031b9e     zmq.exp
 0002:00010bd5       $N00223                    0000000180031bd5     zmq.exp
 0002:00010c14       $N00224                    0000000180031c14     zmq.exp
 0002:00010c4f       $N00225                    0000000180031c4f     zmq.exp
 0002:00010c8a       $N00226                    0000000180031c8a     zmq.exp
 0002:00010ce7       $N00227                    0000000180031ce7     zmq.exp
 0002:00010d08       $N00228                    0000000180031d08     zmq.exp
 0002:00010d46       $N00229                    0000000180031d46     zmq.exp
 0002:00010d91       $N00230                    0000000180031d91     zmq.exp
 0002:00010df5       $N00231                    0000000180031df5     zmq.exp
 0002:00010e33       $N00232                    0000000180031e33     zmq.exp
 0002:00010e64       $N00233                    0000000180031e64     zmq.exp
 0002:00010ede       $N00234                    0000000180031ede     zmq.exp
 0002:00010f06       $N00235                    0000000180031f06     zmq.exp
 0002:00010f4f       $N00236                    0000000180031f4f     zmq.exp
 0002:00010f65       $N00237                    0000000180031f65     zmq.exp
 0002:00010f99       $N00238                    0000000180031f99     zmq.exp
 0002:00010fb4       $N00239                    0000000180031fb4     zmq.exp
 0002:00010fd1       $N00240                    0000000180031fd1     zmq.exp
 0002:00010ff1       $N00241                    0000000180031ff1     zmq.exp
 0002:00011028       $N00242                    0000000180032028     zmq.exp
 0002:00011069       $N00243                    0000000180032069     zmq.exp
 0002:000110c2       $N00244                    00000001800320c2     zmq.exp
 0002:000110e2       $N00245                    00000001800320e2     zmq.exp
 0002:00011104       $N00246                    0000000180032104     zmq.exp
 0002:00011129       $N00247                    0000000180032129     zmq.exp
 0002:00011175       $N00248                    0000000180032175     zmq.exp
 0002:000111c1       $N00249                    00000001800321c1     zmq.exp
 0002:0001121a       $N00250                    000000018003221a     zmq.exp
 0002:00011275       $N00251                    0000000180032275     zmq.exp
 0002:000112b7       $N00252                    00000001800322b7     zmq.exp
 0002:0001130f       $N00253                    000000018003230f     zmq.exp
 0002:0001136b       $N00254                    000000018003236b     zmq.exp
 0002:0001138d       $N00255                    000000018003238d     zmq.exp
 0002:00011404       $N00256                    0000000180032404     zmq.exp
 0002:00011432       $N00257                    0000000180032432     zmq.exp
 0002:0001154b       $N00258                    000000018003254b     zmq.exp
 0002:0001157a       $N00259                    000000018003257a     zmq.exp
 0002:000115b1       $N00260                    00000001800325b1     zmq.exp
 0002:000115ec       $N00261                    00000001800325ec     zmq.exp
 0002:0001161f       $N00262                    000000018003261f     zmq.exp
 0002:00011656       $N00263                    0000000180032656     zmq.exp
 0002:0001168b       $N00264                    000000018003268b     zmq.exp
 0002:000116c0       $N00265                    00000001800326c0     zmq.exp
 0002:000116f5       $N00266                    00000001800326f5     zmq.exp
 0002:0001172a       $N00267                    000000018003272a     zmq.exp
 0002:0001176d       $N00268                    000000018003276d     zmq.exp
 0002:000117be       $N00269                    00000001800327be     zmq.exp
 0002:00011819       $N00270                    0000000180032819     zmq.exp
 0002:0001186c       $N00271                    000000018003286c     zmq.exp
 0002:000118b1       $N00272                    00000001800328b1     zmq.exp
 0002:00011939       $N00273                    0000000180032939     zmq.exp
 0002:0001195d       $N00274                    000000018003295d     zmq.exp
 0002:0001198d       $N00275                    000000018003298d     zmq.exp
 0002:000119bf       $N00276                    00000001800329bf     zmq.exp
 0002:000119f6       $N00277                    00000001800329f6     zmq.exp
 0002:00011a20       $N00278                    0000000180032a20     zmq.exp
 0002:00011a48       $N00279                    0000000180032a48     zmq.exp
 0002:00011a76       $N00280                    0000000180032a76     zmq.exp
 0002:00011aa3       $N00281                    0000000180032aa3     zmq.exp
 0002:00011ae2       $N00282                    0000000180032ae2     zmq.exp
 0002:00011b19       $N00283                    0000000180032b19     zmq.exp
 0002:00011b3e       $N00284                    0000000180032b3e     zmq.exp
 0002:00011b5f       $N00285                    0000000180032b5f     zmq.exp
 0002:00011b94       $N00286                    0000000180032b94     zmq.exp
 0002:00011bc8       $N00287                    0000000180032bc8     zmq.exp
 0002:00011bfd       $N00288                    0000000180032bfd     zmq.exp
 0002:00011c1c       $N00289                    0000000180032c1c     zmq.exp
 0002:00011c4c       $N00290                    0000000180032c4c     zmq.exp
 0002:00011c7b       $N00291                    0000000180032c7b     zmq.exp
 0002:00011cb0       $N00292                    0000000180032cb0     zmq.exp
 0002:00011ce1       $N00293                    0000000180032ce1     zmq.exp
 0002:00011d17       $N00294                    0000000180032d17     zmq.exp
 0002:00011d40       $N00295                    0000000180032d40     zmq.exp
 0002:00011d77       $N00296                    0000000180032d77     zmq.exp
 0002:00011db1       $N00297                    0000000180032db1     zmq.exp
 0002:00011dea       $N00298                    0000000180032dea     zmq.exp
 0002:00011e24       $N00299                    0000000180032e24     zmq.exp
 0002:00011e59       $N00300                    0000000180032e59     zmq.exp
 0002:00011ea1       $N00301                    0000000180032ea1     zmq.exp
 0002:00011ec7       $N00302                    0000000180032ec7     zmq.exp
 0002:00011efe       $N00303                    0000000180032efe     zmq.exp
 0002:00011f2d       $N00304                    0000000180032f2d     zmq.exp
 0002:00011f5a       $N00305                    0000000180032f5a     zmq.exp
 0002:00011f8c       $N00306                    0000000180032f8c     zmq.exp
 0002:00011fbc       $N00307                    0000000180032fbc     zmq.exp
 0002:00011fee       $N00308                    0000000180032fee     zmq.exp
 0002:0001201b       $N00309                    000000018003301b     zmq.exp
 0002:00012053       $N00310                    0000000180033053     zmq.exp
 0002:00012084       $N00311                    0000000180033084     zmq.exp
 0002:000120b0       $N00312                    00000001800330b0     zmq.exp
 0002:000123c0       .idata$6                   00000001800333c0     kernel32:KERNEL32.dll
 0002:0001291c       .idata$6                   000000018003391c     advapi32:ADVAPI32.dll
 0003:00000030       ?_Tlg_Microsoft_CRTProviderProv@@3U_TlgProvider_t@__vcrt_trace_logging_provider@@A 0000000180034030     libvcruntime:telemetry.obj
 0003:00000080       ?__vcrt_flsindex@@3KA      0000000180034080     libvcruntime:per_thread_data.obj
 0003:00000094       __acrt_flsindex            0000000180034094     libucrt:per_thread_data.obj
 0003:00000098       errno_no_memory            0000000180034098     libucrt:errno.obj
 0003:0000009c       doserrno_no_memory         000000018003409c     libucrt:errno.obj
 0003:00000590       __rgctypeflag              0000000180034590     libucrt:mbctype.obj
 0003:000005a0       __rgcode_page_info         00000001800345a0     libucrt:mbctype.obj
 0003:00000950       ?dazSupported@?1??common_control87@@9@9 0000000180034950     libucrt:ieee.obj
 0003:00000970       ?dazSupported@?1??_ctrlfp@@9@9 0000000180034970     libucrt:fpctrl.obj
 0003:00000990       _module                    0000000180034990     binding.obj
 0003:00000f80       GS_ExceptionRecord         0000000180034f80     LIBCMT:gs_report.obj
 0003:00001020       GS_ContextRecord           0000000180035020     LIBCMT:gs_report.obj
 0003:00001500       ?module_local_atexit_table@@3U_onexit_table_t@@A 0000000180035500     LIBCMT:utility.obj
 0003:00001518       ?module_local_at_quick_exit_table@@3U_onexit_table_t@@A 0000000180035518     LIBCMT:utility.obj
 0003:00001530       ?is_initialized_as_dll@@3_NA 0000000180035530     LIBCMT:utility.obj
 0003:00001534       ?__proc_attached@@3HA      0000000180035534     LIBCMT:dll_dllmain.obj
 0003:00001560       ?__vcrt_startup_thread_ptd@@3U__vcrt_ptd@@A 0000000180035560     libvcruntime:per_thread_data.obj
 0003:000015d8       __vcrt_lock_table          00000001800355d8     libvcruntime:locks.obj
 0003:00001600       __vcrt_locks_initialized   0000000180035600     libvcruntime:locks.obj
 0003:00001610       ?module_handles@@3PAPEAUHINSTANCE__@@A 0000000180035610     libvcruntime:winapi_downlevel.obj
 0003:00001630       ?encoded_function_pointers@@3PAPEAXA 0000000180035630     libvcruntime:winapi_downlevel.obj
 0003:000016c0       ?heap@@3V_HeapManager@@A   00000001800356c0     libvcruntime:undname.obj
 0003:000016e8       __acrt_invalid_parameter_handler 00000001800356e8     libucrt:invalid_parameter.obj
 0003:000016f0       __acrt_new_handler         00000001800356f0     libucrt:new_handler.obj
 0003:000016f8       c_termination_complete     00000001800356f8     libucrt:exit.obj
 0003:00001700       thread_local_exit_callback_func 0000000180035700     libucrt:exit.obj
 0003:00001708       ?c_exit_complete@?5??common_exit@@YAXHW4_crt_exit_cleanup_mode@@W4_crt_exit_return_mode@@@Z@4_NA 0000000180035708     libucrt:exit.obj
 0003:00001778       enable_percent_n           0000000180035778     libucrt:printf_count_output.obj
 0003:00001ba4       __acrt_app_type            0000000180035ba4     libucrt:report_runtime_error.obj
 0003:00001ba8       __acrt_error_mode          0000000180035ba8     libucrt:set_error_mode.obj
 0003:00001bb0       ctrlc_action               0000000180035bb0     libucrt:signal.obj
 0003:00001bb8       ctrlbreak_action           0000000180035bb8     libucrt:signal.obj
 0003:00001bc0       abort_action               0000000180035bc0     libucrt:signal.obj
 0003:00001bc8       term_action                0000000180035bc8     libucrt:signal.obj
 0003:00001bd0       __acrt_lock_table          0000000180035bd0     libucrt:locks.obj
 0003:00001dd8       __acrt_locks_initialized   0000000180035dd8     libucrt:locks.obj
 0003:00001de0       module_handles             0000000180035de0     libucrt:winapi_thunks.obj
 0003:00001e80       encoded_function_pointers  0000000180035e80     libucrt:winapi_thunks.obj
 0003:00001f80       ?state_cache@?1??__acrt_is_packaged_app@@9@4JA 0000000180035f80     libucrt:winapi_thunks.obj
 0003:00001f9c       fSystemSet                 0000000180035f9c     libucrt:mbctype.obj
 0003:00001fa8       ?initialized@?1??__acrt_initialize_multibyte@@9@4_NA 0000000180035fa8     libucrt:mbctype.obj
 0003:00001fd8       user_matherr               0000000180035fd8     libucrt:matherr.obj
 0003:00001fe0       __acrt_global_new_mode     0000000180035fe0     libucrt:new_mode.obj
 0004:00000000       $pdata$?TraceLoggingRegister@__vcrt_trace_logging_provider@@YAJPEBU_TlgProvider_t@1@PEBU_GUID@@P6AX1KE_K2PEAU_EVENT_FILTER_DESCRIPTOR@@PEAX@Z4@Z 0000000180037000     libvcruntime:telemetry.obj
 0004:0000000c       $pdata$?_TlgEnableCallback@__vcrt_trace_logging_provider@@YAXPEBU_GUID@@KE_K1PEAU_EVENT_FILTER_DESCRIPTOR@@PEAX@Z 000000018003700c     libvcruntime:telemetry.obj
 0004:00000018       $pdata$?_TlgWrite@__vcrt_trace_logging_provider@@YAJPEBU_TlgProvider_t@1@PEFBXPEBU_GUID@@2IPEAU_EVENT_DATA_DESCRIPTOR@@@Z 0000000180037018     libvcruntime:telemetry.obj
 0004:00000024       $pdata$??__Eopts_int@zmq@@YAXXZ 0000000180037024     binding.obj
 0004:00000030       $pdata$??__Eopts_uint32@zmq@@YAXXZ 0000000180037030     binding.obj
 0004:0000003c       $pdata$??__Eopts_int64@zmq@@YAXXZ 000000018003703c     binding.obj
 0004:00000048       $pdata$??__Eopts_uint64@zmq@@YAXXZ 0000000180037048     binding.obj
 0004:00000054       $pdata$??__Eopts_binary@zmq@@YAXXZ 0000000180037054     binding.obj
 0004:00000060       $pdata$sprintf             0000000180037060     binding.obj
 0004:0000006c       $pdata$??_EExternalSourceStream@ScriptCompiler@v8@@UEAAPEAXI@Z 000000018003706c     binding.obj
 0004:00000078       $pdata$0$??_EExternalSourceStream@ScriptCompiler@v8@@UEAAPEAXI@Z 0000000180037078     binding.obj
 0004:00000084       $pdata$1$??_EExternalSourceStream@ScriptCompiler@v8@@UEAAPEAXI@Z 0000000180037084     binding.obj
 0004:00000090       $pdata$?NewInstance@Function@v8@@QEBA?AV?$MaybeLocal@VObject@v8@@@2@V?$Local@VContext@v8@@@2@@Z 0000000180037090     binding.obj
 0004:0000009c       $pdata$?SetIndexedPropertyHandler@ObjectTemplate@v8@@QEAAXP6AXIAEBV?$PropertyCallbackInfo@VValue@v8@@@2@@ZP6AXIV?$Local@VValue@v8@@@2@0@ZP6AXIAEBV?$PropertyCallbackInfo@VInteger@v8@@@2@@ZP6AXIAEBV?$PropertyCallbackInfo@VBoolean@v8@@@2@@ZP6AXAEBV?$PropertyCallbackInfo@VArray@v8@@@2@@Z2@Z 000000018003709c     binding.obj
 0004:000000a8       $pdata$??0Scope@Isolate@v8@@QEAA@PEAV12@@Z 00000001800370a8     binding.obj
 0004:000000b4       $pdata$??0Unlocker@v8@@QEAA@PEAVIsolate@1@@Z 00000001800370b4     binding.obj
 0004:000000c0       $pdata$??0Locker@v8@@QEAA@PEAVIsolate@1@@Z 00000001800370c0     binding.obj
 0004:000000cc       $pdata$?Set@Template@v8@@QEAAXPEAVIsolate@2@PEBDV?$Local@VData@v8@@@2@@Z 00000001800370cc     binding.obj
 0004:000000d8       $pdata$?GetInternalField@Object@v8@@QEAA?AV?$Local@VValue@v8@@@2@H@Z 00000001800370d8     binding.obj
 0004:000000e4       $pdata$?ToBoolean@Value@v8@@QEBA?AV?$Local@VBoolean@v8@@@2@XZ 00000001800370e4     binding.obj
 0004:000000f0       $pdata$?ToNumber@Value@v8@@QEBA?AV?$Local@VNumber@v8@@@2@XZ 00000001800370f0     binding.obj
 0004:000000fc       $pdata$?ToString@Value@v8@@QEBA?AV?$Local@VString@v8@@@2@XZ 00000001800370fc     binding.obj
 0004:00000108       $pdata$?ToDetailString@Value@v8@@QEBA?AV?$Local@VString@v8@@@2@XZ 0000000180037108     binding.obj
 0004:00000114       $pdata$?ToObject@Value@v8@@QEBA?AV?$Local@VObject@v8@@@2@XZ 0000000180037114     binding.obj
 0004:00000120       $pdata$?ToInteger@Value@v8@@QEBA?AV?$Local@VInteger@v8@@@2@XZ 0000000180037120     binding.obj
 0004:0000012c       $pdata$?ToUint32@Value@v8@@QEBA?AV?$Local@VUint32@v8@@@2@XZ 000000018003712c     binding.obj
 0004:00000138       $pdata$?ToInt32@Value@v8@@QEBA?AV?$Local@VInt32@v8@@@2@XZ 0000000180037138     binding.obj
 0004:00000144       $pdata$?AdjustAmountOfExternalAllocatedMemory@Isolate@v8@@QEAA_J_J@Z 0000000180037144     binding.obj
 0004:00000150       $pdata$?GetEmbedderData@Context@v8@@QEAA?AV?$Local@VValue@v8@@@2@H@Z 0000000180037150     binding.obj
 0004:0000015c       $pdata$?SetAllowCodeGenerationFromStringsCallback@V8@v8@@SAXP6A_NV?$Local@VContext@v8@@@2@@Z@Z 000000018003715c     binding.obj
 0004:00000168       $pdata$?IsDead@V8@v8@@SA_NXZ 0000000180037168     binding.obj
 0004:00000174       $pdata$?AddMessageListener@V8@v8@@SA_NP6AXV?$Local@VMessage@v8@@@2@V?$Local@VValue@v8@@@2@@Z1@Z 0000000180037174     binding.obj
 0004:00000180       $pdata$?RemoveMessageListeners@V8@v8@@SAXP6AXV?$Local@VMessage@v8@@@2@V?$Local@VValue@v8@@@2@@Z@Z 0000000180037180     binding.obj
 0004:0000018c       $pdata$?SetFailedAccessCheckCallbackFunction@V8@v8@@SAXP6AXV?$Local@VObject@v8@@@2@W4AccessType@2@V?$Local@VValue@v8@@@2@@Z@Z 000000018003718c     binding.obj
 0004:00000198       $pdata$?SetCaptureStackTraceForUncaughtExceptions@V8@v8@@SAX_NHW4StackTraceOptions@StackTrace@2@@Z 0000000180037198     binding.obj
 0004:000001a4       $pdata$?SetFatalErrorHandler@V8@v8@@SAXP6AXPEBD0@Z@Z 00000001800371a4     binding.obj
 0004:000001b0       $pdata$?RemoveGCPrologueCallback@V8@v8@@SAXP6AXW4GCType@2@W4GCCallbackFlags@2@@Z@Z 00000001800371b0     binding.obj
 0004:000001bc       $pdata$?RemoveGCEpilogueCallback@V8@v8@@SAXP6AXW4GCType@2@W4GCCallbackFlags@2@@Z@Z 00000001800371bc     binding.obj
 0004:000001c8       $pdata$?AddMemoryAllocationCallback@V8@v8@@SAXP6AXW4ObjectSpace@2@W4AllocationAction@2@H@Z01@Z 00000001800371c8     binding.obj
 0004:000001d4       $pdata$?RemoveMemoryAllocationCallback@V8@v8@@SAXP6AXW4ObjectSpace@2@W4AllocationAction@2@H@Z@Z 00000001800371d4     binding.obj
 0004:000001e0       $pdata$?IsExecutionTerminating@V8@v8@@SA_NPEAVIsolate@2@@Z 00000001800371e0     binding.obj
 0004:000001ec       $pdata$?VisitExternalResources@V8@v8@@SAXPEAVExternalResourceVisitor@2@@Z 00000001800371ec     binding.obj
 0004:000001f8       $pdata$?VisitHandlesWithClassIds@V8@v8@@SAXPEAVPersistentHandleVisitor@2@@Z 00000001800371f8     binding.obj
 0004:00000204       $pdata$??_EExternalOneByteStringResource@String@v8@@UEAAPEAXI@Z 0000000180037204     binding.obj
 0004:00000204       $pdata$??_EExternalStringResource@String@v8@@UEAAPEAXI@Z 0000000180037204     binding.obj
 0004:00000204       $pdata$??_EExternalStringResourceBase@String@v8@@UEAAPEAXI@Z 0000000180037204     binding.obj
 0004:00000210       $pdata$0$??_EExternalOneByteStringResource@String@v8@@UEAAPEAXI@Z 0000000180037210     binding.obj
 0004:00000210       $pdata$0$??_EExternalStringResourceBase@String@v8@@UEAAPEAXI@Z 0000000180037210     binding.obj
 0004:00000210       $pdata$0$??_EExternalStringResource@String@v8@@UEAAPEAXI@Z 0000000180037210     binding.obj
 0004:0000021c       $pdata$1$??_EExternalOneByteStringResource@String@v8@@UEAAPEAXI@Z 000000018003721c     binding.obj
 0004:0000021c       $pdata$1$??_EExternalStringResourceBase@String@v8@@UEAAPEAXI@Z 000000018003721c     binding.obj
 0004:0000021c       $pdata$1$??_EExternalStringResource@String@v8@@UEAAPEAXI@Z 000000018003721c     binding.obj
 0004:00000228       $pdata$??_EAllocator@ArrayBuffer@v8@@UEAAPEAXI@Z 0000000180037228     binding.obj
 0004:00000234       $pdata$0$??_EAllocator@ArrayBuffer@v8@@UEAAPEAXI@Z 0000000180037234     binding.obj
 0004:00000240       $pdata$1$??_EAllocator@ArrayBuffer@v8@@UEAAPEAXI@Z 0000000180037240     binding.obj
 0004:0000024c       $pdata$??_EExternalOneByteStringResourceImpl@v8@@UEAAPEAXI@Z 000000018003724c     binding.obj
 0004:00000258       $pdata$0$??_EExternalOneByteStringResourceImpl@v8@@UEAAPEAXI@Z 0000000180037258     binding.obj
 0004:00000264       $pdata$1$??_EExternalOneByteStringResourceImpl@v8@@UEAAPEAXI@Z 0000000180037264     binding.obj
 0004:00000270       $pdata$??_EExtension@v8@@UEAAPEAXI@Z 0000000180037270     binding.obj
 0004:0000027c       $pdata$0$??_EExtension@v8@@UEAAPEAXI@Z 000000018003727c     binding.obj
 0004:00000288       $pdata$1$??_EExtension@v8@@UEAAPEAXI@Z 0000000180037288     binding.obj
 0004:00000294       $pdata$??_EExternalResourceVisitor@v8@@UEAAPEAXI@Z 0000000180037294     binding.obj
 0004:00000294       $pdata$??_EPersistentHandleVisitor@v8@@UEAAPEAXI@Z 0000000180037294     binding.obj
 0004:000002a0       $pdata$0$??_EExternalResourceVisitor@v8@@UEAAPEAXI@Z 00000001800372a0     binding.obj
 0004:000002a0       $pdata$0$??_EPersistentHandleVisitor@v8@@UEAAPEAXI@Z 00000001800372a0     binding.obj
 0004:000002ac       $pdata$1$??_EExternalResourceVisitor@v8@@UEAAPEAXI@Z 00000001800372ac     binding.obj
 0004:000002ac       $pdata$1$??_EPersistentHandleVisitor@v8@@UEAAPEAXI@Z 00000001800372ac     binding.obj
 0004:000002b8       $pdata$??_Gexception@stdext@@UEAAPEAXI@Z 00000001800372b8     binding.obj
 0004:000002b8       $pdata$??_Gruntime_error@std@@UEAAPEAXI@Z 00000001800372b8     binding.obj
 0004:000002c4       $pdata$?FunctionCallbackWrapper@imp@Nan@@YAXAEBV?$FunctionCallbackInfo@VValue@v8@@@v8@@@Z 00000001800372c4     binding.obj
 0004:000002d0       $pdata$?GetterCallbackWrapper@imp@Nan@@YAXV?$Local@VName@v8@@@v8@@AEBV?$PropertyCallbackInfo@VValue@v8@@@4@@Z 00000001800372d0     binding.obj
 0004:000002dc       $pdata$?SetterCallbackWrapper@imp@Nan@@YAXV?$Local@VName@v8@@@v8@@V?$Local@VValue@v8@@@4@AEBV?$PropertyCallbackInfo@X@4@@Z 00000001800372dc     binding.obj
 0004:000002e8       $pdata$?New@?$Factory@VFunctionTemplate@v8@@@imp@Nan@@SA?AV?$Local@VFunctionTemplate@v8@@@v8@@P6AXAEBV?$FunctionCallbackInfo@VValue@v8@@@3@@ZV?$Local@VValue@v8@@@5@V?$Local@VSignature@v8@@@5@@Z 00000001800372e8     binding.obj
 0004:000002f4       $pdata$0$?New@?$Factory@VFunctionTemplate@v8@@@imp@Nan@@SA?AV?$Local@VFunctionTemplate@v8@@@v8@@P6AXAEBV?$FunctionCallbackInfo@VValue@v8@@@3@@ZV?$Local@VValue@v8@@@5@V?$Local@VSignature@v8@@@5@@Z 00000001800372f4     binding.obj
 0004:00000300       $pdata$1$?New@?$Factory@VFunctionTemplate@v8@@@imp@Nan@@SA?AV?$Local@VFunctionTemplate@v8@@@v8@@P6AXAEBV?$FunctionCallbackInfo@VValue@v8@@@3@@ZV?$Local@VValue@v8@@@5@V?$Local@VSignature@v8@@@5@@Z 0000000180037300     binding.obj
 0004:0000030c       $pdata$?SetAccessor@Nan@@YAXV?$Local@VObjectTemplate@v8@@@v8@@V?$Local@VString@v8@@@3@P6AX1AEBV?$PropertyCallbackInfo@VValue@v8@@@1@@ZP6AX1V?$Local@VValue@v8@@@3@AEBV?$PropertyCallbackInfo@X@1@@Z4W4AccessControl@3@W4PropertyAttribute@3@V?$Local@VAccessorSignature@v8@@@3@@Z 000000018003730c     binding.obj
 0004:00000318       $pdata$?Wrap@ObjectWrap@Nan@@IEAAXV?$Local@VObject@v8@@@v8@@@Z 0000000180037318     binding.obj
 0004:00000324       $pdata$?Ref@ObjectWrap@Nan@@MEAAXXZ 0000000180037324     binding.obj
 0004:00000330       $pdata$?Unref@ObjectWrap@Nan@@MEAAXXZ 0000000180037330     binding.obj
 0004:0000033c       $pdata$?WeakCallback@ObjectWrap@Nan@@CAXAEBV?$WeakCallbackInfo@VObjectWrap@Nan@@@v8@@@Z 000000018003733c     binding.obj
 0004:00000348       $pdata$??_GObjectWrap@Nan@@UEAAPEAXI@Z 0000000180037348     binding.obj
 0004:00000354       $pdata$?ExceptionFromError@zmq@@YA?AV?$Local@VValue@v8@@@v8@@XZ 0000000180037354     binding.obj
 0004:00000360       $pdata$?Initialize@Context@zmq@@SAXV?$Local@VObject@v8@@@v8@@@Z 0000000180037360     binding.obj
 0004:0000036c       $pdata$??1Context@zmq@@UEAA@XZ 000000018003736c     binding.obj
 0004:00000378       $pdata$??_GContext@zmq@@UEAAPEAXI@Z 0000000180037378     binding.obj
 0004:00000384       $pdata$?New@Context@zmq@@CAXAEBV?$FunctionCallbackInfo@VValue@v8@@@Nan@@@Z 0000000180037384     binding.obj
 0004:00000390       $pdata$0$?New@Context@zmq@@CAXAEBV?$FunctionCallbackInfo@VValue@v8@@@Nan@@@Z 0000000180037390     binding.obj
 0004:0000039c       $pdata$2$?New@Context@zmq@@CAXAEBV?$FunctionCallbackInfo@VValue@v8@@@Nan@@@Z 000000018003739c     binding.obj
 0004:000003a8       $pdata$4$?New@Context@zmq@@CAXAEBV?$FunctionCallbackInfo@VValue@v8@@@Nan@@@Z 00000001800373a8     binding.obj
 0004:000003b4       $pdata$?GetSocket@Socket@zmq@@CAPEAV12@AEBV?$FunctionCallbackInfo@VValue@v8@@@Nan@@@Z 00000001800373b4     binding.obj
 0004:000003b4       $pdata$?GetContext@Context@zmq@@CAPEAV12@AEBV?$FunctionCallbackInfo@VValue@v8@@@Nan@@@Z 00000001800373b4     binding.obj
 0004:000003c0       $pdata$?Close@Context@zmq@@CAXAEBV?$FunctionCallbackInfo@VValue@v8@@@Nan@@@Z 00000001800373c0     binding.obj
 0004:000003cc       $pdata$?SetOpt@Context@zmq@@CAXAEBV?$FunctionCallbackInfo@VValue@v8@@@Nan@@@Z 00000001800373cc     binding.obj
 0004:000003d8       $pdata$?GetOpt@Context@zmq@@CAXAEBV?$FunctionCallbackInfo@VValue@v8@@@Nan@@@Z 00000001800373d8     binding.obj
 0004:000003e4       $pdata$?Initialize@Socket@zmq@@SAXV?$Local@VObject@v8@@@v8@@@Z 00000001800373e4     binding.obj
 0004:000003f0       $pdata$??1Socket@zmq@@UEAA@XZ 00000001800373f0     binding.obj
 0004:000003fc       $pdata$??_GSocket@zmq@@UEAAPEAXI@Z 00000001800373fc     binding.obj
 0004:00000408       $pdata$?New@Socket@zmq@@CAXAEBV?$FunctionCallbackInfo@VValue@v8@@@Nan@@@Z 0000000180037408     binding.obj
 0004:00000414       $pdata$1$?New@Socket@zmq@@CAXAEBV?$FunctionCallbackInfo@VValue@v8@@@Nan@@@Z 0000000180037414     binding.obj
 0004:00000420       $pdata$3$?New@Socket@zmq@@CAXAEBV?$FunctionCallbackInfo@VValue@v8@@@Nan@@@Z 0000000180037420     binding.obj
 0004:0000042c       $pdata$5$?New@Socket@zmq@@CAXAEBV?$FunctionCallbackInfo@VValue@v8@@@Nan@@@Z 000000018003742c     binding.obj
 0004:00000438       $pdata$?IsReady@Socket@zmq@@AEAA_NXZ 0000000180037438     binding.obj
 0004:00000444       $pdata$?CallbackIfReady@Socket@zmq@@QEAAXXZ 0000000180037444     binding.obj
 0004:00000450       $pdata$1$?CallbackIfReady@Socket@zmq@@QEAAXXZ 0000000180037450     binding.obj
 0004:0000045c       $pdata$2$?CallbackIfReady@Socket@zmq@@QEAAXXZ 000000018003745c     binding.obj
 0004:00000468       $pdata$?UV_PollCallback@Socket@zmq@@CAXPEAUuv_poll_s@@HH@Z 0000000180037468     binding.obj
 0004:00000474       $pdata$0$?UV_PollCallback@Socket@zmq@@CAXPEAUuv_poll_s@@HH@Z 0000000180037474     binding.obj
 0004:00000480       $pdata$1$?UV_PollCallback@Socket@zmq@@CAXPEAUuv_poll_s@@HH@Z 0000000180037480     binding.obj
 0004:0000048c       $pdata$?MonitorEvent@Socket@zmq@@QEAAXGHPEAD@Z 000000018003748c     binding.obj
 0004:00000498       $pdata$?MonitorError@Socket@zmq@@QEAAXPEBD@Z 0000000180037498     binding.obj
 0004:000004a4       $pdata$?UV_MonitorCallback@Socket@zmq@@CAXPEAUuv_timer_s@@H@Z 00000001800374a4     binding.obj
 0004:000004b0       $pdata$??0Socket@zmq@@AEAA@PEAVContext@1@H@Z 00000001800374b0     binding.obj
 0004:000004bc       $pdata$?GetState@Socket@zmq@@CAXV?$Local@VString@v8@@@v8@@AEBV?$PropertyCallbackInfo@VValue@v8@@@Nan@@@Z 00000001800374bc     binding.obj
 0004:000004c8       $pdata$?GetPending@Socket@zmq@@CAXV?$Local@VString@v8@@@v8@@AEBV?$PropertyCallbackInfo@VValue@v8@@@Nan@@@Z 00000001800374c8     binding.obj
 0004:000004d4       $pdata$?SetPending@Socket@zmq@@CAXV?$Local@VString@v8@@@v8@@V?$Local@VValue@v8@@@4@AEBV?$PropertyCallbackInfo@X@Nan@@@Z 00000001800374d4     binding.obj
 0004:000004e0       $pdata$??$GetSockOpt@PEAD@Socket@zmq@@AEAA?AV?$Local@VValue@v8@@@v8@@H@Z 00000001800374e0     binding.obj
 0004:000004ec       $pdata$0$??$GetSockOpt@PEAD@Socket@zmq@@AEAA?AV?$Local@VValue@v8@@@v8@@H@Z 00000001800374ec     binding.obj
 0004:000004f8       $pdata$1$??$GetSockOpt@PEAD@Socket@zmq@@AEAA?AV?$Local@VValue@v8@@@v8@@H@Z 00000001800374f8     binding.obj
 0004:00000504       $pdata$??$SetSockOpt@PEAD@Socket@zmq@@AEAA?AV?$Local@VValue@v8@@@v8@@HV23@@Z 0000000180037504     binding.obj
 0004:00000510       $pdata$0$??$SetSockOpt@PEAD@Socket@zmq@@AEAA?AV?$Local@VValue@v8@@@v8@@HV23@@Z 0000000180037510     binding.obj
 0004:0000051c       $pdata$1$??$SetSockOpt@PEAD@Socket@zmq@@AEAA?AV?$Local@VValue@v8@@@v8@@HV23@@Z 000000018003751c     binding.obj
 0004:00000528       $pdata$?GetSockOpt@Socket@zmq@@CAXAEBV?$FunctionCallbackInfo@VValue@v8@@@Nan@@@Z 0000000180037528     binding.obj
 0004:00000534       $pdata$0$?GetSockOpt@Socket@zmq@@CAXAEBV?$FunctionCallbackInfo@VValue@v8@@@Nan@@@Z 0000000180037534     binding.obj
 0004:00000540       $pdata$2$?GetSockOpt@Socket@zmq@@CAXAEBV?$FunctionCallbackInfo@VValue@v8@@@Nan@@@Z 0000000180037540     binding.obj
 0004:0000054c       $pdata$5$?GetSockOpt@Socket@zmq@@CAXAEBV?$FunctionCallbackInfo@VValue@v8@@@Nan@@@Z 000000018003754c     binding.obj
 0004:00000558       $pdata$?SetSockOpt@Socket@zmq@@CAXAEBV?$FunctionCallbackInfo@VValue@v8@@@Nan@@@Z 0000000180037558     binding.obj
 0004:00000564       $pdata$0$?SetSockOpt@Socket@zmq@@CAXAEBV?$FunctionCallbackInfo@VValue@v8@@@Nan@@@Z 0000000180037564     binding.obj
 0004:00000570       $pdata$2$?SetSockOpt@Socket@zmq@@CAXAEBV?$FunctionCallbackInfo@VValue@v8@@@Nan@@@Z 0000000180037570     binding.obj
 0004:0000057c       $pdata$5$?SetSockOpt@Socket@zmq@@CAXAEBV?$FunctionCallbackInfo@VValue@v8@@@Nan@@@Z 000000018003757c     binding.obj
 0004:00000588       $pdata$??0BindState@Socket@zmq@@QEAA@PEAV12@V?$Local@VFunction@v8@@@v8@@V?$Local@VString@v8@@@4@@Z 0000000180037588     binding.obj
 0004:00000594       $pdata$?Bind@Socket@zmq@@CAXAEBV?$FunctionCallbackInfo@VValue@v8@@@Nan@@@Z 0000000180037594     binding.obj
 0004:000005a0       $pdata$1$?Bind@Socket@zmq@@CAXAEBV?$FunctionCallbackInfo@VValue@v8@@@Nan@@@Z 00000001800375a0     binding.obj
 0004:000005ac       $pdata$3$?Bind@Socket@zmq@@CAXAEBV?$FunctionCallbackInfo@VValue@v8@@@Nan@@@Z 00000001800375ac     binding.obj
 0004:000005b8       $pdata$4$?Bind@Socket@zmq@@CAXAEBV?$FunctionCallbackInfo@VValue@v8@@@Nan@@@Z 00000001800375b8     binding.obj
 0004:000005c4       $pdata$?UV_BindAsync@Socket@zmq@@CAXPEAUuv_work_s@@@Z 00000001800375c4     binding.obj
 0004:000005d0       $pdata$?UV_BindAsyncAfter@Socket@zmq@@CAXPEAUuv_work_s@@@Z 00000001800375d0     binding.obj
 0004:000005dc       $pdata$?BindSync@Socket@zmq@@CAXAEBV?$FunctionCallbackInfo@VValue@v8@@@Nan@@@Z 00000001800375dc     binding.obj
 0004:000005e8       $pdata$0$?BindSync@Socket@zmq@@CAXAEBV?$FunctionCallbackInfo@VValue@v8@@@Nan@@@Z 00000001800375e8     binding.obj
 0004:000005f4       $pdata$1$?BindSync@Socket@zmq@@CAXAEBV?$FunctionCallbackInfo@VValue@v8@@@Nan@@@Z 00000001800375f4     binding.obj
 0004:00000600       $pdata$?Unbind@Socket@zmq@@CAXAEBV?$FunctionCallbackInfo@VValue@v8@@@Nan@@@Z 0000000180037600     binding.obj
 0004:0000060c       $pdata$1$?Unbind@Socket@zmq@@CAXAEBV?$FunctionCallbackInfo@VValue@v8@@@Nan@@@Z 000000018003760c     binding.obj
 0004:00000618       $pdata$3$?Unbind@Socket@zmq@@CAXAEBV?$FunctionCallbackInfo@VValue@v8@@@Nan@@@Z 0000000180037618     binding.obj
 0004:00000624       $pdata$4$?Unbind@Socket@zmq@@CAXAEBV?$FunctionCallbackInfo@VValue@v8@@@Nan@@@Z 0000000180037624     binding.obj
 0004:00000630       $pdata$?UV_UnbindAsync@Socket@zmq@@CAXPEAUuv_work_s@@@Z 0000000180037630     binding.obj
 0004:0000063c       $pdata$?UV_UnbindAsyncAfter@Socket@zmq@@CAXPEAUuv_work_s@@@Z 000000018003763c     binding.obj
 0004:00000648       $pdata$?UnbindSync@Socket@zmq@@CAXAEBV?$FunctionCallbackInfo@VValue@v8@@@Nan@@@Z 0000000180037648     binding.obj
 0004:00000654       $pdata$0$?UnbindSync@Socket@zmq@@CAXAEBV?$FunctionCallbackInfo@VValue@v8@@@Nan@@@Z 0000000180037654     binding.obj
 0004:00000660       $pdata$1$?UnbindSync@Socket@zmq@@CAXAEBV?$FunctionCallbackInfo@VValue@v8@@@Nan@@@Z 0000000180037660     binding.obj
 0004:0000066c       $pdata$?Connect@Socket@zmq@@CAXAEBV?$FunctionCallbackInfo@VValue@v8@@@Nan@@@Z 000000018003766c     binding.obj
 0004:00000678       $pdata$0$?Connect@Socket@zmq@@CAXAEBV?$FunctionCallbackInfo@VValue@v8@@@Nan@@@Z 0000000180037678     binding.obj
 0004:00000684       $pdata$1$?Connect@Socket@zmq@@CAXAEBV?$FunctionCallbackInfo@VValue@v8@@@Nan@@@Z 0000000180037684     binding.obj
 0004:00000690       $pdata$2$?Connect@Socket@zmq@@CAXAEBV?$FunctionCallbackInfo@VValue@v8@@@Nan@@@Z 0000000180037690     binding.obj
 0004:0000069c       $pdata$3$?Connect@Socket@zmq@@CAXAEBV?$FunctionCallbackInfo@VValue@v8@@@Nan@@@Z 000000018003769c     binding.obj
 0004:000006a8       $pdata$4$?Connect@Socket@zmq@@CAXAEBV?$FunctionCallbackInfo@VValue@v8@@@Nan@@@Z 00000001800376a8     binding.obj
 0004:000006b4       $pdata$5$?Connect@Socket@zmq@@CAXAEBV?$FunctionCallbackInfo@VValue@v8@@@Nan@@@Z 00000001800376b4     binding.obj
 0004:000006c0       $pdata$?Disconnect@Socket@zmq@@CAXAEBV?$FunctionCallbackInfo@VValue@v8@@@Nan@@@Z 00000001800376c0     binding.obj
 0004:000006cc       $pdata$0$?Disconnect@Socket@zmq@@CAXAEBV?$FunctionCallbackInfo@VValue@v8@@@Nan@@@Z 00000001800376cc     binding.obj
 0004:000006d8       $pdata$1$?Disconnect@Socket@zmq@@CAXAEBV?$FunctionCallbackInfo@VValue@v8@@@Nan@@@Z 00000001800376d8     binding.obj
 0004:000006e4       $pdata$2$?Disconnect@Socket@zmq@@CAXAEBV?$FunctionCallbackInfo@VValue@v8@@@Nan@@@Z 00000001800376e4     binding.obj
 0004:000006f0       $pdata$3$?Disconnect@Socket@zmq@@CAXAEBV?$FunctionCallbackInfo@VValue@v8@@@Nan@@@Z 00000001800376f0     binding.obj
 0004:000006fc       $pdata$4$?Disconnect@Socket@zmq@@CAXAEBV?$FunctionCallbackInfo@VValue@v8@@@Nan@@@Z 00000001800376fc     binding.obj
 0004:00000708       $pdata$5$?Disconnect@Socket@zmq@@CAXAEBV?$FunctionCallbackInfo@VValue@v8@@@Nan@@@Z 0000000180037708     binding.obj
 0004:00000714       $pdata$?FreeCallback@IncomingMessage@Socket@zmq@@CAXPEADPEAX@Z 0000000180037714     binding.obj
 0004:00000720       $pdata$??_GMessageReference@IncomingMessage@Socket@zmq@@QEAAPEAXI@Z 0000000180037720     binding.obj
 0004:0000072c       $pdata$?Monitor@Socket@zmq@@CAXAEBV?$FunctionCallbackInfo@VValue@v8@@@Nan@@@Z 000000018003772c     binding.obj
 0004:00000738       $pdata$?Unmonitor@Socket@zmq@@AEAAXXZ 0000000180037738     binding.obj
 0004:00000744       $pdata$?Unmonitor@Socket@zmq@@CAXAEBV?$FunctionCallbackInfo@VValue@v8@@@Nan@@@Z 0000000180037744     binding.obj
 0004:00000750       $pdata$?Recv@Socket@zmq@@CAXAEBV?$FunctionCallbackInfo@VValue@v8@@@Nan@@@Z 0000000180037750     binding.obj
 0004:0000075c       $pdata$0$?Recv@Socket@zmq@@CAXAEBV?$FunctionCallbackInfo@VValue@v8@@@Nan@@@Z 000000018003775c     binding.obj
 0004:00000768       $pdata$1$?Recv@Socket@zmq@@CAXAEBV?$FunctionCallbackInfo@VValue@v8@@@Nan@@@Z 0000000180037768     binding.obj
 0004:00000774       $pdata$2$?Recv@Socket@zmq@@CAXAEBV?$FunctionCallbackInfo@VValue@v8@@@Nan@@@Z 0000000180037774     binding.obj
 0004:00000780       $pdata$6$?Recv@Socket@zmq@@CAXAEBV?$FunctionCallbackInfo@VValue@v8@@@Nan@@@Z 0000000180037780     binding.obj
 0004:0000078c       $pdata$8$?Recv@Socket@zmq@@CAXAEBV?$FunctionCallbackInfo@VValue@v8@@@Nan@@@Z 000000018003778c     binding.obj
 0004:00000798       $pdata$?Send@Socket@zmq@@CAXAEBV?$FunctionCallbackInfo@VValue@v8@@@Nan@@@Z 0000000180037798     binding.obj
 0004:000007a4       $pdata$0$?Send@Socket@zmq@@CAXAEBV?$FunctionCallbackInfo@VValue@v8@@@Nan@@@Z 00000001800377a4     binding.obj
 0004:000007b0       $pdata$1$?Send@Socket@zmq@@CAXAEBV?$FunctionCallbackInfo@VValue@v8@@@Nan@@@Z 00000001800377b0     binding.obj
 0004:000007bc       $pdata$2$?Send@Socket@zmq@@CAXAEBV?$FunctionCallbackInfo@VValue@v8@@@Nan@@@Z 00000001800377bc     binding.obj
 0004:000007c8       $pdata$3$?Send@Socket@zmq@@CAXAEBV?$FunctionCallbackInfo@VValue@v8@@@Nan@@@Z 00000001800377c8     binding.obj
 0004:000007d4       $pdata$4$?Send@Socket@zmq@@CAXAEBV?$FunctionCallbackInfo@VValue@v8@@@Nan@@@Z 00000001800377d4     binding.obj
 0004:000007e0       $pdata$5$?Send@Socket@zmq@@CAXAEBV?$FunctionCallbackInfo@VValue@v8@@@Nan@@@Z 00000001800377e0     binding.obj
 0004:000007ec       $pdata$?Close@Socket@zmq@@AEAAXXZ 00000001800377ec     binding.obj
 0004:000007f8       $pdata$?Close@Socket@zmq@@CAXAEBV?$FunctionCallbackInfo@VValue@v8@@@Nan@@@Z 00000001800377f8     binding.obj
 0004:00000804       $pdata$?ZmqVersion@zmq@@YAXAEBV?$FunctionCallbackInfo@VValue@v8@@@Nan@@@Z 0000000180037804     binding.obj
 0004:00000810       $pdata$?ZmqCurveKeypair@zmq@@YAXAEBV?$FunctionCallbackInfo@VValue@v8@@@Nan@@@Z 0000000180037810     binding.obj
 0004:0000081c       $pdata$1$?ZmqCurveKeypair@zmq@@YAXAEBV?$FunctionCallbackInfo@VValue@v8@@@Nan@@@Z 000000018003781c     binding.obj
 0004:00000828       $pdata$2$?ZmqCurveKeypair@zmq@@YAXAEBV?$FunctionCallbackInfo@VValue@v8@@@Nan@@@Z 0000000180037828     binding.obj
 0004:00000834       $pdata$?Initialize@zmq@@YAXV?$Local@VObject@v8@@@v8@@@Z 0000000180037834     binding.obj
 0004:00000840       $pdata$init                0000000180037840     binding.obj
 0004:0000084c       $pdata$?erase@?$_Tree@V?$_Tset_traits@HU?$less@H@std@@V?$allocator@H@2@$0A@@std@@@std@@QEAA?AV?$_Tree_const_iterator@V?$_Tree_val@U?$_Tree_simple_types@H@std@@@std@@@2@V32@0@Z 000000018003784c     binding.obj
 0004:00000858       $pdata$0$?erase@?$_Tree@V?$_Tset_traits@HU?$less@H@std@@V?$allocator@H@2@$0A@@std@@@std@@QEAA?AV?$_Tree_const_iterator@V?$_Tree_val@U?$_Tree_simple_types@H@std@@@std@@@2@V32@0@Z 0000000180037858     binding.obj
 0004:00000864       $pdata$1$?erase@?$_Tree@V?$_Tset_traits@HU?$less@H@std@@V?$allocator@H@2@$0A@@std@@@std@@QEAA?AV?$_Tree_const_iterator@V?$_Tree_val@U?$_Tree_simple_types@H@std@@@std@@@2@V32@0@Z 0000000180037864     binding.obj
 0004:00000870       $pdata$?erase@?$_Tree@V?$_Tset_traits@HU?$less@H@std@@V?$allocator@H@2@$0A@@std@@@std@@QEAA?AV?$_Tree_const_iterator@V?$_Tree_val@U?$_Tree_simple_types@H@std@@@std@@@2@V32@@Z 0000000180037870     binding.obj
 0004:0000087c       $pdata$?_Erase@?$_Tree@V?$_Tset_traits@HU?$less@H@std@@V?$allocator@H@2@$0A@@std@@@std@@IEAAXPEAU?$_Tree_node@HPEAX@2@@Z 000000018003787c     binding.obj
 0004:00000888       $pdata$??$Unwrap@VContext@zmq@@@ObjectWrap@Nan@@SAPEAVContext@zmq@@V?$Local@VObject@v8@@@v8@@@Z 0000000180037888     binding.obj
 0004:00000894       $pdata$??$GetSockOpt@H@Socket@zmq@@AEAA?AV?$Local@VValue@v8@@@v8@@H@Z 0000000180037894     binding.obj
 0004:000008a0       $pdata$0$??$GetSockOpt@H@Socket@zmq@@AEAA?AV?$Local@VValue@v8@@@v8@@H@Z 00000001800378a0     binding.obj
 0004:000008ac       $pdata$1$??$GetSockOpt@H@Socket@zmq@@AEAA?AV?$Local@VValue@v8@@@v8@@H@Z 00000001800378ac     binding.obj
 0004:000008b8       $pdata$??$GetSockOpt@I@Socket@zmq@@AEAA?AV?$Local@VValue@v8@@@v8@@H@Z 00000001800378b8     binding.obj
 0004:000008c4       $pdata$0$??$GetSockOpt@I@Socket@zmq@@AEAA?AV?$Local@VValue@v8@@@v8@@H@Z 00000001800378c4     binding.obj
 0004:000008d0       $pdata$1$??$GetSockOpt@I@Socket@zmq@@AEAA?AV?$Local@VValue@v8@@@v8@@H@Z 00000001800378d0     binding.obj
 0004:000008dc       $pdata$??$GetSockOpt@_J@Socket@zmq@@AEAA?AV?$Local@VValue@v8@@@v8@@H@Z 00000001800378dc     binding.obj
 0004:000008e8       $pdata$0$??$GetSockOpt@_J@Socket@zmq@@AEAA?AV?$Local@VValue@v8@@@v8@@H@Z 00000001800378e8     binding.obj
 0004:000008f4       $pdata$1$??$GetSockOpt@_J@Socket@zmq@@AEAA?AV?$Local@VValue@v8@@@v8@@H@Z 00000001800378f4     binding.obj
 0004:00000900       $pdata$??$GetSockOpt@_K@Socket@zmq@@AEAA?AV?$Local@VValue@v8@@@v8@@H@Z 0000000180037900     binding.obj
 0004:0000090c       $pdata$0$??$GetSockOpt@_K@Socket@zmq@@AEAA?AV?$Local@VValue@v8@@@v8@@H@Z 000000018003790c     binding.obj
 0004:00000918       $pdata$1$??$GetSockOpt@_K@Socket@zmq@@AEAA?AV?$Local@VValue@v8@@@v8@@H@Z 0000000180037918     binding.obj
 0004:00000924       $pdata$??$SetSockOpt@H@Socket@zmq@@AEAA?AV?$Local@VValue@v8@@@v8@@HV23@@Z 0000000180037924     binding.obj
 0004:00000930       $pdata$??$SetSockOpt@I@Socket@zmq@@AEAA?AV?$Local@VValue@v8@@@v8@@HV23@@Z 0000000180037930     binding.obj
 0004:0000093c       $pdata$??$SetSockOpt@_J@Socket@zmq@@AEAA?AV?$Local@VValue@v8@@@v8@@HV23@@Z 000000018003793c     binding.obj
 0004:00000948       $pdata$??$_snprintf_s@$0BA@@@YAHAEAY0BA@D_KPEBDZZ 0000000180037948     binding.obj
 0004:00000954       $pdata$??$_Insert_nohint@HU_Nil@std@@@?$_Tree@V?$_Tset_traits@HU?$less@H@std@@V?$allocator@H@2@$0A@@std@@@std@@IEAA?AU?$pair@V?$_Tree_const_iterator@V?$_Tree_val@U?$_Tree_simple_types@H@std@@@std@@@std@@_N@1@_N$$QEAHU_Nil@1@@Z 0000000180037954     binding.obj
 0004:00000960       $pdata$??$_Insert_at@HU_Nil@std@@@?$_Tree@V?$_Tset_traits@HU?$less@H@std@@V?$allocator@H@2@$0A@@std@@@std@@IEAA?AV?$_Tree_const_iterator@V?$_Tree_val@U?$_Tree_simple_types@H@std@@@std@@@1@_NPEAU?$_Tree_node@HPEAX@1@$$QEAHU_Nil@1@@Z 0000000180037960     binding.obj
 0004:0000096c       $pdata$load_exe_hook       000000018003796c     win_delay_load_hook.obj
 0004:00000978       $pdata$?DloadAcquireSectionWriteAccess@@YAXXZ 0000000180037978     DelayImp:delayhlp.obj
 0004:00000984       $pdata$?DloadGetSRWLockFunctionPointers@@YAEXZ 0000000180037984     DelayImp:delayhlp.obj
 0004:00000990       $pdata$?DloadMakePermanentImageCommit@@YAXPEAX_K@Z 0000000180037990     DelayImp:delayhlp.obj
 0004:0000099c       $pdata$?DloadObtainSection@@YAPEAXPEAK0@Z 000000018003799c     DelayImp:delayhlp.obj
 0004:000009a8       $pdata$?DloadProtectSection@@YAXKPEAK@Z 00000001800379a8     DelayImp:delayhlp.obj
 0004:000009b4       $pdata$?DloadReleaseSectionWriteAccess@@YAXXZ 00000001800379b4     DelayImp:delayhlp.obj
 0004:000009c0       $pdata$?PiddFromDllName@@YAPEBUImgDelayDescr@@PEBD@Z 00000001800379c0     DelayImp:delayhlp.obj
 0004:000009cc       $pdata$__HrLoadAllImportsForDll 00000001800379cc     DelayImp:delayhlp.obj
 0004:000009d8       $pdata$__delayLoadHelper2  00000001800379d8     DelayImp:delayhlp.obj
 0004:000009fc       $pdata$??0bad_alloc@std@@QEAA@AEBV01@@Z 00000001800379fc     libcpmt:xthrow.obj
 0004:00000a08       $pdata$??0exception@std@@QEAA@AEBV01@@Z 0000000180037a08     libcpmt:xthrow.obj
 0004:00000a14       $pdata$??0length_error@std@@QEAA@AEBV01@@Z 0000000180037a14     libcpmt:xthrow.obj
 0004:00000a20       $pdata$??0length_error@std@@QEAA@PEBD@Z 0000000180037a20     libcpmt:xthrow.obj
 0004:00000a2c       $pdata$??0logic_error@std@@QEAA@AEBV01@@Z 0000000180037a2c     libcpmt:xthrow.obj
 0004:00000a38       $pdata$??_Gbad_array_new_length@std@@UEAAPEAXI@Z 0000000180037a38     LIBCMT:throw_bad_alloc.obj
 0004:00000a38       $pdata$??_Gexception@std@@UEAAPEAXI@Z 0000000180037a38     libcpmt:xthrow.obj
 0004:00000a38       $pdata$??_Glength_error@std@@UEAAPEAXI@Z 0000000180037a38     libcpmt:xthrow.obj
 0004:00000a38       $pdata$??_Glogic_error@std@@UEAAPEAXI@Z 0000000180037a38     libcpmt:xthrow.obj
 0004:00000a38       $pdata$??_Gbad_alloc@std@@UEAAPEAXI@Z 0000000180037a38     libcpmt:xthrow.obj
 0004:00000a44       $pdata$?_Xlength_error@std@@YAXPEBD@Z 0000000180037a44     libcpmt:xthrow.obj
 0004:00000a5c       $pdata$__raise_securityfailure 0000000180037a5c     LIBCMT:gs_report.obj
 0004:00000a68       $pdata$__report_gsfailure  0000000180037a68     LIBCMT:gs_report.obj
 0004:00000a74       $pdata$__report_rangecheckfailure 0000000180037a74     LIBCMT:gs_report.obj
 0004:00000a80       $pdata$__report_securityfailure 0000000180037a80     LIBCMT:gs_report.obj
 0004:00000a8c       $pdata$capture_current_context 0000000180037a8c     LIBCMT:gs_report.obj
 0004:00000a98       $pdata$capture_previous_context 0000000180037a98     LIBCMT:gs_report.obj
 0004:00000aa4       $pdata$??2@YAPEAX_K@Z      0000000180037aa4     LIBCMT:new_scalar.obj
 0004:00000ab0       $pdata$__scrt_acquire_startup_lock 0000000180037ab0     LIBCMT:utility.obj
 0004:00000abc       $pdata$__scrt_dllmain_after_initialize_c 0000000180037abc     LIBCMT:utility.obj
 0004:00000ac8       $pdata$__scrt_dllmain_before_initialize_c 0000000180037ac8     LIBCMT:utility.obj
 0004:00000ad4       $pdata$__scrt_dllmain_crt_thread_attach 0000000180037ad4     LIBCMT:utility.obj
 0004:00000ae0       $pdata$__scrt_dllmain_crt_thread_detach 0000000180037ae0     LIBCMT:utility.obj
 0004:00000aec       $pdata$__scrt_dllmain_exception_filter 0000000180037aec     LIBCMT:utility.obj
 0004:00000af8       $pdata$__scrt_dllmain_uninitialize_c 0000000180037af8     LIBCMT:utility.obj
 0004:00000b04       $pdata$__scrt_dllmain_uninitialize_critical 0000000180037b04     LIBCMT:utility.obj
 0004:00000b10       $pdata$__scrt_initialize_crt 0000000180037b10     LIBCMT:utility.obj
 0004:00000b1c       $pdata$__scrt_initialize_onexit_tables 0000000180037b1c     LIBCMT:utility.obj
 0004:00000b28       $pdata$__scrt_is_nonwritable_in_current_image 0000000180037b28     LIBCMT:utility.obj
 0004:00000b34       $pdata$__scrt_release_startup_lock 0000000180037b34     LIBCMT:utility.obj
 0004:00000b40       $pdata$__scrt_uninitialize_crt 0000000180037b40     LIBCMT:utility.obj
 0004:00000b4c       $pdata$_onexit             0000000180037b4c     LIBCMT:utility.obj
 0004:00000b58       $pdata$atexit              0000000180037b58     LIBCMT:utility.obj
 0004:00000b64       $pdata$??_Gtype_info@@UEAAPEAXI@Z 0000000180037b64     LIBCMT:std_type_info_static.obj
 0004:00000b70       $pdata$?dllmain_crt_dispatch@@YAHQEAUHINSTANCE__@@KQEAX@Z 0000000180037b70     LIBCMT:dll_dllmain.obj
 0004:00000b7c       $pdata$?dllmain_crt_process_attach@@YAHQEAUHINSTANCE__@@QEAX@Z 0000000180037b7c     LIBCMT:dll_dllmain.obj
 0004:00000b88       $pdata$?dllmain_crt_process_detach@@YAH_N@Z 0000000180037b88     LIBCMT:dll_dllmain.obj
 0004:00000b94       $pdata$?dllmain_dispatch@@YAHQEAUHINSTANCE__@@KQEAX@Z 0000000180037b94     LIBCMT:dll_dllmain.obj
 0004:00000ba0       $pdata$?dllmain_raw@@YAHQEAUHINSTANCE__@@KQEAX@Z 0000000180037ba0     LIBCMT:dll_dllmain.obj
 0004:00000bac       $pdata$_DllMainCRTStartup  0000000180037bac     LIBCMT:dll_dllmain.obj
 0004:00000bb8       $pdata$??0bad_array_new_length@std@@QEAA@AEBV01@@Z 0000000180037bb8     LIBCMT:throw_bad_alloc.obj
 0004:00000bc4       $pdata$?__scrt_throw_std_bad_alloc@@YAXXZ 0000000180037bc4     LIBCMT:throw_bad_alloc.obj
 0004:00000bd0       $pdata$?__scrt_throw_std_bad_array_new_length@@YAXXZ 0000000180037bd0     LIBCMT:throw_bad_alloc.obj
 0004:00000bdc       $pdata$__isa_available_init 0000000180037bdc     LIBCMT:_cpu_disp_.obj
 0004:00000be8       $pdata$__scrt_fastfail     0000000180037be8     LIBCMT:utility_desktop.obj
 0004:00000bf4       $pdata$__security_init_cookie 0000000180037bf4     LIBCMT:gs_support.obj
 0004:00000c00       $pdata$__scrt_initialize_default_local_stdio_options 0000000180037c00     LIBCMT:default_local_stdio_options.obj
 0004:00000c0c       $pdata$_RTC_Initialize     0000000180037c0c     LIBCMT:_initsect_.obj
 0004:00000c18       $pdata$_RTC_Terminate      0000000180037c18     LIBCMT:_initsect_.obj
 0004:00000c30       $pdata$_purecall           0000000180037c30     libvcruntime:purevirt.obj
 0004:00000c3c       $pdata$__std_exception_copy 0000000180037c3c     libvcruntime:std_exception.obj
 0004:00000c48       $pdata$__std_exception_destroy 0000000180037c48     libvcruntime:std_exception.obj
 0004:00000c54       $pdata$_CxxThrowException  0000000180037c54     libvcruntime:throw.obj
 0004:00000c60       $pdata$__vcrt_initialize   0000000180037c60     libvcruntime:initialization.obj
 0004:00000c6c       $pdata$__vcrt_thread_attach 0000000180037c6c     libvcruntime:initialization.obj
 0004:00000c78       $pdata$__vcrt_thread_detach 0000000180037c78     libvcruntime:initialization.obj
 0004:00000c84       $pdata$__vcrt_uninitialize 0000000180037c84     libvcruntime:initialization.obj
 0004:00000c90       $pdata$__vcrt_uninitialize_critical 0000000180037c90     libvcruntime:initialization.obj
 0004:00000c9c       $pdata$__C_specific_handler 0000000180037c9c     libvcruntime:_chandler_.obj
 0004:00000ca8       $pdata$__telemetry_main_invoke_trigger 0000000180037ca8     libvcruntime:telemetry.obj
 0004:00000cb4       $pdata$__telemetry_main_return_trigger 0000000180037cb4     libvcruntime:telemetry.obj
 0004:00000cc0       $pdata$__vcrt_uninitialize_telemetry_provider 0000000180037cc0     libvcruntime:telemetry.obj
 0004:00000cd8       $pdata$__std_type_info_destroy_list 0000000180037cd8     libvcruntime:std_type_info.obj
 0004:00000ce4       $pdata$__vcrt_freefls      0000000180037ce4     libvcruntime:per_thread_data.obj
 0004:00000cf0       $pdata$__vcrt_freeptd      0000000180037cf0     libvcruntime:per_thread_data.obj
 0004:00000cfc       $pdata$__vcrt_getptd_noexit 0000000180037cfc     libvcruntime:per_thread_data.obj
 0004:00000d08       $pdata$__vcrt_initialize_ptd 0000000180037d08     libvcruntime:per_thread_data.obj
 0004:00000d14       $pdata$__vcrt_uninitialize_ptd 0000000180037d14     libvcruntime:per_thread_data.obj
 0004:00000d20       $pdata$__vcrt_initialize_locks 0000000180037d20     libvcruntime:locks.obj
 0004:00000d2c       $pdata$__vcrt_uninitialize_locks 0000000180037d2c     libvcruntime:locks.obj
 0004:00000d38       $pdata$?try_get_function@@YAPEAXW4function_id@?A0x61ce2399@@QEBDQEBW4module_id@2@2@Z 0000000180037d38     libvcruntime:winapi_downlevel.obj
 0004:00000d44       $pdata$__vcrt_EventRegister 0000000180037d44     libvcruntime:winapi_downlevel.obj
 0004:00000d50       $pdata$__vcrt_EventSetInformation 0000000180037d50     libvcruntime:winapi_downlevel.obj
 0004:00000d5c       $pdata$__vcrt_EventUnregister 0000000180037d5c     libvcruntime:winapi_downlevel.obj
 0004:00000d68       $pdata$__vcrt_EventWriteTransfer 0000000180037d68     libvcruntime:winapi_downlevel.obj
 0004:00000d74       $pdata$__vcrt_FlsAlloc     0000000180037d74     libvcruntime:winapi_downlevel.obj
 0004:00000d80       $pdata$__vcrt_FlsFree      0000000180037d80     libvcruntime:winapi_downlevel.obj
 0004:00000d8c       $pdata$__vcrt_FlsGetValue  0000000180037d8c     libvcruntime:winapi_downlevel.obj
 0004:00000d98       $pdata$__vcrt_FlsSetValue  0000000180037d98     libvcruntime:winapi_downlevel.obj
 0004:00000da4       $pdata$__vcrt_InitializeCriticalSectionEx 0000000180037da4     libvcruntime:winapi_downlevel.obj
 0004:00000db0       $pdata$__vcrt_initialize_winapi_thunks 0000000180037db0     libvcruntime:winapi_downlevel.obj
 0004:00000dbc       $pdata$__vcrt_uninitialize_winapi_thunks 0000000180037dbc     libvcruntime:winapi_downlevel.obj
 0004:00000df8       $pdata$__acrt_call_reportfault 0000000180037df8     libucrt:invalid_parameter.obj
 0004:00000e04       $pdata$_invalid_parameter  0000000180037e04     libucrt:invalid_parameter.obj
 0004:00000e10       $pdata$_invalid_parameter_noinfo 0000000180037e10     libucrt:invalid_parameter.obj
 0004:00000e1c       $pdata$_invalid_parameter_noinfo_noreturn 0000000180037e1c     libucrt:invalid_parameter.obj
 0004:00000e28       $pdata$_invoke_watson      0000000180037e28     libucrt:invalid_parameter.obj
 0004:00000e34       $pdata$wcsncpy             0000000180037e34     libucrt:wcsncpy.obj
 0004:00000e40       $pdata$??$?RV<lambda_7b91131dde12e1c3dfc74ff76b3f2eac>@@AEAV<lambda_dd75445284c072d0bd3768540cc698fa>@@V<lambda_16bc4ecb55b4718497c16bceaea2ceaf>@@@?$__crt_seh_guarded_call@H@@QEAAH$$QEAV<lambda_7b91131dde12e1c3dfc74ff76b3f2eac>@@AEAV<lambda_dd75445284c072d0bd3768540cc698fa>@@$$QEAV<lambda_16bc4ecb55b4718497c16bceaea2ceaf>@@@Z 0000000180037e40     libucrt:output.obj
 0004:00000e4c       $pdata$??$common_vsprintf@Vformat_validation_base@__crt_stdio_output@@D@@YAH_KQEAD0QEBDQEAU__crt_locale_pointers@@1@Z 0000000180037e4c     libucrt:output.obj
 0004:00000e58       $pdata$??$ensure_buffer_is_big_enough@D@formatting_buffer@__crt_stdio_output@@QEAA_N_K@Z 0000000180037e58     libucrt:output.obj
 0004:00000e64       $pdata$??$type_case_integer_parse_into_buffer@I@?$output_processor@_WV?$stream_output_adapter@_W@__crt_stdio_output@@V?$standard_base@_WV?$stream_output_adapter@_W@__crt_stdio_output@@@2@@__crt_stdio_output@@AEAAXII_N@Z 0000000180037e64     libucrt:output.obj
 0004:00000e64       $pdata$??$type_case_integer_parse_into_buffer@I@?$output_processor@DV?$string_output_adapter@D@__crt_stdio_output@@V?$format_validation_base@DV?$string_output_adapter@D@__crt_stdio_output@@@2@@__crt_stdio_output@@AEAAXII_N@Z 0000000180037e64     libucrt:output.obj
 0004:00000e64       $pdata$??$type_case_integer_parse_into_buffer@I@?$output_processor@_WV?$string_output_adapter@_W@__crt_stdio_output@@V?$standard_base@_WV?$string_output_adapter@_W@__crt_stdio_output@@@2@@__crt_stdio_output@@AEAAXII_N@Z 0000000180037e64     libucrt:output.obj
 0004:00000e64       $pdata$??$type_case_integer_parse_into_buffer@I@?$output_processor@DV?$string_output_adapter@D@__crt_stdio_output@@V?$standard_base@DV?$string_output_adapter@D@__crt_stdio_output@@@2@@__crt_stdio_output@@AEAAXII_N@Z 0000000180037e64     libucrt:output.obj
 0004:00000e70       $pdata$??$type_case_integer_parse_into_buffer@_K@?$output_processor@DV?$string_output_adapter@D@__crt_stdio_output@@V?$format_validation_base@DV?$string_output_adapter@D@__crt_stdio_output@@@2@@__crt_stdio_output@@AEAAX_KI_N@Z 0000000180037e70     libucrt:output.obj
 0004:00000e70       $pdata$??$type_case_integer_parse_into_buffer@_K@?$output_processor@_WV?$stream_output_adapter@_W@__crt_stdio_output@@V?$standard_base@_WV?$stream_output_adapter@_W@__crt_stdio_output@@@2@@__crt_stdio_output@@AEAAX_KI_N@Z 0000000180037e70     libucrt:output.obj
 0004:00000e70       $pdata$??$type_case_integer_parse_into_buffer@_K@?$output_processor@DV?$string_output_adapter@D@__crt_stdio_output@@V?$standard_base@DV?$string_output_adapter@D@__crt_stdio_output@@@2@@__crt_stdio_output@@AEAAX_KI_N@Z 0000000180037e70     libucrt:output.obj
 0004:00000e70       $pdata$??$type_case_integer_parse_into_buffer@_K@?$output_processor@_WV?$string_output_adapter@_W@__crt_stdio_output@@V?$standard_base@_WV?$string_output_adapter@_W@__crt_stdio_output@@@2@@__crt_stdio_output@@AEAAX_KI_N@Z 0000000180037e70     libucrt:output.obj
 0004:00000e7c       $pdata$??$write_multiple_characters@V?$stream_output_adapter@_W@__crt_stdio_output@@D@__crt_stdio_output@@YAXAEBV?$stream_output_adapter@_W@0@DHQEAH@Z 0000000180037e7c     libucrt:output.obj
 0004:00000e88       $pdata$??$write_multiple_characters@V?$string_output_adapter@D@__crt_stdio_output@@D@__crt_stdio_output@@YAXAEBV?$string_output_adapter@D@0@DHQEAH@Z 0000000180037e88     libucrt:output.obj
 0004:00000e94       $pdata$??$write_multiple_characters@V?$string_output_adapter@_W@__crt_stdio_output@@D@__crt_stdio_output@@YAXAEBV?$string_output_adapter@_W@0@DHQEAH@Z 0000000180037e94     libucrt:output.obj
 0004:00000ea0       $pdata$??0?$output_processor@DV?$string_output_adapter@D@__crt_stdio_output@@V?$standard_base@DV?$string_output_adapter@D@__crt_stdio_output@@@2@@__crt_stdio_output@@QEAA@AEBV?$string_output_adapter@D@1@_KQEBDQEAU__crt_locale_pointers@@QEAD@Z 0000000180037ea0     libucrt:output.obj
 0004:00000ea0       $pdata$??0?$output_processor@DV?$string_output_adapter@D@__crt_stdio_output@@V?$format_validation_base@DV?$string_output_adapter@D@__crt_stdio_output@@@2@@__crt_stdio_output@@QEAA@AEBV?$string_output_adapter@D@1@_KQEBDQEAU__crt_locale_pointers@@QEAD@Z 0000000180037ea0     libucrt:output.obj
 0004:00000eac       $pdata$??0?$output_processor@_WV?$string_output_adapter@_W@__crt_stdio_output@@V?$standard_base@_WV?$string_output_adapter@_W@__crt_stdio_output@@@2@@__crt_stdio_output@@QEAA@AEBV?$string_output_adapter@_W@1@_KQEB_WQEAU__crt_locale_pointers@@QEAD@Z 0000000180037eac     libucrt:output.obj
 0004:00000eac       $pdata$??0?$output_processor@_WV?$stream_output_adapter@_W@__crt_stdio_output@@V?$standard_base@_WV?$stream_output_adapter@_W@__crt_stdio_output@@@2@@__crt_stdio_output@@QEAA@AEBV?$stream_output_adapter@_W@1@_KQEB_WQEAU__crt_locale_pointers@@QEAD@Z 0000000180037eac     libucrt:output.obj
 0004:00000eb8       $pdata$??0_LocaleUpdate@@QEAA@QEAU__crt_locale_pointers@@@Z 0000000180037eb8     libucrt:output.obj
 0004:00000ec4       $pdata$??R<lambda_dd75445284c072d0bd3768540cc698fa>@@QEBAHXZ 0000000180037ec4     libucrt:output.obj
 0004:00000ed0       $pdata$?force_decimal_point@__crt_stdio_output@@YAXPEADQEAU__crt_locale_pointers@@@Z 0000000180037ed0     libucrt:output.obj
 0004:00000edc       $pdata$?parse_int_from_format_string@?$output_processor@DV?$string_output_adapter@D@__crt_stdio_output@@V?$format_validation_base@DV?$string_output_adapter@D@__crt_stdio_output@@@2@@__crt_stdio_output@@AEAA_NQEAH@Z 0000000180037edc     libucrt:output.obj
 0004:00000edc       $pdata$?parse_int_from_format_string@?$output_processor@DV?$string_output_adapter@D@__crt_stdio_output@@V?$standard_base@DV?$string_output_adapter@D@__crt_stdio_output@@@2@@__crt_stdio_output@@AEAA_NQEAH@Z 0000000180037edc     libucrt:output.obj
 0004:00000ee8       $pdata$?parse_int_from_format_string@?$output_processor@_WV?$string_output_adapter@_W@__crt_stdio_output@@V?$standard_base@_WV?$string_output_adapter@_W@__crt_stdio_output@@@2@@__crt_stdio_output@@AEAA_NQEAH@Z 0000000180037ee8     libucrt:output.obj
 0004:00000ee8       $pdata$?parse_int_from_format_string@?$output_processor@_WV?$stream_output_adapter@_W@__crt_stdio_output@@V?$standard_base@_WV?$stream_output_adapter@_W@__crt_stdio_output@@@2@@__crt_stdio_output@@AEAA_NQEAH@Z 0000000180037ee8     libucrt:output.obj
 0004:00000ef4       $pdata$?process@?$output_processor@DV?$string_output_adapter@D@__crt_stdio_output@@V?$format_validation_base@DV?$string_output_adapter@D@__crt_stdio_output@@@2@@__crt_stdio_output@@QEAAHXZ 0000000180037ef4     libucrt:output.obj
 0004:00000f00       $pdata$?process@?$output_processor@DV?$string_output_adapter@D@__crt_stdio_output@@V?$standard_base@DV?$string_output_adapter@D@__crt_stdio_output@@@2@@__crt_stdio_output@@QEAAHXZ 0000000180037f00     libucrt:output.obj
 0004:00000f0c       $pdata$?process@?$output_processor@_WV?$stream_output_adapter@_W@__crt_stdio_output@@V?$standard_base@_WV?$stream_output_adapter@_W@__crt_stdio_output@@@2@@__crt_stdio_output@@QEAAHXZ 0000000180037f0c     libucrt:output.obj
 0004:00000f18       $pdata$?process@?$output_processor@_WV?$string_output_adapter@_W@__crt_stdio_output@@V?$standard_base@_WV?$string_output_adapter@_W@__crt_stdio_output@@@2@@__crt_stdio_output@@QEAAHXZ 0000000180037f18     libucrt:output.obj
 0004:00000f24       $pdata$?state_case_normal@?$output_processor@DV?$string_output_adapter@D@__crt_stdio_output@@V?$format_validation_base@DV?$string_output_adapter@D@__crt_stdio_output@@@2@@__crt_stdio_output@@AEAA_NXZ 0000000180037f24     libucrt:output.obj
 0004:00000f24       $pdata$?state_case_normal@?$output_processor@DV?$string_output_adapter@D@__crt_stdio_output@@V?$standard_base@DV?$string_output_adapter@D@__crt_stdio_output@@@2@@__crt_stdio_output@@AEAA_NXZ 0000000180037f24     libucrt:output.obj
 0004:00000f30       $pdata$?state_case_normal_tchar@?$output_processor@DV?$string_output_adapter@D@__crt_stdio_output@@V?$standard_base@DV?$string_output_adapter@D@__crt_stdio_output@@@2@@__crt_stdio_output@@AEAA_ND@Z 0000000180037f30     libucrt:output.obj
 0004:00000f30       $pdata$?state_case_normal_tchar@?$output_processor@DV?$string_output_adapter@D@__crt_stdio_output@@V?$format_validation_base@DV?$string_output_adapter@D@__crt_stdio_output@@@2@@__crt_stdio_output@@AEAA_ND@Z 0000000180037f30     libucrt:output.obj
 0004:00000f3c       $pdata$?state_case_size@?$output_processor@DV?$string_output_adapter@D@__crt_stdio_output@@V?$standard_base@DV?$string_output_adapter@D@__crt_stdio_output@@@2@@__crt_stdio_output@@AEAA_NXZ 0000000180037f3c     libucrt:output.obj
 0004:00000f3c       $pdata$?state_case_size@?$output_processor@DV?$string_output_adapter@D@__crt_stdio_output@@V?$format_validation_base@DV?$string_output_adapter@D@__crt_stdio_output@@@2@@__crt_stdio_output@@AEAA_NXZ 0000000180037f3c     libucrt:output.obj
 0004:00000f48       $pdata$?state_case_size@?$output_processor@_WV?$stream_output_adapter@_W@__crt_stdio_output@@V?$standard_base@_WV?$stream_output_adapter@_W@__crt_stdio_output@@@2@@__crt_stdio_output@@AEAA_NXZ 0000000180037f48     libucrt:output.obj
 0004:00000f54       $pdata$?state_case_size@?$output_processor@_WV?$string_output_adapter@_W@__crt_stdio_output@@V?$standard_base@_WV?$string_output_adapter@_W@__crt_stdio_output@@@2@@__crt_stdio_output@@AEAA_NXZ 0000000180037f54     libucrt:output.obj
 0004:00000f60       $pdata$?state_case_type@?$output_processor@DV?$string_output_adapter@D@__crt_stdio_output@@V?$standard_base@DV?$string_output_adapter@D@__crt_stdio_output@@@2@@__crt_stdio_output@@AEAA_NXZ 0000000180037f60     libucrt:output.obj
 0004:00000f60       $pdata$?state_case_type@?$output_processor@DV?$string_output_adapter@D@__crt_stdio_output@@V?$format_validation_base@DV?$string_output_adapter@D@__crt_stdio_output@@@2@@__crt_stdio_output@@AEAA_NXZ 0000000180037f60     libucrt:output.obj
 0004:00000f6c       $pdata$?state_case_type@?$output_processor@_WV?$stream_output_adapter@_W@__crt_stdio_output@@V?$standard_base@_WV?$stream_output_adapter@_W@__crt_stdio_output@@@2@@__crt_stdio_output@@AEAA_NXZ 0000000180037f6c     libucrt:output.obj
 0004:00000f78       $pdata$?state_case_type@?$output_processor@_WV?$string_output_adapter@_W@__crt_stdio_output@@V?$standard_base@_WV?$string_output_adapter@_W@__crt_stdio_output@@@2@@__crt_stdio_output@@AEAA_NXZ 0000000180037f78     libucrt:output.obj
 0004:00000f84       $pdata$?type_case_Z@?$output_processor@DV?$string_output_adapter@D@__crt_stdio_output@@V?$standard_base@DV?$string_output_adapter@D@__crt_stdio_output@@@2@@__crt_stdio_output@@AEAA_NXZ 0000000180037f84     libucrt:output.obj
 0004:00000f84       $pdata$?type_case_Z@?$output_processor@DV?$string_output_adapter@D@__crt_stdio_output@@V?$format_validation_base@DV?$string_output_adapter@D@__crt_stdio_output@@@2@@__crt_stdio_output@@AEAA_NXZ 0000000180037f84     libucrt:output.obj
 0004:00000f90       $pdata$?type_case_Z@?$output_processor@_WV?$stream_output_adapter@_W@__crt_stdio_output@@V?$standard_base@_WV?$stream_output_adapter@_W@__crt_stdio_output@@@2@@__crt_stdio_output@@AEAA_NXZ 0000000180037f90     libucrt:output.obj
 0004:00000f90       $pdata$?type_case_Z@?$output_processor@_WV?$string_output_adapter@_W@__crt_stdio_output@@V?$standard_base@_WV?$string_output_adapter@_W@__crt_stdio_output@@@2@@__crt_stdio_output@@AEAA_NXZ 0000000180037f90     libucrt:output.obj
 0004:00000f9c       $pdata$?type_case_a@?$output_processor@DV?$string_output_adapter@D@__crt_stdio_output@@V?$format_validation_base@DV?$string_output_adapter@D@__crt_stdio_output@@@2@@__crt_stdio_output@@AEAA_NXZ 0000000180037f9c     libucrt:output.obj
 0004:00000f9c       $pdata$?type_case_a@?$output_processor@DV?$string_output_adapter@D@__crt_stdio_output@@V?$standard_base@DV?$string_output_adapter@D@__crt_stdio_output@@@2@@__crt_stdio_output@@AEAA_NXZ 0000000180037f9c     libucrt:output.obj
 0004:00000fa8       $pdata$?type_case_a@?$output_processor@_WV?$stream_output_adapter@_W@__crt_stdio_output@@V?$standard_base@_WV?$stream_output_adapter@_W@__crt_stdio_output@@@2@@__crt_stdio_output@@AEAA_NXZ 0000000180037fa8     libucrt:output.obj
 0004:00000fa8       $pdata$?type_case_a@?$output_processor@_WV?$string_output_adapter@_W@__crt_stdio_output@@V?$standard_base@_WV?$string_output_adapter@_W@__crt_stdio_output@@@2@@__crt_stdio_output@@AEAA_NXZ 0000000180037fa8     libucrt:output.obj
 0004:00000fb4       $pdata$?type_case_c_tchar@?$output_processor@DV?$string_output_adapter@D@__crt_stdio_output@@V?$standard_base@DV?$string_output_adapter@D@__crt_stdio_output@@@2@@__crt_stdio_output@@AEAA_ND@Z 0000000180037fb4     libucrt:output.obj
 0004:00000fb4       $pdata$?type_case_c_tchar@?$output_processor@DV?$string_output_adapter@D@__crt_stdio_output@@V?$format_validation_base@DV?$string_output_adapter@D@__crt_stdio_output@@@2@@__crt_stdio_output@@AEAA_ND@Z 0000000180037fb4     libucrt:output.obj
 0004:00000fc0       $pdata$?type_case_c_tchar@?$output_processor@_WV?$string_output_adapter@_W@__crt_stdio_output@@V?$standard_base@_WV?$string_output_adapter@_W@__crt_stdio_output@@@2@@__crt_stdio_output@@AEAA_N_W@Z 0000000180037fc0     libucrt:output.obj
 0004:00000fc0       $pdata$?type_case_c_tchar@?$output_processor@_WV?$stream_output_adapter@_W@__crt_stdio_output@@V?$standard_base@_WV?$stream_output_adapter@_W@__crt_stdio_output@@@2@@__crt_stdio_output@@AEAA_N_W@Z 0000000180037fc0     libucrt:output.obj
 0004:00000fcc       $pdata$?type_case_integer@?$output_processor@_WV?$string_output_adapter@_W@__crt_stdio_output@@V?$standard_base@_WV?$string_output_adapter@_W@__crt_stdio_output@@@2@@__crt_stdio_output@@AEAA_NI_N@Z 0000000180037fcc     libucrt:output.obj
 0004:00000fcc       $pdata$?type_case_integer@?$output_processor@DV?$string_output_adapter@D@__crt_stdio_output@@V?$standard_base@DV?$string_output_adapter@D@__crt_stdio_output@@@2@@__crt_stdio_output@@AEAA_NI_N@Z 0000000180037fcc     libucrt:output.obj
 0004:00000fcc       $pdata$?type_case_integer@?$output_processor@DV?$string_output_adapter@D@__crt_stdio_output@@V?$format_validation_base@DV?$string_output_adapter@D@__crt_stdio_output@@@2@@__crt_stdio_output@@AEAA_NI_N@Z 0000000180037fcc     libucrt:output.obj
 0004:00000fcc       $pdata$?type_case_integer@?$output_processor@_WV?$stream_output_adapter@_W@__crt_stdio_output@@V?$standard_base@_WV?$stream_output_adapter@_W@__crt_stdio_output@@@2@@__crt_stdio_output@@AEAA_NI_N@Z 0000000180037fcc     libucrt:output.obj
 0004:00000fd8       $pdata$?type_case_n@?$output_processor@_WV?$stream_output_adapter@_W@__crt_stdio_output@@V?$standard_base@_WV?$stream_output_adapter@_W@__crt_stdio_output@@@2@@__crt_stdio_output@@AEAA_NXZ 0000000180037fd8     libucrt:output.obj
 0004:00000fd8       $pdata$?type_case_n@?$output_processor@DV?$string_output_adapter@D@__crt_stdio_output@@V?$format_validation_base@DV?$string_output_adapter@D@__crt_stdio_output@@@2@@__crt_stdio_output@@AEAA_NXZ 0000000180037fd8     libucrt:output.obj
 0004:00000fd8       $pdata$?type_case_n@?$output_processor@DV?$string_output_adapter@D@__crt_stdio_output@@V?$standard_base@DV?$string_output_adapter@D@__crt_stdio_output@@@2@@__crt_stdio_output@@AEAA_NXZ 0000000180037fd8     libucrt:output.obj
 0004:00000fd8       $pdata$?type_case_n@?$output_processor@_WV?$string_output_adapter@_W@__crt_stdio_output@@V?$standard_base@_WV?$string_output_adapter@_W@__crt_stdio_output@@@2@@__crt_stdio_output@@AEAA_NXZ 0000000180037fd8     libucrt:output.obj
 0004:00000fe4       $pdata$?type_case_s@?$output_processor@DV?$string_output_adapter@D@__crt_stdio_output@@V?$format_validation_base@DV?$string_output_adapter@D@__crt_stdio_output@@@2@@__crt_stdio_output@@AEAA_NXZ 0000000180037fe4     libucrt:output.obj
 0004:00000fe4       $pdata$?type_case_s@?$output_processor@DV?$string_output_adapter@D@__crt_stdio_output@@V?$standard_base@DV?$string_output_adapter@D@__crt_stdio_output@@@2@@__crt_stdio_output@@AEAA_NXZ 0000000180037fe4     libucrt:output.obj
 0004:00000ff0       $pdata$?type_case_s@?$output_processor@_WV?$string_output_adapter@_W@__crt_stdio_output@@V?$standard_base@_WV?$string_output_adapter@_W@__crt_stdio_output@@@2@@__crt_stdio_output@@AEAA_NXZ 0000000180037ff0     libucrt:output.obj
 0004:00000ff0       $pdata$?type_case_s@?$output_processor@_WV?$stream_output_adapter@_W@__crt_stdio_output@@V?$standard_base@_WV?$stream_output_adapter@_W@__crt_stdio_output@@@2@@__crt_stdio_output@@AEAA_NXZ 0000000180037ff0     libucrt:output.obj
 0004:00000ffc       $pdata$?write_stored_string_tchar@?$output_processor@DV?$string_output_adapter@D@__crt_stdio_output@@V?$standard_base@DV?$string_output_adapter@D@__crt_stdio_output@@@2@@__crt_stdio_output@@AEAA_ND@Z 0000000180037ffc     libucrt:output.obj
 0004:00000ffc       $pdata$?write_stored_string_tchar@?$output_processor@DV?$string_output_adapter@D@__crt_stdio_output@@V?$format_validation_base@DV?$string_output_adapter@D@__crt_stdio_output@@@2@@__crt_stdio_output@@AEAA_ND@Z 0000000180037ffc     libucrt:output.obj
 0004:00001008       $pdata$?write_stored_string_tchar@?$output_processor@_WV?$stream_output_adapter@_W@__crt_stdio_output@@V?$standard_base@_WV?$stream_output_adapter@_W@__crt_stdio_output@@@2@@__crt_stdio_output@@AEAA_N_W@Z 0000000180038008     libucrt:output.obj
 0004:00001014       $pdata$?write_stored_string_tchar@?$output_processor@_WV?$string_output_adapter@_W@__crt_stdio_output@@V?$standard_base@_WV?$string_output_adapter@_W@__crt_stdio_output@@@2@@__crt_stdio_output@@AEAA_N_W@Z 0000000180038014     libucrt:output.obj
 0004:00001020       $pdata$?write_string@?$stream_output_adapter@_W@__crt_stdio_output@@QEBAXQEB_WHQEAH1@Z 0000000180038020     libucrt:output.obj
 0004:0000102c       $pdata$?write_string@?$string_output_adapter@D@__crt_stdio_output@@QEBAXQEBDHQEAH1@Z 000000018003802c     libucrt:output.obj
 0004:00001038       $pdata$?write_string@?$string_output_adapter@_W@__crt_stdio_output@@QEBAXQEB_WHQEAH1@Z 0000000180038038     libucrt:output.obj
 0004:00001044       $pdata$__stdio_common_vfwprintf 0000000180038044     libucrt:output.obj
 0004:00001050       $pdata$__stdio_common_vsnprintf_s 0000000180038050     libucrt:output.obj
 0004:0000105c       $pdata$__stdio_common_vsprintf 000000018003805c     libucrt:output.obj
 0004:00001068       $pdata$__stdio_common_vswprintf 0000000180038068     libucrt:output.obj
 0004:00001074       $pdata$??$common_fullpath_user_buffer@_W@@YAPEA_WQEA_WQEB_W_K@Z 0000000180038074     libucrt:fullpath.obj
 0004:00001080       $pdata$_wfullpath          0000000180038080     libucrt:fullpath.obj
 0004:0000108c       $pdata$??$common_assert_to_message_box@_W@@YAXQEB_W0IQEAX@Z 000000018003808c     libucrt:assert.obj
 0004:00001098       $pdata$??$common_assert_to_message_box_build_string@_W@@YAXQEA_W_KQEB_W2IQEAX@Z 0000000180038098     libucrt:assert.obj
 0004:000010a4       $pdata$??$common_assert_to_stderr@_W@@YAXQEB_W0I@Z 00000001800380a4     libucrt:assert.obj
 0004:000010b0       $pdata$_wassert            00000001800380b0     libucrt:assert.obj
 0004:000010bc       $pdata$fwprintf            00000001800380bc     libucrt:assert.obj
 0004:000010c8       $pdata$swprintf            00000001800380c8     libucrt:assert.obj
 0004:000010d4       $pdata$_stricmp            00000001800380d4     libucrt:stricmp.obj
 0004:000010e0       $pdata$_stricmp_l          00000001800380e0     libucrt:stricmp.obj
 0004:000010ec       $pdata$_callnewh           00000001800380ec     libucrt:new_handler.obj
 0004:000010f8       $pdata$_query_new_handler  00000001800380f8     libucrt:new_handler.obj
 0004:00001104       $pdata$_seh_filter_exe     0000000180038104     libucrt:exception_filter.obj
 0004:00001110       $pdata$?common_exit@@YAXHW4_crt_exit_cleanup_mode@@W4_crt_exit_return_mode@@@Z 0000000180038110     libucrt:exit.obj
 0004:0000111c       $pdata$?exit_or_terminate_process@@YAXI@Z 000000018003811c     libucrt:exit.obj
 0004:00001128       $pdata$?try_cor_exit_process@@YAXI@Z 0000000180038128     libucrt:exit.obj
 0004:00001134       $pdata$??$common_initialize_environment_nolock@D@@YAHXZ 0000000180038134     libucrt:environment_initialization.obj
 0004:00001140       $pdata$??$create_environment@D@@YAQEAPEADQEAD@Z 0000000180038140     libucrt:environment_initialization.obj
 0004:0000114c       $pdata$??$free_environment@D@@YAXQEAPEAD@Z 000000018003814c     libucrt:environment_initialization.obj
 0004:0000114c       $pdata$??$free_environment@_W@@YAXQEAPEA_W@Z 000000018003814c     libucrt:environment_initialization.obj
 0004:00001158       $pdata$??$uninitialize_environment_internal@D@@YAXAEAPEAPEAD@Z 0000000180038158     libucrt:environment_initialization.obj
 0004:00001164       $pdata$??$uninitialize_environment_internal@_W@@YAXAEAPEAPEA_W@Z 0000000180038164     libucrt:environment_initialization.obj
 0004:00001170       $pdata$__dcrt_uninitialize_environments_nolock 0000000180038170     libucrt:environment_initialization.obj
 0004:0000117c       $pdata$??$?RV<lambda_b8c45f8f788dd370798f47cfe8ac3a86>@@AEAV<lambda_4e60a939b0d047cfe11ddc22648dfba9>@@V<lambda_332c3edc96d0294ec56c57d38c1cdfd5>@@@?$__crt_seh_guarded_call@H@@QEAAH$$QEAV<lambda_b8c45f8f788dd370798f47cfe8ac3a86>@@AEAV<lambda_4e60a939b0d047cfe11ddc22648dfba9>@@$$QEAV<lambda_332c3edc96d0294ec56c57d38c1cdfd5>@@@Z 000000018003817c     libucrt:onexit.obj
 0004:00001188       $pdata$??$?RV<lambda_e24bbb7b643b32fcea6fa61b31d4c984>@@AEAV<lambda_275893d493268fdec8709772e3fcec0e>@@V<lambda_9d71df4d7cf3f480f8d633942495c3b0>@@@?$__crt_seh_guarded_call@H@@QEAAH$$QEAV<lambda_e24bbb7b643b32fcea6fa61b31d4c984>@@AEAV<lambda_275893d493268fdec8709772e3fcec0e>@@$$QEAV<lambda_9d71df4d7cf3f480f8d633942495c3b0>@@@Z 0000000180038188     libucrt:onexit.obj
 0004:00001194       $pdata$??R<lambda_4e60a939b0d047cfe11ddc22648dfba9>@@QEBAHXZ 0000000180038194     libucrt:onexit.obj
 0004:000011a0       $pdata$_execute_onexit_table 00000001800381a0     libucrt:onexit.obj
 0004:000011ac       $pdata$_register_onexit_function 00000001800381ac     libucrt:onexit.obj
 0004:000011b8       $pdata$initialize_c        00000001800381b8     libucrt:initialization.obj
 0004:000011c4       $pdata$uninitialize_environment 00000001800381c4     libucrt:initialization.obj
 0004:000011d0       $pdata$initialize_pointers 00000001800381d0     libucrt:initialization.obj
 0004:000011dc       $pdata$uninitialize_allocated_memory 00000001800381dc     libucrt:initialization.obj
 0004:000011e8       $pdata$__acrt_thread_attach 00000001800381e8     libucrt:initialization.obj
 0004:000011f4       $pdata$__acrt_thread_detach 00000001800381f4     libucrt:initialization.obj
 0004:00001200       $pdata$__acrt_uninitialize_critical 0000000180038200     libucrt:initialization.obj
 0004:0000120c       $pdata$_initterm           000000018003820c     libucrt:initterm.obj
 0004:00001218       $pdata$_initterm_e         0000000180038218     libucrt:initterm.obj
 0004:00001224       $pdata$terminate           0000000180038224     libucrt:terminate.obj
 0004:00001230       $pdata$abort               0000000180038230     libucrt:abort.obj
 0004:0000123c       $pdata$strcpy_s            000000018003823c     libucrt:strcpy_s.obj
 0004:00001248       $pdata$_free_base          0000000180038248     libucrt:free_base.obj
 0004:00001254       $pdata$_malloc_base        0000000180038254     libucrt:malloc_base.obj
 0004:00001260       $pdata$_calloc_base        0000000180038260     libucrt:calloc_base.obj
 0004:0000126c       $pdata$??$parse_integer@KV?$c_string_character_source@D@__crt_strtox@@@__crt_strtox@@YAKQEAU__crt_locale_pointers@@V?$c_string_character_source@D@0@H_N@Z 000000018003826c     libucrt:atox.obj
 0004:00001278       $pdata$??$parse_integer@KV?$c_string_character_source@_W@__crt_strtox@@@__crt_strtox@@YAKQEAU__crt_locale_pointers@@V?$c_string_character_source@_W@0@H_N@Z 0000000180038278     libucrt:atox.obj
 0004:00001284       $pdata$??$?RV<lambda_46352004c1216016012b18bd6f87e700>@@AEAV<lambda_3bd07e1a1191394380780325891bf33f>@@V<lambda_334532d3f185bcaa59b5be82d7d22bff>@@@?$__crt_seh_guarded_call@X@@QEAAX$$QEAV<lambda_46352004c1216016012b18bd6f87e700>@@AEAV<lambda_3bd07e1a1191394380780325891bf33f>@@$$QEAV<lambda_334532d3f185bcaa59b5be82d7d22bff>@@@Z 0000000180038284     libucrt:per_thread_data.obj
 0004:00001290       $pdata$??$?RV<lambda_5e887d1dcbef67a5eb4283622ba103bf>@@AEAV<lambda_4466841279450cc726390878d4a41900>@@V<lambda_341c25c0346d94847f1f3c463c57e077>@@@?$__crt_seh_guarded_call@X@@QEAAX$$QEAV<lambda_5e887d1dcbef67a5eb4283622ba103bf>@@AEAV<lambda_4466841279450cc726390878d4a41900>@@$$QEAV<lambda_341c25c0346d94847f1f3c463c57e077>@@@Z 0000000180038290     libucrt:per_thread_data.obj
 0004:0000129c       $pdata$??$?RV<lambda_72d1df2b273a38828b1ce30cbf4cdab5>@@AEAV<lambda_876a65b173b8412d3a47c70a915b0cf4>@@V<lambda_41932305e351933ebe8f8be3ed8bb5dc>@@@?$__crt_seh_guarded_call@X@@QEAAX$$QEAV<lambda_72d1df2b273a38828b1ce30cbf4cdab5>@@AEAV<lambda_876a65b173b8412d3a47c70a915b0cf4>@@$$QEAV<lambda_41932305e351933ebe8f8be3ed8bb5dc>@@@Z 000000018003829c     libucrt:per_thread_data.obj
 0004:000012a8       $pdata$??$?RV<lambda_fb3a7dec4e47f37f22dae91bb15c9095>@@AEAV<lambda_698284760c8add0bfb0756c19673e34b>@@V<lambda_dfb8eca1e75fef3034a8fb18dd509707>@@@?$__crt_seh_guarded_call@X@@QEAAX$$QEAV<lambda_fb3a7dec4e47f37f22dae91bb15c9095>@@AEAV<lambda_698284760c8add0bfb0756c19673e34b>@@$$QEAV<lambda_dfb8eca1e75fef3034a8fb18dd509707>@@@Z 00000001800382a8     libucrt:per_thread_data.obj
 0004:000012b4       $pdata$?construct_ptd_array@@YAXQEAU__acrt_ptd@@@Z 00000001800382b4     libucrt:per_thread_data.obj
 0004:000012c0       $pdata$?destroy_fls@@YAXPEAX@Z 00000001800382c0     libucrt:per_thread_data.obj
 0004:000012cc       $pdata$?destroy_ptd_array@@YAXQEAU__acrt_ptd@@@Z 00000001800382cc     libucrt:per_thread_data.obj
 0004:000012d8       $pdata$?replace_current_thread_locale_nolock@@YAXQEAU__acrt_ptd@@QEAU__crt_locale_data@@@Z 00000001800382d8     libucrt:per_thread_data.obj
 0004:000012e4       $pdata$__acrt_freeptd      00000001800382e4     libucrt:per_thread_data.obj
 0004:000012f0       $pdata$__acrt_getptd       00000001800382f0     libucrt:per_thread_data.obj
 0004:000012fc       $pdata$__acrt_getptd_noexit 00000001800382fc     libucrt:per_thread_data.obj
 0004:00001308       $pdata$__acrt_initialize_ptd 0000000180038308     libucrt:per_thread_data.obj
 0004:00001314       $pdata$__acrt_uninitialize_ptd 0000000180038314     libucrt:per_thread_data.obj
 0004:00001320       $pdata$isdigit             0000000180038320     libucrt:_ctype.obj
 0004:0000132c       $pdata$?internal_isupper_l@@YA_NHQEAU__crt_locale_pointers@@@Z 000000018003832c     libucrt:tolower_toupper.obj
 0004:00001338       $pdata$_tolower_l          0000000180038338     libucrt:tolower_toupper.obj
 0004:00001344       $pdata$tolower             0000000180038344     libucrt:tolower_toupper.obj
 0004:00001350       $pdata$__acrt_errno_map_os_error 0000000180038350     libucrt:errno.obj
 0004:0000135c       $pdata$__doserrno          000000018003835c     libucrt:errno.obj
 0004:00001368       $pdata$_errno              0000000180038368     libucrt:errno.obj
 0004:00001374       $pdata$strtol              0000000180038374     libucrt:strtox.obj
 0004:00001380       $pdata$wcstol              0000000180038380     libucrt:strtox.obj
 0004:0000138c       $pdata$_mbtowc_l           000000018003838c     libucrt:mbtowc.obj
 0004:00001398       $pdata$_wctomb_s_l         0000000180038398     libucrt:wctomb.obj
 0004:000013a4       $pdata$wctomb_s            00000001800383a4     libucrt:wctomb.obj
 0004:000013b0       $pdata$strnlen             00000001800383b0     libucrt:strnlen.obj
 0004:000013bc       $pdata$wcsnlen             00000001800383bc     libucrt:strnlen.obj
 0004:000013c8       $pdata$__acrt_update_locale_info 00000001800383c8     libucrt:locale_update.obj
 0004:000013d4       $pdata$__acrt_update_multibyte_info 00000001800383d4     libucrt:locale_update.obj
 0004:000013e0       $pdata$?fp_format_a@@YAHQEBNPEAD_KQEAD2H_NIQEAU__crt_locale_pointers@@@Z 00000001800383e0     libucrt:cvt.obj
 0004:000013ec       $pdata$?fp_format_e@@YAHQEBNQEAD_K12H_NIQEAU__crt_locale_pointers@@@Z 00000001800383ec     libucrt:cvt.obj
 0004:000013f8       $pdata$?fp_format_e_internal@@YAHQEAD_KH_NIQEAU_strflt@@2QEAU__crt_locale_pointers@@@Z 00000001800383f8     libucrt:cvt.obj
 0004:00001404       $pdata$?fp_format_f_internal@@YAHQEAD_KHQEAU_strflt@@_NQEAU__crt_locale_pointers@@@Z 0000000180038404     libucrt:cvt.obj
 0004:00001410       $pdata$?fp_format_g@@YAHQEBNQEAD_K12H_NIQEAU__crt_locale_pointers@@@Z 0000000180038410     libucrt:cvt.obj
 0004:0000141c       $pdata$?fp_format_nan_or_infinity@@YAHW4__acrt_fp_class@@_NPEAD_K1@Z 000000018003841c     libucrt:cvt.obj
 0004:00001428       $pdata$__acrt_fp_format    0000000180038428     libucrt:cvt.obj
 0004:00001434       $pdata$_fputwc_nolock      0000000180038434     libucrt:fputwc.obj
 0004:00001440       $pdata$_fileno             0000000180038440     libucrt:fileno.obj
 0004:0000144c       $pdata$__acrt_initialize_stdio 000000018003844c     libucrt:_file.obj
 0004:00001458       $pdata$__acrt_uninitialize_stdio 0000000180038458     libucrt:_file.obj
 0004:00001464       $pdata$__acrt_stdio_begin_temporary_buffering_nolock 0000000180038464     libucrt:_sftbuf.obj
 0004:00001470       $pdata$__acrt_stdio_end_temporary_buffering_nolock 0000000180038470     libucrt:_sftbuf.obj
 0004:0000147c       $pdata$__acrt_uninitialize_locale 000000018003847c     libucrt:wsetlocale.obj
 0004:00001488       $pdata$?initialize_inherited_file_handles_nolock@@YAXXZ 0000000180038488     libucrt:ioinit.obj
 0004:00001494       $pdata$?initialize_stdio_handles_nolock@@YAXXZ 0000000180038494     libucrt:ioinit.obj
 0004:000014a0       $pdata$__acrt_initialize_lowio 00000001800384a0     libucrt:ioinit.obj
 0004:000014ac       $pdata$__acrt_uninitialize_lowio 00000001800384ac     libucrt:ioinit.obj
 0004:000014b8       $pdata$??$common_getdcwd@_W@@YAPEA_WHQEA_WHHQEBDH@Z 00000001800384b8     libucrt:getcwd.obj
 0004:000014c4       $pdata$??$common_getdcwd_user_buffer@_W@@YAPEA_WQEA_W0I@Z 00000001800384c4     libucrt:getcwd.obj
 0004:000014d0       $pdata$?is_valid_drive@@YAHI@Z 00000001800384d0     libucrt:getcwd.obj
 0004:000014dc       $pdata$_wgetcwd            00000001800384dc     libucrt:getcwd.obj
 0004:000014e8       $pdata$??$common_xtox@K_W@@YAHKQEA_W_KI_N@Z 00000001800384e8     libucrt:xtoa.obj
 0004:000014f4       $pdata$??$common_xtox_s@K_W@@YAHKQEA_W_KI_N@Z 00000001800384f4     libucrt:xtoa.obj
 0004:00001500       $pdata$_itow_s             0000000180038500     libucrt:xtoa.obj
 0004:0000150c       $pdata$_set_error_mode     000000018003850c     libucrt:set_error_mode.obj
 0004:00001518       $pdata$wcscat_s            0000000180038518     libucrt:wcscat_s.obj
 0004:00001524       $pdata$wcscpy_s            0000000180038524     libucrt:wcscpy_s.obj
 0004:00001530       $pdata$wcsncat_s           0000000180038530     libucrt:wcsncat_s.obj
 0004:0000153c       $pdata$??$message_box_wait_thread@_W@@YAKQEAX@Z 000000018003853c     libucrt:crtmbox.obj
 0004:00001548       $pdata$__acrt_show_wide_message_box 0000000180038548     libucrt:crtmbox.obj
 0004:00001554       $pdata$__acrt_stdio_flush_nolock 0000000180038554     libucrt:fflush.obj
 0004:00001560       $pdata$_fflush_nolock      0000000180038560     libucrt:fflush.obj
 0004:0000156c       $pdata$common_flush_all    000000018003856c     libucrt:fflush.obj
 0004:00001578       $pdata$fflush              0000000180038578     libucrt:fflush.obj
 0004:00001584       $pdata$??$?RV<lambda_7a5ef57ff966f610505f1d28a3d40618>@@AEAV<lambda_b721fa326cdb32351d23dfa67958c160>@@V<lambda_5e0fb27672408a07956fe59e48ccb2aa>@@@?$__crt_seh_guarded_call@H@@QEAAH$$QEAV<lambda_7a5ef57ff966f610505f1d28a3d40618>@@AEAV<lambda_b721fa326cdb32351d23dfa67958c160>@@$$QEAV<lambda_5e0fb27672408a07956fe59e48ccb2aa>@@@Z 0000000180038584     libucrt:setvbuf.obj
 0004:00001590       $pdata$??R<lambda_b721fa326cdb32351d23dfa67958c160>@@QEBAHXZ 0000000180038590     libucrt:setvbuf.obj
 0004:0000159c       $pdata$setvbuf             000000018003859c     libucrt:setvbuf.obj
 0004:000015a8       $pdata$??$?RV<lambda_c36588078e9f5dfd39652860aa6b3aaf>@@AEAV<lambda_ec61778202f4f5fc7e7711acc23c3bca>@@V<lambda_dc9d2797ccde5d239b4a0efae8ebd7db>@@@?$__crt_seh_guarded_call@P6AXH@Z@@QEAAP6AXH@Z$$QEAV<lambda_c36588078e9f5dfd39652860aa6b3aaf>@@AEAV<lambda_ec61778202f4f5fc7e7711acc23c3bca>@@$$QEAV<lambda_dc9d2797ccde5d239b4a0efae8ebd7db>@@@Z 00000001800385a8     libucrt:signal.obj
 0004:000015b4       $pdata$__acrt_get_sigabrt_handler 00000001800385b4     libucrt:signal.obj
 0004:000015c0       $pdata$raise               00000001800385c0     libucrt:signal.obj
 0004:000015cc       $pdata$__acrt_initialize_locks 00000001800385cc     libucrt:locks.obj
 0004:000015d8       $pdata$__acrt_uninitialize_locks 00000001800385d8     libucrt:locks.obj
 0004:000015e4       $pdata$?try_get_function@@YAPEAXW4function_id@?A0x63058377@@QEBDQEBW4module_id@2@2@Z 00000001800385e4     libucrt:winapi_thunks.obj
 0004:000015f0       $pdata$__acrt_FlsAlloc     00000001800385f0     libucrt:winapi_thunks.obj
 0004:000015fc       $pdata$__acrt_FlsFree      00000001800385fc     libucrt:winapi_thunks.obj
 0004:00001608       $pdata$__acrt_FlsGetValue  0000000180038608     libucrt:winapi_thunks.obj
 0004:00001614       $pdata$__acrt_FlsSetValue  0000000180038614     libucrt:winapi_thunks.obj
 0004:00001620       $pdata$__acrt_InitializeCriticalSectionEx 0000000180038620     libucrt:winapi_thunks.obj
 0004:0000162c       $pdata$__acrt_LCMapStringEx 000000018003862c     libucrt:winapi_thunks.obj
 0004:00001638       $pdata$__acrt_LocaleNameToLCID 0000000180038638     libucrt:winapi_thunks.obj
 0004:00001644       $pdata$__acrt_MessageBoxW  0000000180038644     libucrt:winapi_thunks.obj
 0004:00001650       $pdata$__acrt_can_show_message_box 0000000180038650     libucrt:winapi_thunks.obj
 0004:0000165c       $pdata$__acrt_get_parent_window 000000018003865c     libucrt:winapi_thunks.obj
 0004:00001668       $pdata$__acrt_initialize_winapi_thunks 0000000180038668     libucrt:winapi_thunks.obj
 0004:00001674       $pdata$__acrt_is_interactive 0000000180038674     libucrt:winapi_thunks.obj
 0004:00001680       $pdata$__acrt_is_packaged_app 0000000180038680     libucrt:winapi_thunks.obj
 0004:0000168c       $pdata$__acrt_uninitialize_winapi_thunks 000000018003868c     libucrt:winapi_thunks.obj
 0004:00001698       $pdata$??$?RV<lambda_99476a1ad63dd22509b5d3e65b0ffc95>@@AEAV<lambda_ad1ced32f4ac17aa236e5ef05d6b3b7c>@@V<lambda_f7424dd8d45958661754dc4f2697e9c3>@@@?$__crt_seh_guarded_call@X@@QEAAX$$QEAV<lambda_99476a1ad63dd22509b5d3e65b0ffc95>@@AEAV<lambda_ad1ced32f4ac17aa236e5ef05d6b3b7c>@@$$QEAV<lambda_f7424dd8d45958661754dc4f2697e9c3>@@@Z 0000000180038698     libucrt:mbctype.obj
 0004:000016a4       $pdata$??R<lambda_ad1ced32f4ac17aa236e5ef05d6b3b7c>@@QEBAXXZ 00000001800386a4     libucrt:mbctype.obj
 0004:000016b0       $pdata$?getSystemCP@@YAHH@Z 00000001800386b0     libucrt:mbctype.obj
 0004:000016bc       $pdata$?setSBCS@@YAXPEAU__crt_multibyte_data@@@Z 00000001800386bc     libucrt:mbctype.obj
 0004:000016c8       $pdata$?setSBUpLow@@YAXPEAU__crt_multibyte_data@@@Z 00000001800386c8     libucrt:mbctype.obj
 0004:000016d4       $pdata$?setmbcp_internal@@YAHH_N@Z 00000001800386d4     libucrt:mbctype.obj
 0004:000016e0       $pdata$__acrt_initialize_multibyte 00000001800386e0     libucrt:mbctype.obj
 0004:000016ec       $pdata$__acrt_update_thread_multibyte_data 00000001800386ec     libucrt:mbctype.obj
 0004:000016f8       $pdata$_setmbcp_nolock     00000001800386f8     libucrt:mbctype.obj
 0004:00001704       $pdata$__dcrt_get_narrow_environment_from_os 0000000180038704     libucrt:get_environment_from_os.obj
 0004:00001710       $pdata$_recalloc_base      0000000180038710     libucrt:recalloc.obj
 0004:0000171c       $pdata$__acrt_initialize_heap 000000018003871c     libucrt:heap_handle.obj
 0004:00001728       $pdata$__acrt_initialize_command_line 0000000180038728     libucrt:argv_data.obj
 0004:00001734       $pdata$__acrt_execute_initializers 0000000180038734     libucrt:shared_initialization.obj
 0004:00001740       $pdata$__acrt_execute_uninitializers 0000000180038740     libucrt:shared_initialization.obj
 0004:0000174c       $pdata$__acrt_invoke_user_matherr 000000018003874c     libucrt:matherr.obj
 0004:00001758       $pdata$__pctype_func       0000000180038758     libucrt:ctype.obj
 0004:00001764       $pdata$iswctype            0000000180038764     libucrt:iswctype.obj
 0004:00001770       $pdata$_isctype_l          0000000180038770     libucrt:isctype.obj
 0004:0000177c       $pdata$__acrt_free_locale  000000018003877c     libucrt:locale_refcounting.obj
 0004:00001788       $pdata$__acrt_locale_free_lc_time_if_unreferenced 0000000180038788     libucrt:locale_refcounting.obj
 0004:00001794       $pdata$__acrt_release_locale_ref 0000000180038794     libucrt:locale_refcounting.obj
 0004:000017a0       $pdata$__acrt_update_thread_locale_data 00000001800387a0     libucrt:locale_refcounting.obj
 0004:000017ac       $pdata$_updatetlocinfoEx_nolock 00000001800387ac     libucrt:locale_refcounting.obj
 0004:000017b8       $pdata$_isleadbyte_l       00000001800387b8     libucrt:_wctype.obj
 0004:000017c4       $pdata$?__acrt_LCMapStringA_stat@@YAHPEAU__crt_locale_pointers@@PEB_WKPEBDHPEADHHH@Z 00000001800387c4     libucrt:lcmapstringa.obj
 0004:000017d0       $pdata$__acrt_LCMapStringA 00000001800387d0     libucrt:lcmapstringa.obj
 0004:000017dc       $pdata$__acrt_fp_strflt_to_string 00000001800387dc     libucrt:_fptostr.obj
 0004:000017e8       $pdata$?divide@__crt_strtox@@YA_KAEAUbig_integer@1@AEBU21@@Z 00000001800387e8     libucrt:cfout.obj
 0004:000017f4       $pdata$5$?divide@__crt_strtox@@YA_KAEAUbig_integer@1@AEBU21@@Z 00000001800387f4     libucrt:cfout.obj
 0004:00001800       $pdata$6$?divide@__crt_strtox@@YA_KAEAUbig_integer@1@AEBU21@@Z 0000000180038800     libucrt:cfout.obj
 0004:0000180c       $pdata$__acrt_fltout       000000018003880c     libucrt:cfout.obj
 0004:00001818       $pdata$memcpy_s            0000000180038818     libucrt:cfout.obj
 0004:00001824       $pdata$??$write_buffer_nolock@D@@YA_NDV__crt_stdio_stream@@@Z 0000000180038824     libucrt:_flsbuf.obj
 0004:00001830       $pdata$??$write_buffer_nolock@_W@@YA_N_WV__crt_stdio_stream@@@Z 0000000180038830     libucrt:_flsbuf.obj
 0004:0000183c       $pdata$__acrt_stdio_flush_and_write_narrow_nolock 000000018003883c     libucrt:_flsbuf.obj
 0004:00001848       $pdata$__acrt_stdio_flush_and_write_wide_nolock 0000000180038848     libucrt:_flsbuf.obj
 0004:00001854       $pdata$_fcloseall          0000000180038854     libucrt:closeall.obj
 0004:00001860       $pdata$__acrt_stdio_free_buffer_nolock 0000000180038860     libucrt:_freebuf.obj
 0004:0000186c       $pdata$_isatty             000000018003886c     libucrt:isatty.obj
 0004:00001878       $pdata$__acrt_locale_free_monetary 0000000180038878     libucrt:initmon.obj
 0004:00001884       $pdata$__acrt_locale_free_numeric 0000000180038884     libucrt:initnum.obj
 0004:00001890       $pdata$?free_crt_array_internal@@YAXQEAPEBX_K@Z 0000000180038890     libucrt:inittime.obj
 0004:0000189c       $pdata$__acrt_locale_free_time 000000018003889c     libucrt:inittime.obj
 0004:000018a8       $pdata$__acrt_GetStringTypeA 00000001800388a8     libucrt:getstringtypea.obj
 0004:000018b4       $pdata$__acrt_lowio_create_handle_array 00000001800388b4     libucrt:osfinfo.obj
 0004:000018c0       $pdata$__acrt_lowio_destroy_handle_array 00000001800388c0     libucrt:osfinfo.obj
 0004:000018cc       $pdata$__acrt_lowio_ensure_fh_exists 00000001800388cc     libucrt:osfinfo.obj
 0004:000018d8       $pdata$_free_osfhnd        00000001800388d8     libucrt:osfinfo.obj
 0004:000018e4       $pdata$_get_osfhandle      00000001800388e4     libucrt:osfinfo.obj
 0004:000018f0       $pdata$_getdrive           00000001800388f0     libucrt:drive.obj
 0004:000018fc       $pdata$??$?RV<lambda_b521505b218e5242e90febf6bfebc422>@@AEAV<lambda_6978c1fb23f02e42e1d9e99668cc68aa>@@V<lambda_314360699dd331753a4119843814e9a7>@@@?$__crt_seh_guarded_call@H@@QEAAH$$QEAV<lambda_b521505b218e5242e90febf6bfebc422>@@AEAV<lambda_6978c1fb23f02e42e1d9e99668cc68aa>@@$$QEAV<lambda_314360699dd331753a4119843814e9a7>@@@Z 00000001800388fc     libucrt:commit.obj
 0004:00001908       $pdata$_commit             0000000180038908     libucrt:commit.obj
 0004:00001914       $pdata$?write_double_translated_ansi_nolock@@YA?AUwrite_result@?A0x9c548279@@HQEBDI@Z 0000000180038914     libucrt:write.obj
 0004:00001920       $pdata$?write_text_ansi_nolock@@YA?AUwrite_result@?A0x9c548279@@HQEBDI@Z 0000000180038920     libucrt:write.obj
 0004:0000192c       $pdata$?write_text_utf16le_nolock@@YA?AUwrite_result@?A0x9c548279@@HQEBDI@Z 000000018003892c     libucrt:write.obj
 0004:00001938       $pdata$?write_text_utf8_nolock@@YA?AUwrite_result@?A0x9c548279@@HQEBDI@Z 0000000180038938     libucrt:write.obj
 0004:00001944       $pdata$_write              0000000180038944     libucrt:write.obj
 0004:00001950       $pdata$_write_nolock       0000000180038950     libucrt:write.obj
 0004:0000195c       $pdata$?GetTableIndexFromLocaleName@@YAHPEB_W@Z 000000018003895c     libucrt:lcidtoname_downlevel.obj
 0004:00001968       $pdata$__acrt_DownlevelLocaleNameToLCID 0000000180038968     libucrt:lcidtoname_downlevel.obj
 0004:00001974       $pdata$?initialize_multibyte@@YAHXZ 0000000180038974     libucrt:multibyte_initializer.obj
 0004:00001980       $pdata$_msize              0000000180038980     libucrt:msize.obj
 0004:0000198c       $pdata$_realloc_base       000000018003898c     libucrt:realloc_base.obj
 0004:00001998       $pdata$fegetenv            0000000180038998     libucrt:fegetenv.obj
 0004:000019a4       $pdata$fesetenv            00000001800389a4     libucrt:fesetenv.obj
 0004:000019b0       $pdata$feholdexcept        00000001800389b0     libucrt:feholdexcept.obj
 0004:000019c8       $pdata$??$common_lseek@_J@@YA_JH_JH@Z 00000001800389c8     libucrt:lseek.obj
 0004:000019d4       $pdata$??$common_lseek_nolock@_J@@YA_JH_JH@Z 00000001800389d4     libucrt:lseek.obj
 0004:000019e0       $pdata$__acrt_stdio_allocate_buffer_nolock 00000001800389e0     libucrt:_getbuf.obj
 0004:000019ec       $pdata$_fclose_nolock      00000001800389ec     libucrt:fclose.obj
 0004:000019f8       $pdata$fclose              00000001800389f8     libucrt:fclose.obj
 0004:00001a04       $pdata$_putwch_nolock      0000000180038a04     libucrt:putwch.obj
 0004:00001a10       $pdata$_getfpcontrolword   0000000180038a10     libucrt:_fenvutils.obj
 0004:00001a1c       $pdata$_getfpstatusword    0000000180038a1c     libucrt:_fenvutils.obj
 0004:00001a28       $pdata$_setfpstatusword    0000000180038a28     libucrt:_fenvutils.obj
 0004:00001a34       $pdata$_clearfp            0000000180038a34     libucrt:ieee.obj
 0004:00001a40       $pdata$common_control87    0000000180038a40     libucrt:ieee.obj
 0004:00001a4c       $pdata$_call_matherr       0000000180038a4c     libucrt:libm_error.obj
 0004:00001a58       $pdata$_exception_enabled  0000000180038a58     libucrt:libm_error.obj
 0004:00001a64       $pdata$_handle_error       0000000180038a64     libucrt:libm_error.obj
 0004:00001a70       $pdata$__acrt_initialize_fma3 0000000180038a70     libucrt:fma3_available.obj
 0004:00001a7c       $pdata$_log10_special      0000000180038a7c     libucrt:log_special.obj
 0004:00001a88       $pdata$_log_special_common 0000000180038a88     libucrt:log_special.obj
 0004:00001a94       $pdata$??$?RV<lambda_bfedae4ebbf01fab1bb6dcc6a9e276e0>@@AEAV<lambda_2fe9b910cf3cbf4a0ab98a02ba45b3ec>@@V<lambda_237c231691f317818eb88cc1d5d642d6>@@@?$__crt_seh_guarded_call@H@@QEAAH$$QEAV<lambda_bfedae4ebbf01fab1bb6dcc6a9e276e0>@@AEAV<lambda_2fe9b910cf3cbf4a0ab98a02ba45b3ec>@@$$QEAV<lambda_237c231691f317818eb88cc1d5d642d6>@@@Z 0000000180038a94     libucrt:close.obj
 0004:00001aa0       $pdata$_close              0000000180038aa0     libucrt:close.obj
 0004:00001aac       $pdata$_close_nolock       0000000180038aac     libucrt:close.obj
 0004:00001ab8       $pdata$__dcrt_lowio_initialize_console_output 0000000180038ab8     libucrt:initcon.obj
 0004:00001ac4       $pdata$__dcrt_terminate_console_output 0000000180038ac4     libucrt:initcon.obj
 0004:00001adc       $pdata$_raise_exc          0000000180038adc     libucrt:fpexcept.obj
 0004:00001ae8       $pdata$_raise_exc_ex       0000000180038ae8     libucrt:fpexcept.obj
 0004:00001af4       $pdata$_set_errno_from_matherr 0000000180038af4     libucrt:fpexcept.obj
 0004:00001b00       $pdata$_clrfp              0000000180038b00     libucrt:fpctrl.obj
 0004:00001b0c       $pdata$_ctrlfp             0000000180038b0c     libucrt:fpctrl.obj
 0004:00001b18       $pdata$_set_statfp         0000000180038b18     libucrt:fpctrl.obj
 0004:00001b24       $pdata$_statfp             0000000180038b24     libucrt:fpctrl.obj
 0004:00001b30       $pdata$_IsNonwritableInCurrentImage 0000000180038b30     LIBCMT:pesect.obj
 0004:00001b3c       $pdata$__GSHandlerCheck    0000000180038b3c     LIBCMT:_gshandler_.obj
 0004:00001b48       $pdata$__GSHandlerCheckCommon 0000000180038b48     LIBCMT:_gshandler_.obj
 0004:00001b60       $pdata$strrchr             0000000180038b60     libvcruntime:strrchr.obj
 0004:00001b84       $pdata$__scrt_is_nonwritable_in_current_image$filt$0 0000000180038b84     LIBCMT:utility.obj
 0004:00001b90       $pdata$?fin$0@?0??dllmain_crt_process_attach@@YAHQEAUHINSTANCE__@@QEAX@Z@4HA 0000000180038b90     LIBCMT:dll_dllmain.obj
 0004:00001b9c       $pdata$?fin$0@?0??dllmain_crt_process_detach@@YAH_N@Z@4HA 0000000180038b9c     LIBCMT:dll_dllmain.obj
 0004:00001ba8       $pdata$?filt$0@?0??dllmain_dispatch@@YAHQEAUHINSTANCE__@@KQEAX@Z@4HA 0000000180038ba8     LIBCMT:dll_dllmain.obj
 0004:00001bb4       $pdata$_query_new_handler$fin$0 0000000180038bb4     libucrt:new_handler.obj
 0004:00001bc0       $pdata$?filt$0@?0??common_exit@@YAXHW4_crt_exit_cleanup_mode@@W4_crt_exit_return_mode@@@Z@4HA 0000000180038bc0     libucrt:exit.obj
 0004:00001bcc       $pdata$?fin$1@?0??common_exit@@YAXHW4_crt_exit_cleanup_mode@@W4_crt_exit_return_mode@@@Z@4HA 0000000180038bcc     libucrt:exit.obj
 0004:00001bd8       $pdata$?fin$0@?0???$?RV<lambda_5e887d1dcbef67a5eb4283622ba103bf>@@AEAV<lambda_4466841279450cc726390878d4a41900>@@V<lambda_341c25c0346d94847f1f3c463c57e077>@@@?$__crt_seh_guarded_call@X@@QEAAX$$QEAV<lambda_5e887d1dcbef67a5eb4283622ba103bf>@@AEAV<lambda_4466841279450cc726390878d4a41900>@@$$QEAV<lambda_341c25c0346d94847f1f3c463c57e077>@@@Z@4HA 0000000180038bd8     libucrt:per_thread_data.obj
 0004:00001bd8       $pdata$?fin$0@?0???$?RV<lambda_b8c45f8f788dd370798f47cfe8ac3a86>@@AEAV<lambda_4e60a939b0d047cfe11ddc22648dfba9>@@V<lambda_332c3edc96d0294ec56c57d38c1cdfd5>@@@?$__crt_seh_guarded_call@H@@QEAAH$$QEAV<lambda_b8c45f8f788dd370798f47cfe8ac3a86>@@AEAV<lambda_4e60a939b0d047cfe11ddc22648dfba9>@@$$QEAV<lambda_332c3edc96d0294ec56c57d38c1cdfd5>@@@Z@4HA 0000000180038bd8     libucrt:onexit.obj
 0004:00001bd8       $pdata$?fin$0@?0???$?RV<lambda_99476a1ad63dd22509b5d3e65b0ffc95>@@AEAV<lambda_ad1ced32f4ac17aa236e5ef05d6b3b7c>@@V<lambda_f7424dd8d45958661754dc4f2697e9c3>@@@?$__crt_seh_guarded_call@X@@QEAAX$$QEAV<lambda_99476a1ad63dd22509b5d3e65b0ffc95>@@AEAV<lambda_ad1ced32f4ac17aa236e5ef05d6b3b7c>@@$$QEAV<lambda_f7424dd8d45958661754dc4f2697e9c3>@@@Z@4HA 0000000180038bd8     libucrt:mbctype.obj
 0004:00001bd8       $pdata$?fin$0@?0???$?RV<lambda_fb3a7dec4e47f37f22dae91bb15c9095>@@AEAV<lambda_698284760c8add0bfb0756c19673e34b>@@V<lambda_dfb8eca1e75fef3034a8fb18dd509707>@@@?$__crt_seh_guarded_call@X@@QEAAX$$QEAV<lambda_fb3a7dec4e47f37f22dae91bb15c9095>@@AEAV<lambda_698284760c8add0bfb0756c19673e34b>@@$$QEAV<lambda_dfb8eca1e75fef3034a8fb18dd509707>@@@Z@4HA 0000000180038bd8     libucrt:per_thread_data.obj
 0004:00001bd8       $pdata$?fin$0@?0???$?RV<lambda_72d1df2b273a38828b1ce30cbf4cdab5>@@AEAV<lambda_876a65b173b8412d3a47c70a915b0cf4>@@V<lambda_41932305e351933ebe8f8be3ed8bb5dc>@@@?$__crt_seh_guarded_call@X@@QEAAX$$QEAV<lambda_72d1df2b273a38828b1ce30cbf4cdab5>@@AEAV<lambda_876a65b173b8412d3a47c70a915b0cf4>@@$$QEAV<lambda_41932305e351933ebe8f8be3ed8bb5dc>@@@Z@4HA 0000000180038bd8     libucrt:per_thread_data.obj
 0004:00001bd8       $pdata$?fin$0@?0???$?RV<lambda_46352004c1216016012b18bd6f87e700>@@AEAV<lambda_3bd07e1a1191394380780325891bf33f>@@V<lambda_334532d3f185bcaa59b5be82d7d22bff>@@@?$__crt_seh_guarded_call@X@@QEAAX$$QEAV<lambda_46352004c1216016012b18bd6f87e700>@@AEAV<lambda_3bd07e1a1191394380780325891bf33f>@@$$QEAV<lambda_334532d3f185bcaa59b5be82d7d22bff>@@@Z@4HA 0000000180038bd8     libucrt:per_thread_data.obj
 0004:00001bd8       $pdata$?fin$0@?0???$?RV<lambda_c36588078e9f5dfd39652860aa6b3aaf>@@AEAV<lambda_ec61778202f4f5fc7e7711acc23c3bca>@@V<lambda_dc9d2797ccde5d239b4a0efae8ebd7db>@@@?$__crt_seh_guarded_call@P6AXH@Z@@QEAAP6AXH@Z$$QEAV<lambda_c36588078e9f5dfd39652860aa6b3aaf>@@AEAV<lambda_ec61778202f4f5fc7e7711acc23c3bca>@@$$QEAV<lambda_dc9d2797ccde5d239b4a0efae8ebd7db>@@@Z@4HA 0000000180038bd8     libucrt:signal.obj
 0004:00001be4       $pdata$?fin$0@?0???$?RV<lambda_e24bbb7b643b32fcea6fa61b31d4c984>@@AEAV<lambda_275893d493268fdec8709772e3fcec0e>@@V<lambda_9d71df4d7cf3f480f8d633942495c3b0>@@@?$__crt_seh_guarded_call@H@@QEAAH$$QEAV<lambda_e24bbb7b643b32fcea6fa61b31d4c984>@@AEAV<lambda_275893d493268fdec8709772e3fcec0e>@@$$QEAV<lambda_9d71df4d7cf3f480f8d633942495c3b0>@@@Z@4HA 0000000180038be4     libucrt:onexit.obj
 0004:00001bf0       $pdata$__acrt_lowio_ensure_fh_exists$fin$0 0000000180038bf0     libucrt:osfinfo.obj
 0004:00001bf0       $pdata$__acrt_initialize_lowio$fin$0 0000000180038bf0     libucrt:ioinit.obj
 0004:00001bfc       $pdata$common_flush_all$fin$0 0000000180038bfc     libucrt:fflush.obj
 0004:00001c08       $pdata$common_flush_all$fin$1 0000000180038c08     libucrt:fflush.obj
 0004:00001c14       $pdata$fflush$fin$0        0000000180038c14     libucrt:fflush.obj
 0004:00001c14       $pdata$fclose$fin$0        0000000180038c14     libucrt:fclose.obj
 0004:00001c20       $pdata$?fin$0@?0???$?RV<lambda_7b91131dde12e1c3dfc74ff76b3f2eac>@@AEAV<lambda_dd75445284c072d0bd3768540cc698fa>@@V<lambda_16bc4ecb55b4718497c16bceaea2ceaf>@@@?$__crt_seh_guarded_call@H@@QEAAH$$QEAV<lambda_7b91131dde12e1c3dfc74ff76b3f2eac>@@AEAV<lambda_dd75445284c072d0bd3768540cc698fa>@@$$QEAV<lambda_16bc4ecb55b4718497c16bceaea2ceaf>@@@Z@4HA 0000000180038c20     libucrt:output.obj
 0004:00001c20       $pdata$?fin$0@?0???$?RV<lambda_7a5ef57ff966f610505f1d28a3d40618>@@AEAV<lambda_b721fa326cdb32351d23dfa67958c160>@@V<lambda_5e0fb27672408a07956fe59e48ccb2aa>@@@?$__crt_seh_guarded_call@H@@QEAAH$$QEAV<lambda_7a5ef57ff966f610505f1d28a3d40618>@@AEAV<lambda_b721fa326cdb32351d23dfa67958c160>@@$$QEAV<lambda_5e0fb27672408a07956fe59e48ccb2aa>@@@Z@4HA 0000000180038c20     libucrt:setvbuf.obj
 0004:00001c2c       $pdata$raise$fin$0         0000000180038c2c     libucrt:signal.obj
 0004:00001c38       $pdata$__acrt_update_thread_multibyte_data$fin$0 0000000180038c38     libucrt:mbctype.obj
 0004:00001c44       $pdata$__acrt_uninitialize_locale$fin$0 0000000180038c44     libucrt:wsetlocale.obj
 0004:00001c44       $pdata$__acrt_update_thread_locale_data$fin$0 0000000180038c44     libucrt:locale_refcounting.obj
 0004:00001c50       $pdata$_fcloseall$fin$0    0000000180038c50     libucrt:closeall.obj
 0004:00001c5c       $pdata$?fin$0@?0???$?RV<lambda_b521505b218e5242e90febf6bfebc422>@@AEAV<lambda_6978c1fb23f02e42e1d9e99668cc68aa>@@V<lambda_314360699dd331753a4119843814e9a7>@@@?$__crt_seh_guarded_call@H@@QEAAH$$QEAV<lambda_b521505b218e5242e90febf6bfebc422>@@AEAV<lambda_6978c1fb23f02e42e1d9e99668cc68aa>@@$$QEAV<lambda_314360699dd331753a4119843814e9a7>@@@Z@4HA 0000000180038c5c     libucrt:commit.obj
 0004:00001c5c       $pdata$?fin$0@?0???$?RV<lambda_bfedae4ebbf01fab1bb6dcc6a9e276e0>@@AEAV<lambda_2fe9b910cf3cbf4a0ab98a02ba45b3ec>@@V<lambda_237c231691f317818eb88cc1d5d642d6>@@@?$__crt_seh_guarded_call@H@@QEAAH$$QEAV<lambda_bfedae4ebbf01fab1bb6dcc6a9e276e0>@@AEAV<lambda_2fe9b910cf3cbf4a0ab98a02ba45b3ec>@@$$QEAV<lambda_237c231691f317818eb88cc1d5d642d6>@@@Z@4HA 0000000180038c5c     libucrt:close.obj
 0004:00001c68       $pdata$_write$fin$0        0000000180038c68     libucrt:write.obj
 0004:00001c68       $pdata$?fin$0@?0???$common_lseek@_J@@YA_JH_JH@Z@4HA 0000000180038c68     libucrt:lseek.obj
 0004:00001c74       $pdata$common_control87$filt$0 0000000180038c74     libucrt:ieee.obj
 0004:00001c74       $pdata$_ctrlfp$filt$0      0000000180038c74     libucrt:fpctrl.obj
 0004:00001c80       $pdata$_IsNonwritableInCurrentImage$filt$0 0000000180038c80     LIBCMT:pesect.obj
 0004:00001c8c       $pdata$??__Fopts_int@zmq@@YAXXZ 0000000180038c8c     binding.obj
 0004:00001c98       $pdata$??__Fopts_uint32@zmq@@YAXXZ 0000000180038c98     binding.obj
 0004:00001ca4       $pdata$??__Fopts_int64@zmq@@YAXXZ 0000000180038ca4     binding.obj
 0004:00001cb0       $pdata$??__Fopts_uint64@zmq@@YAXXZ 0000000180038cb0     binding.obj
 0004:00001cbc       $pdata$??__Fopts_binary@zmq@@YAXXZ 0000000180038cbc     binding.obj
 0005:00000000       __guard_fids__             0000000180039000     libucrt:initialization.obj
 0005:00000060       __guard_fids___acrt_initialize_ptd 0000000180039060     libucrt:per_thread_data.obj
 0005:00000064       __guard_fids___acrt_show_wide_message_box 0000000180039064     libucrt:crtmbox.obj
 0005:00000068       __guard_fids__             0000000180039068     libucrt:stdio_initializer.obj
 0005:0000006c       __guard_fids__             000000018003906c     libucrt:stdio_initializer.obj
 0005:00000070       __guard_fids__             0000000180039070     libucrt:locale_initializer.obj
 0005:00000074       __guard_fids__             0000000180039074     libucrt:multibyte_initializer.obj
 0005:00000078       __guard_fids__             0000000180039078     libucrt:fma3_initializer.obj
 0005:0000007c       __guard_fids__             000000018003907c     libucrt:console_output_initializer.obj
 0005:00000080       __guard_fids__             0000000180039080     libcpmt:xthrow.obj
 0005:00000088       __guard_fids__             0000000180039088     libcpmt:xthrow.obj
 0005:00000090       __guard_fids__             0000000180039090     libcpmt:xthrow.obj
 0005:00000098       __guard_fids__             0000000180039098     libcpmt:xthrow.obj
 0005:000000a0       __guard_fids__             00000001800390a0     libcpmt:xthrow.obj
 0005:000000a8       __guard_fids__             00000001800390a8     LIBCMT:std_type_info_static.obj
 0005:000000ac       __guard_fids_?dllmain_crt_process_attach@@YAHQEAUHINSTANCE__@@QEAX@Z 00000001800390ac     LIBCMT:dll_dllmain.obj
 0005:000000b4       __guard_fids_?dllmain_dispatch@@YAHQEAUHINSTANCE__@@KQEAX@Z 00000001800390b4     LIBCMT:dll_dllmain.obj
 0005:000000b8       __guard_fids__             00000001800390b8     LIBCMT:guard_support.obj
 0005:000000bc       __guard_fids__             00000001800390bc     LIBCMT:throw_bad_alloc.obj
 0005:000000c4       __guard_fids__             00000001800390c4     libvcruntime:telemetry.obj
 0005:000000c8       __guard_fids_?TraceLoggingRegister@__vcrt_trace_logging_provider@@YAJPEBU_TlgProvider_t@1@PEBU_GUID@@P6AX1KE_K2PEAU_EVENT_FILTER_DESCRIPTOR@@PEAX@Z4@Z 00000001800390c8     libvcruntime:telemetry.obj
 0005:000000cc       __guard_fids___vcrt_initialize_ptd 00000001800390cc     libvcruntime:per_thread_data.obj
 0006:00000060       $R000000                   000000018003a060     * linker generated manifest res *

 Exports

  ordinal    name

        1    ??0Allocator@ArrayBuffer@v8@@QEAA@AEBV012@@Z (public: __cdecl v8::ArrayBuffer::Allocator::Allocator(class v8::ArrayBuffer::Allocator const &))
        2    ??0Allocator@ArrayBuffer@v8@@QEAA@XZ (public: __cdecl v8::ArrayBuffer::Allocator::Allocator(void))
        3    ??0CachedData@ScriptCompiler@v8@@QEAA@XZ (public: __cdecl v8::ScriptCompiler::CachedData::CachedData(void))
        4    ??0Contents@ArrayBuffer@v8@@QEAA@XZ (public: __cdecl v8::ArrayBuffer::Contents::Contents(void))
        5    ??0Contents@SharedArrayBuffer@v8@@QEAA@XZ (public: __cdecl v8::SharedArrayBuffer::Contents::Contents(void))
        6    ??0ExtensionConfiguration@v8@@QEAA@HQEAPEBD@Z (public: __cdecl v8::ExtensionConfiguration::ExtensionConfiguration(int,char const * * const))
        7    ??0ExtensionConfiguration@v8@@QEAA@XZ (public: __cdecl v8::ExtensionConfiguration::ExtensionConfiguration(void))
        8    ??0ExternalOneByteStringResource@String@v8@@IEAA@XZ (protected: __cdecl v8::String::ExternalOneByteStringResource::ExternalOneByteStringResource(void))
        9    ??0ExternalOneByteStringResourceImpl@v8@@QEAA@PEBD_K@Z (public: __cdecl v8::ExternalOneByteStringResourceImpl::ExternalOneByteStringResourceImpl(char const *,unsigned __int64))
       10    ??0ExternalOneByteStringResourceImpl@v8@@QEAA@XZ (public: __cdecl v8::ExternalOneByteStringResourceImpl::ExternalOneByteStringResourceImpl(void))
       11    ??0ExternalResourceVisitor@v8@@QEAA@AEBV01@@Z (public: __cdecl v8::ExternalResourceVisitor::ExternalResourceVisitor(class v8::ExternalResourceVisitor const &))
       12    ??0ExternalResourceVisitor@v8@@QEAA@XZ (public: __cdecl v8::ExternalResourceVisitor::ExternalResourceVisitor(void))
       13    ??0ExternalSourceStream@ScriptCompiler@v8@@QEAA@AEBV012@@Z (public: __cdecl v8::ScriptCompiler::ExternalSourceStream::ExternalSourceStream(class v8::ScriptCompiler::ExternalSourceStream const &))
       14    ??0ExternalSourceStream@ScriptCompiler@v8@@QEAA@XZ (public: __cdecl v8::ScriptCompiler::ExternalSourceStream::ExternalSourceStream(void))
       15    ??0ExternalStringResource@String@v8@@IEAA@XZ (protected: __cdecl v8::String::ExternalStringResource::ExternalStringResource(void))
       16    ??0ExternalStringResourceBase@String@v8@@IEAA@XZ (protected: __cdecl v8::String::ExternalStringResourceBase::ExternalStringResourceBase(void))
       17    ??0HandleScope@v8@@IEAA@XZ (protected: __cdecl v8::HandleScope::HandleScope(void))
       18    ??0Locker@v8@@QEAA@PEAVIsolate@1@@Z (public: __cdecl v8::Locker::Locker(class v8::Isolate *))
       19    ??0PersistentHandleVisitor@v8@@QEAA@AEBV01@@Z (public: __cdecl v8::PersistentHandleVisitor::PersistentHandleVisitor(class v8::PersistentHandleVisitor const &))
       20    ??0PersistentHandleVisitor@v8@@QEAA@XZ (public: __cdecl v8::PersistentHandleVisitor::PersistentHandleVisitor(void))
       21    ??0Scope@Isolate@v8@@QEAA@PEAV12@@Z (public: __cdecl v8::Isolate::Scope::Scope(class v8::Isolate *))
       22    ??0Unlocker@v8@@QEAA@PEAVIsolate@1@@Z (public: __cdecl v8::Unlocker::Unlocker(class v8::Isolate *))
       23    ??1Allocator@ArrayBuffer@v8@@UEAA@XZ (public: virtual __cdecl v8::ArrayBuffer::Allocator::~Allocator(void))
       24    ??1EscapableHandleScope@v8@@QEAA@XZ (public: __cdecl v8::EscapableHandleScope::~EscapableHandleScope(void))
       25    ??1Extension@v8@@UEAA@XZ (public: virtual __cdecl v8::Extension::~Extension(void))
       26    ??1ExternalOneByteStringResource@String@v8@@UEAA@XZ (public: virtual __cdecl v8::String::ExternalOneByteStringResource::~ExternalOneByteStringResource(void))
       27    ??1ExternalOneByteStringResourceImpl@v8@@UEAA@XZ (public: virtual __cdecl v8::ExternalOneByteStringResourceImpl::~ExternalOneByteStringResourceImpl(void))
       28    ??1ExternalResourceVisitor@v8@@UEAA@XZ (public: virtual __cdecl v8::ExternalResourceVisitor::~ExternalResourceVisitor(void))
       29    ??1ExternalSourceStream@ScriptCompiler@v8@@UEAA@XZ (public: virtual __cdecl v8::ScriptCompiler::ExternalSourceStream::~ExternalSourceStream(void))
       30    ??1ExternalStringResource@String@v8@@UEAA@XZ (public: virtual __cdecl v8::String::ExternalStringResource::~ExternalStringResource(void))
       31    ??1ExternalStringResourceBase@String@v8@@UEAA@XZ (public: virtual __cdecl v8::String::ExternalStringResourceBase::~ExternalStringResourceBase(void))
       32    ??1PersistentHandleVisitor@v8@@UEAA@XZ (public: virtual __cdecl v8::PersistentHandleVisitor::~PersistentHandleVisitor(void))
       33    ??1Scope@Isolate@v8@@QEAA@XZ (public: __cdecl v8::Isolate::Scope::~Scope(void))
       34    ??4AccessorSignature@v8@@QEAAAEAV01@$$QEAV01@@Z (public: class v8::AccessorSignature & __cdecl v8::AccessorSignature::operator=(class v8::AccessorSignature &&))
       35    ??4AccessorSignature@v8@@QEAAAEAV01@AEBV01@@Z (public: class v8::AccessorSignature & __cdecl v8::AccessorSignature::operator=(class v8::AccessorSignature const &))
       36    ??4Allocator@ArrayBuffer@v8@@QEAAAEAV012@AEBV012@@Z (public: class v8::ArrayBuffer::Allocator & __cdecl v8::ArrayBuffer::Allocator::operator=(class v8::ArrayBuffer::Allocator const &))
       37    ??4Array@v8@@QEAAAEAV01@$$QEAV01@@Z (public: class v8::Array & __cdecl v8::Array::operator=(class v8::Array &&))
       38    ??4Array@v8@@QEAAAEAV01@AEBV01@@Z (public: class v8::Array & __cdecl v8::Array::operator=(class v8::Array const &))
       39    ??4ArrayBuffer@v8@@QEAAAEAV01@$$QEAV01@@Z (public: class v8::ArrayBuffer & __cdecl v8::ArrayBuffer::operator=(class v8::ArrayBuffer &&))
       40    ??4ArrayBuffer@v8@@QEAAAEAV01@AEBV01@@Z (public: class v8::ArrayBuffer & __cdecl v8::ArrayBuffer::operator=(class v8::ArrayBuffer const &))
       41    ??4ArrayBufferView@v8@@QEAAAEAV01@$$QEAV01@@Z (public: class v8::ArrayBufferView & __cdecl v8::ArrayBufferView::operator=(class v8::ArrayBufferView &&))
       42    ??4ArrayBufferView@v8@@QEAAAEAV01@AEBV01@@Z (public: class v8::ArrayBufferView & __cdecl v8::ArrayBufferView::operator=(class v8::ArrayBufferView const &))
       43    ??4Boolean@v8@@QEAAAEAV01@$$QEAV01@@Z (public: class v8::Boolean & __cdecl v8::Boolean::operator=(class v8::Boolean &&))
       44    ??4Boolean@v8@@QEAAAEAV01@AEBV01@@Z (public: class v8::Boolean & __cdecl v8::Boolean::operator=(class v8::Boolean const &))
       45    ??4BooleanObject@v8@@QEAAAEAV01@$$QEAV01@@Z (public: class v8::BooleanObject & __cdecl v8::BooleanObject::operator=(class v8::BooleanObject &&))
       46    ??4BooleanObject@v8@@QEAAAEAV01@AEBV01@@Z (public: class v8::BooleanObject & __cdecl v8::BooleanObject::operator=(class v8::BooleanObject const &))
       47    ??4Contents@ArrayBuffer@v8@@QEAAAEAV012@$$QEAV012@@Z (public: class v8::ArrayBuffer::Contents & __cdecl v8::ArrayBuffer::Contents::operator=(class v8::ArrayBuffer::Contents &&))
       48    ??4Contents@ArrayBuffer@v8@@QEAAAEAV012@AEBV012@@Z (public: class v8::ArrayBuffer::Contents & __cdecl v8::ArrayBuffer::Contents::operator=(class v8::ArrayBuffer::Contents const &))
       49    ??4Contents@SharedArrayBuffer@v8@@QEAAAEAV012@$$QEAV012@@Z (public: class v8::SharedArrayBuffer::Contents & __cdecl v8::SharedArrayBuffer::Contents::operator=(class v8::SharedArrayBuffer::Contents &&))
       50    ??4Contents@SharedArrayBuffer@v8@@QEAAAEAV012@AEBV012@@Z (public: class v8::SharedArrayBuffer::Contents & __cdecl v8::SharedArrayBuffer::Contents::operator=(class v8::SharedArrayBuffer::Contents const &))
       51    ??4Context@v8@@QEAAAEAV01@$$QEAV01@@Z (public: class v8::Context & __cdecl v8::Context::operator=(class v8::Context &&))
       52    ??4Context@v8@@QEAAAEAV01@AEBV01@@Z (public: class v8::Context & __cdecl v8::Context::operator=(class v8::Context const &))
       53    ??4Data@v8@@QEAAAEAV01@$$QEAV01@@Z (public: class v8::Data & __cdecl v8::Data::operator=(class v8::Data &&))
       54    ??4Data@v8@@QEAAAEAV01@AEBV01@@Z (public: class v8::Data & __cdecl v8::Data::operator=(class v8::Data const &))
       55    ??4DataView@v8@@QEAAAEAV01@$$QEAV01@@Z (public: class v8::DataView & __cdecl v8::DataView::operator=(class v8::DataView &&))
       56    ??4DataView@v8@@QEAAAEAV01@AEBV01@@Z (public: class v8::DataView & __cdecl v8::DataView::operator=(class v8::DataView const &))
       57    ??4Date@v8@@QEAAAEAV01@$$QEAV01@@Z (public: class v8::Date & __cdecl v8::Date::operator=(class v8::Date &&))
       58    ??4Date@v8@@QEAAAEAV01@AEBV01@@Z (public: class v8::Date & __cdecl v8::Date::operator=(class v8::Date const &))
       59    ??4Exception@v8@@QEAAAEAV01@$$QEAV01@@Z (public: class v8::Exception & __cdecl v8::Exception::operator=(class v8::Exception &&))
       60    ??4Exception@v8@@QEAAAEAV01@AEBV01@@Z (public: class v8::Exception & __cdecl v8::Exception::operator=(class v8::Exception const &))
       61    ??4External@v8@@QEAAAEAV01@$$QEAV01@@Z (public: class v8::External & __cdecl v8::External::operator=(class v8::External &&))
       62    ??4External@v8@@QEAAAEAV01@AEBV01@@Z (public: class v8::External & __cdecl v8::External::operator=(class v8::External const &))
       63    ??4ExternalResourceVisitor@v8@@QEAAAEAV01@AEBV01@@Z (public: class v8::ExternalResourceVisitor & __cdecl v8::ExternalResourceVisitor::operator=(class v8::ExternalResourceVisitor const &))
       64    ??4ExternalSourceStream@ScriptCompiler@v8@@QEAAAEAV012@AEBV012@@Z (public: class v8::ScriptCompiler::ExternalSourceStream & __cdecl v8::ScriptCompiler::ExternalSourceStream::operator=(class v8::ScriptCompiler::ExternalSourceStream const &))
       65    ??4Float32Array@v8@@QEAAAEAV01@$$QEAV01@@Z (public: class v8::Float32Array & __cdecl v8::Float32Array::operator=(class v8::Float32Array &&))
       66    ??4Float32Array@v8@@QEAAAEAV01@AEBV01@@Z (public: class v8::Float32Array & __cdecl v8::Float32Array::operator=(class v8::Float32Array const &))
       67    ??4Float64Array@v8@@QEAAAEAV01@$$QEAV01@@Z (public: class v8::Float64Array & __cdecl v8::Float64Array::operator=(class v8::Float64Array &&))
       68    ??4Float64Array@v8@@QEAAAEAV01@AEBV01@@Z (public: class v8::Float64Array & __cdecl v8::Float64Array::operator=(class v8::Float64Array const &))
       69    ??4Function@v8@@QEAAAEAV01@$$QEAV01@@Z (public: class v8::Function & __cdecl v8::Function::operator=(class v8::Function &&))
       70    ??4Function@v8@@QEAAAEAV01@AEBV01@@Z (public: class v8::Function & __cdecl v8::Function::operator=(class v8::Function const &))
       71    ??4FunctionTemplate@v8@@QEAAAEAV01@$$QEAV01@@Z (public: class v8::FunctionTemplate & __cdecl v8::FunctionTemplate::operator=(class v8::FunctionTemplate &&))
       72    ??4FunctionTemplate@v8@@QEAAAEAV01@AEBV01@@Z (public: class v8::FunctionTemplate & __cdecl v8::FunctionTemplate::operator=(class v8::FunctionTemplate const &))
       73    ??4HeapObjectStatistics@v8@@QEAAAEAV01@$$QEAV01@@Z (public: class v8::HeapObjectStatistics & __cdecl v8::HeapObjectStatistics::operator=(class v8::HeapObjectStatistics &&))
       74    ??4HeapObjectStatistics@v8@@QEAAAEAV01@AEBV01@@Z (public: class v8::HeapObjectStatistics & __cdecl v8::HeapObjectStatistics::operator=(class v8::HeapObjectStatistics const &))
       75    ??4HeapSpaceStatistics@v8@@QEAAAEAV01@$$QEAV01@@Z (public: class v8::HeapSpaceStatistics & __cdecl v8::HeapSpaceStatistics::operator=(class v8::HeapSpaceStatistics &&))
       76    ??4HeapSpaceStatistics@v8@@QEAAAEAV01@AEBV01@@Z (public: class v8::HeapSpaceStatistics & __cdecl v8::HeapSpaceStatistics::operator=(class v8::HeapSpaceStatistics const &))
       77    ??4HeapStatistics@v8@@QEAAAEAV01@$$QEAV01@@Z (public: class v8::HeapStatistics & __cdecl v8::HeapStatistics::operator=(class v8::HeapStatistics &&))
       78    ??4HeapStatistics@v8@@QEAAAEAV01@AEBV01@@Z (public: class v8::HeapStatistics & __cdecl v8::HeapStatistics::operator=(class v8::HeapStatistics const &))
       79    ??4Int16Array@v8@@QEAAAEAV01@$$QEAV01@@Z (public: class v8::Int16Array & __cdecl v8::Int16Array::operator=(class v8::Int16Array &&))
       80    ??4Int16Array@v8@@QEAAAEAV01@AEBV01@@Z (public: class v8::Int16Array & __cdecl v8::Int16Array::operator=(class v8::Int16Array const &))
       81    ??4Int32@v8@@QEAAAEAV01@$$QEAV01@@Z (public: class v8::Int32 & __cdecl v8::Int32::operator=(class v8::Int32 &&))
       82    ??4Int32@v8@@QEAAAEAV01@AEBV01@@Z (public: class v8::Int32 & __cdecl v8::Int32::operator=(class v8::Int32 const &))
       83    ??4Int32Array@v8@@QEAAAEAV01@$$QEAV01@@Z (public: class v8::Int32Array & __cdecl v8::Int32Array::operator=(class v8::Int32Array &&))
       84    ??4Int32Array@v8@@QEAAAEAV01@AEBV01@@Z (public: class v8::Int32Array & __cdecl v8::Int32Array::operator=(class v8::Int32Array const &))
       85    ??4Int8Array@v8@@QEAAAEAV01@$$QEAV01@@Z (public: class v8::Int8Array & __cdecl v8::Int8Array::operator=(class v8::Int8Array &&))
       86    ??4Int8Array@v8@@QEAAAEAV01@AEBV01@@Z (public: class v8::Int8Array & __cdecl v8::Int8Array::operator=(class v8::Int8Array const &))
       87    ??4Integer@v8@@QEAAAEAV01@$$QEAV01@@Z (public: class v8::Integer & __cdecl v8::Integer::operator=(class v8::Integer &&))
       88    ??4Integer@v8@@QEAAAEAV01@AEBV01@@Z (public: class v8::Integer & __cdecl v8::Integer::operator=(class v8::Integer const &))
       89    ??4JSON@v8@@QEAAAEAV01@$$QEAV01@@Z (public: class v8::JSON & __cdecl v8::JSON::operator=(class v8::JSON &&))
       90    ??4JSON@v8@@QEAAAEAV01@AEBV01@@Z (public: class v8::JSON & __cdecl v8::JSON::operator=(class v8::JSON const &))
       91    ??4Map@v8@@QEAAAEAV01@$$QEAV01@@Z (public: class v8::Map & __cdecl v8::Map::operator=(class v8::Map &&))
       92    ??4Map@v8@@QEAAAEAV01@AEBV01@@Z (public: class v8::Map & __cdecl v8::Map::operator=(class v8::Map const &))
       93    ??4Message@v8@@QEAAAEAV01@$$QEAV01@@Z (public: class v8::Message & __cdecl v8::Message::operator=(class v8::Message &&))
       94    ??4Message@v8@@QEAAAEAV01@AEBV01@@Z (public: class v8::Message & __cdecl v8::Message::operator=(class v8::Message const &))
       95    ??4Name@v8@@QEAAAEAV01@$$QEAV01@@Z (public: class v8::Name & __cdecl v8::Name::operator=(class v8::Name &&))
       96    ??4Name@v8@@QEAAAEAV01@AEBV01@@Z (public: class v8::Name & __cdecl v8::Name::operator=(class v8::Name const &))
       97    ??4NativeWeakMap@v8@@QEAAAEAV01@$$QEAV01@@Z (public: class v8::NativeWeakMap & __cdecl v8::NativeWeakMap::operator=(class v8::NativeWeakMap &&))
       98    ??4NativeWeakMap@v8@@QEAAAEAV01@AEBV01@@Z (public: class v8::NativeWeakMap & __cdecl v8::NativeWeakMap::operator=(class v8::NativeWeakMap const &))
       99    ??4Number@v8@@QEAAAEAV01@$$QEAV01@@Z (public: class v8::Number & __cdecl v8::Number::operator=(class v8::Number &&))
      100    ??4Number@v8@@QEAAAEAV01@AEBV01@@Z (public: class v8::Number & __cdecl v8::Number::operator=(class v8::Number const &))
      101    ??4NumberObject@v8@@QEAAAEAV01@$$QEAV01@@Z (public: class v8::NumberObject & __cdecl v8::NumberObject::operator=(class v8::NumberObject &&))
      102    ??4NumberObject@v8@@QEAAAEAV01@AEBV01@@Z (public: class v8::NumberObject & __cdecl v8::NumberObject::operator=(class v8::NumberObject const &))
      103    ??4Object@v8@@QEAAAEAV01@$$QEAV01@@Z (public: class v8::Object & __cdecl v8::Object::operator=(class v8::Object &&))
      104    ??4Object@v8@@QEAAAEAV01@AEBV01@@Z (public: class v8::Object & __cdecl v8::Object::operator=(class v8::Object const &))
      105    ??4ObjectTemplate@v8@@QEAAAEAV01@$$QEAV01@@Z (public: class v8::ObjectTemplate & __cdecl v8::ObjectTemplate::operator=(class v8::ObjectTemplate &&))
      106    ??4ObjectTemplate@v8@@QEAAAEAV01@AEBV01@@Z (public: class v8::ObjectTemplate & __cdecl v8::ObjectTemplate::operator=(class v8::ObjectTemplate const &))
      107    ??4PersistentHandleVisitor@v8@@QEAAAEAV01@AEBV01@@Z (public: class v8::PersistentHandleVisitor & __cdecl v8::PersistentHandleVisitor::operator=(class v8::PersistentHandleVisitor const &))
      108    ??4Primitive@v8@@QEAAAEAV01@$$QEAV01@@Z (public: class v8::Primitive & __cdecl v8::Primitive::operator=(class v8::Primitive &&))
      109    ??4Primitive@v8@@QEAAAEAV01@AEBV01@@Z (public: class v8::Primitive & __cdecl v8::Primitive::operator=(class v8::Primitive const &))
      110    ??4Promise@v8@@QEAAAEAV01@$$QEAV01@@Z (public: class v8::Promise & __cdecl v8::Promise::operator=(class v8::Promise &&))
      111    ??4Promise@v8@@QEAAAEAV01@AEBV01@@Z (public: class v8::Promise & __cdecl v8::Promise::operator=(class v8::Promise const &))
      112    ??4RegExp@v8@@QEAAAEAV01@$$QEAV01@@Z (public: class v8::RegExp & __cdecl v8::RegExp::operator=(class v8::RegExp &&))
      113    ??4RegExp@v8@@QEAAAEAV01@AEBV01@@Z (public: class v8::RegExp & __cdecl v8::RegExp::operator=(class v8::RegExp const &))
      114    ??4Resolver@Promise@v8@@QEAAAEAV012@$$QEAV012@@Z (public: class v8::Promise::Resolver & __cdecl v8::Promise::Resolver::operator=(class v8::Promise::Resolver &&))
      115    ??4Resolver@Promise@v8@@QEAAAEAV012@AEBV012@@Z (public: class v8::Promise::Resolver & __cdecl v8::Promise::Resolver::operator=(class v8::Promise::Resolver const &))
      116    ??4ResourceConstraints@v8@@QEAAAEAV01@$$QEAV01@@Z (public: class v8::ResourceConstraints & __cdecl v8::ResourceConstraints::operator=(class v8::ResourceConstraints &&))
      117    ??4ResourceConstraints@v8@@QEAAAEAV01@AEBV01@@Z (public: class v8::ResourceConstraints & __cdecl v8::ResourceConstraints::operator=(class v8::ResourceConstraints const &))
      118    ??4Script@v8@@QEAAAEAV01@$$QEAV01@@Z (public: class v8::Script & __cdecl v8::Script::operator=(class v8::Script &&))
      119    ??4Script@v8@@QEAAAEAV01@AEBV01@@Z (public: class v8::Script & __cdecl v8::Script::operator=(class v8::Script const &))
      120    ??4ScriptCompiler@v8@@QEAAAEAV01@$$QEAV01@@Z (public: class v8::ScriptCompiler & __cdecl v8::ScriptCompiler::operator=(class v8::ScriptCompiler &&))
      121    ??4ScriptCompiler@v8@@QEAAAEAV01@AEBV01@@Z (public: class v8::ScriptCompiler & __cdecl v8::ScriptCompiler::operator=(class v8::ScriptCompiler const &))
      122    ??4Set@v8@@QEAAAEAV01@$$QEAV01@@Z (public: class v8::Set & __cdecl v8::Set::operator=(class v8::Set &&))
      123    ??4Set@v8@@QEAAAEAV01@AEBV01@@Z (public: class v8::Set & __cdecl v8::Set::operator=(class v8::Set const &))
      124    ??4SharedArrayBuffer@v8@@QEAAAEAV01@$$QEAV01@@Z (public: class v8::SharedArrayBuffer & __cdecl v8::SharedArrayBuffer::operator=(class v8::SharedArrayBuffer &&))
      125    ??4SharedArrayBuffer@v8@@QEAAAEAV01@AEBV01@@Z (public: class v8::SharedArrayBuffer & __cdecl v8::SharedArrayBuffer::operator=(class v8::SharedArrayBuffer const &))
      126    ??4Signature@v8@@QEAAAEAV01@$$QEAV01@@Z (public: class v8::Signature & __cdecl v8::Signature::operator=(class v8::Signature &&))
      127    ??4Signature@v8@@QEAAAEAV01@AEBV01@@Z (public: class v8::Signature & __cdecl v8::Signature::operator=(class v8::Signature const &))
      128    ??4StackFrame@v8@@QEAAAEAV01@$$QEAV01@@Z (public: class v8::StackFrame & __cdecl v8::StackFrame::operator=(class v8::StackFrame &&))
      129    ??4StackFrame@v8@@QEAAAEAV01@AEBV01@@Z (public: class v8::StackFrame & __cdecl v8::StackFrame::operator=(class v8::StackFrame const &))
      130    ??4StackTrace@v8@@QEAAAEAV01@$$QEAV01@@Z (public: class v8::StackTrace & __cdecl v8::StackTrace::operator=(class v8::StackTrace &&))
      131    ??4StackTrace@v8@@QEAAAEAV01@AEBV01@@Z (public: class v8::StackTrace & __cdecl v8::StackTrace::operator=(class v8::StackTrace const &))
      132    ??4StartupData@v8@@QEAAAEAV01@$$QEAV01@@Z (public: class v8::StartupData & __cdecl v8::StartupData::operator=(class v8::StartupData &&))
      133    ??4StartupData@v8@@QEAAAEAV01@AEBV01@@Z (public: class v8::StartupData & __cdecl v8::StartupData::operator=(class v8::StartupData const &))
      134    ??4String@v8@@QEAAAEAV01@$$QEAV01@@Z (public: class v8::String & __cdecl v8::String::operator=(class v8::String &&))
      135    ??4String@v8@@QEAAAEAV01@AEBV01@@Z (public: class v8::String & __cdecl v8::String::operator=(class v8::String const &))
      136    ??4StringObject@v8@@QEAAAEAV01@$$QEAV01@@Z (public: class v8::StringObject & __cdecl v8::StringObject::operator=(class v8::StringObject &&))
      137    ??4StringObject@v8@@QEAAAEAV01@AEBV01@@Z (public: class v8::StringObject & __cdecl v8::StringObject::operator=(class v8::StringObject const &))
      138    ??4Symbol@v8@@QEAAAEAV01@$$QEAV01@@Z (public: class v8::Symbol & __cdecl v8::Symbol::operator=(class v8::Symbol &&))
      139    ??4Symbol@v8@@QEAAAEAV01@AEBV01@@Z (public: class v8::Symbol & __cdecl v8::Symbol::operator=(class v8::Symbol const &))
      140    ??4SymbolObject@v8@@QEAAAEAV01@$$QEAV01@@Z (public: class v8::SymbolObject & __cdecl v8::SymbolObject::operator=(class v8::SymbolObject &&))
      141    ??4SymbolObject@v8@@QEAAAEAV01@AEBV01@@Z (public: class v8::SymbolObject & __cdecl v8::SymbolObject::operator=(class v8::SymbolObject const &))
      142    ??4Template@v8@@QEAAAEAV01@$$QEAV01@@Z (public: class v8::Template & __cdecl v8::Template::operator=(class v8::Template &&))
      143    ??4Template@v8@@QEAAAEAV01@AEBV01@@Z (public: class v8::Template & __cdecl v8::Template::operator=(class v8::Template const &))
      144    ??4TypeSwitch@v8@@QEAAAEAV01@$$QEAV01@@Z (public: class v8::TypeSwitch & __cdecl v8::TypeSwitch::operator=(class v8::TypeSwitch &&))
      145    ??4TypeSwitch@v8@@QEAAAEAV01@AEBV01@@Z (public: class v8::TypeSwitch & __cdecl v8::TypeSwitch::operator=(class v8::TypeSwitch const &))
      146    ??4TypedArray@v8@@QEAAAEAV01@$$QEAV01@@Z (public: class v8::TypedArray & __cdecl v8::TypedArray::operator=(class v8::TypedArray &&))
      147    ??4TypedArray@v8@@QEAAAEAV01@AEBV01@@Z (public: class v8::TypedArray & __cdecl v8::TypedArray::operator=(class v8::TypedArray const &))
      148    ??4Uint16Array@v8@@QEAAAEAV01@$$QEAV01@@Z (public: class v8::Uint16Array & __cdecl v8::Uint16Array::operator=(class v8::Uint16Array &&))
      149    ??4Uint16Array@v8@@QEAAAEAV01@AEBV01@@Z (public: class v8::Uint16Array & __cdecl v8::Uint16Array::operator=(class v8::Uint16Array const &))
      150    ??4Uint32@v8@@QEAAAEAV01@$$QEAV01@@Z (public: class v8::Uint32 & __cdecl v8::Uint32::operator=(class v8::Uint32 &&))
      151    ??4Uint32@v8@@QEAAAEAV01@AEBV01@@Z (public: class v8::Uint32 & __cdecl v8::Uint32::operator=(class v8::Uint32 const &))
      152    ??4Uint32Array@v8@@QEAAAEAV01@$$QEAV01@@Z (public: class v8::Uint32Array & __cdecl v8::Uint32Array::operator=(class v8::Uint32Array &&))
      153    ??4Uint32Array@v8@@QEAAAEAV01@AEBV01@@Z (public: class v8::Uint32Array & __cdecl v8::Uint32Array::operator=(class v8::Uint32Array const &))
      154    ??4Uint8Array@v8@@QEAAAEAV01@$$QEAV01@@Z (public: class v8::Uint8Array & __cdecl v8::Uint8Array::operator=(class v8::Uint8Array &&))
      155    ??4Uint8Array@v8@@QEAAAEAV01@AEBV01@@Z (public: class v8::Uint8Array & __cdecl v8::Uint8Array::operator=(class v8::Uint8Array const &))
      156    ??4Uint8ClampedArray@v8@@QEAAAEAV01@$$QEAV01@@Z (public: class v8::Uint8ClampedArray & __cdecl v8::Uint8ClampedArray::operator=(class v8::Uint8ClampedArray &&))
      157    ??4Uint8ClampedArray@v8@@QEAAAEAV01@AEBV01@@Z (public: class v8::Uint8ClampedArray & __cdecl v8::Uint8ClampedArray::operator=(class v8::Uint8ClampedArray const &))
      158    ??4UnboundScript@v8@@QEAAAEAV01@$$QEAV01@@Z (public: class v8::UnboundScript & __cdecl v8::UnboundScript::operator=(class v8::UnboundScript &&))
      159    ??4UnboundScript@v8@@QEAAAEAV01@AEBV01@@Z (public: class v8::UnboundScript & __cdecl v8::UnboundScript::operator=(class v8::UnboundScript const &))
      160    ??4Unlocker@v8@@QEAAAEAV01@AEBV01@@Z (public: class v8::Unlocker & __cdecl v8::Unlocker::operator=(class v8::Unlocker const &))
      161    ??4V8@v8@@QEAAAEAV01@$$QEAV01@@Z (public: class v8::V8 & __cdecl v8::V8::operator=(class v8::V8 &&))
      162    ??4V8@v8@@QEAAAEAV01@AEBV01@@Z (public: class v8::V8 & __cdecl v8::V8::operator=(class v8::V8 const &))
      163    ??4Value@v8@@QEAAAEAV01@$$QEAV01@@Z (public: class v8::Value & __cdecl v8::Value::operator=(class v8::Value &&))
      164    ??4Value@v8@@QEAAAEAV01@AEBV01@@Z (public: class v8::Value & __cdecl v8::Value::operator=(class v8::Value const &))
      165    ??DUtf8Value@String@v8@@QEAAPEADXZ (public: char * __cdecl v8::String::Utf8Value::operator*(void))
      166    ??DUtf8Value@String@v8@@QEBAPEBDXZ (public: char const * __cdecl v8::String::Utf8Value::operator*(void)const )
      167    ??DValue@String@v8@@QEAAPEAGXZ (public: unsigned short * __cdecl v8::String::Value::operator*(void))
      168    ??DValue@String@v8@@QEBAPEBGXZ (public: unsigned short const * __cdecl v8::String::Value::operator*(void)const )
      169    ??_7Allocator@ArrayBuffer@v8@@6B@ (const v8::ArrayBuffer::Allocator::`vftable')
      170    ??_7Extension@v8@@6B@ (const v8::Extension::`vftable')
      171    ??_7ExternalOneByteStringResource@String@v8@@6B@ (const v8::String::ExternalOneByteStringResource::`vftable')
      172    ??_7ExternalOneByteStringResourceImpl@v8@@6B@ (const v8::ExternalOneByteStringResourceImpl::`vftable')
      173    ??_7ExternalResourceVisitor@v8@@6B@ (const v8::ExternalResourceVisitor::`vftable')
      174    ??_7ExternalSourceStream@ScriptCompiler@v8@@6B@ (const v8::ScriptCompiler::ExternalSourceStream::`vftable')
      175    ??_7ExternalStringResource@String@v8@@6B@ (const v8::String::ExternalStringResource::`vftable')
      176    ??_7ExternalStringResourceBase@String@v8@@6B@ (const v8::String::ExternalStringResourceBase::`vftable')
      177    ??_7PersistentHandleVisitor@v8@@6B@ (const v8::PersistentHandleVisitor::`vftable')
      178    ?AddMemoryAllocationCallback@V8@v8@@SAXP6AXW4ObjectSpace@2@W4AllocationAction@2@H@Z01@Z (public: static void __cdecl v8::V8::AddMemoryAllocationCallback(void (__cdecl*)(enum v8::ObjectSpace,enum v8::AllocationAction,int),enum v8::ObjectSpace,enum v8::AllocationAction))
      179    ?AddMessageListener@V8@v8@@SA_NP6AXV?$Local@VMessage@v8@@@2@V?$Local@VValue@v8@@@2@@Z1@Z (public: static bool __cdecl v8::V8::AddMessageListener(void (__cdecl*)(class v8::Local<class v8::Message>,class v8::Local<class v8::Value>),class v8::Local<class v8::Value>))
      180    ?AdjustAmountOfExternalAllocatedMemory@Isolate@v8@@QEAA_J_J@Z (public: __int64 __cdecl v8::Isolate::AdjustAmountOfExternalAllocatedMemory(__int64))
      181    ?ByteLength@Contents@ArrayBuffer@v8@@QEBA_KXZ (public: unsigned __int64 __cdecl v8::ArrayBuffer::Contents::ByteLength(void)const )
      182    ?ByteLength@Contents@SharedArrayBuffer@v8@@QEBA_KXZ (public: unsigned __int64 __cdecl v8::SharedArrayBuffer::Contents::ByteLength(void)const )
      183    ?CancelTerminateExecution@V8@v8@@SAXPEAVIsolate@2@@Z (public: static void __cdecl v8::V8::CancelTerminateExecution(class v8::Isolate *))
      184    ?Cast@Array@v8@@SAPEAV12@PEAVValue@2@@Z (public: static class v8::Array * __cdecl v8::Array::Cast(class v8::Value *))
      185    ?Cast@ArrayBuffer@v8@@SAPEAV12@PEAVValue@2@@Z (public: static class v8::ArrayBuffer * __cdecl v8::ArrayBuffer::Cast(class v8::Value *))
      186    ?Cast@ArrayBufferView@v8@@SAPEAV12@PEAVValue@2@@Z (public: static class v8::ArrayBufferView * __cdecl v8::ArrayBufferView::Cast(class v8::Value *))
      187    ?Cast@Boolean@v8@@SAPEAV12@PEAVValue@2@@Z (public: static class v8::Boolean * __cdecl v8::Boolean::Cast(class v8::Value *))
      188    ?Cast@BooleanObject@v8@@SAPEAV12@PEAVValue@2@@Z (public: static class v8::BooleanObject * __cdecl v8::BooleanObject::Cast(class v8::Value *))
      189    ?Cast@DataView@v8@@SAPEAV12@PEAVValue@2@@Z (public: static class v8::DataView * __cdecl v8::DataView::Cast(class v8::Value *))
      190    ?Cast@Date@v8@@SAPEAV12@PEAVValue@2@@Z (public: static class v8::Date * __cdecl v8::Date::Cast(class v8::Value *))
      191    ?Cast@External@v8@@SAPEAV12@PEAVValue@2@@Z (public: static class v8::External * __cdecl v8::External::Cast(class v8::Value *))
      192    ?Cast@Float32Array@v8@@SAPEAV12@PEAVValue@2@@Z (public: static class v8::Float32Array * __cdecl v8::Float32Array::Cast(class v8::Value *))
      193    ?Cast@Float64Array@v8@@SAPEAV12@PEAVValue@2@@Z (public: static class v8::Float64Array * __cdecl v8::Float64Array::Cast(class v8::Value *))
      194    ?Cast@Function@v8@@SAPEAV12@PEAVValue@2@@Z (public: static class v8::Function * __cdecl v8::Function::Cast(class v8::Value *))
      195    ?Cast@Int16Array@v8@@SAPEAV12@PEAVValue@2@@Z (public: static class v8::Int16Array * __cdecl v8::Int16Array::Cast(class v8::Value *))
      196    ?Cast@Int32@v8@@SAPEAV12@PEAVValue@2@@Z (public: static class v8::Int32 * __cdecl v8::Int32::Cast(class v8::Value *))
      197    ?Cast@Int32Array@v8@@SAPEAV12@PEAVValue@2@@Z (public: static class v8::Int32Array * __cdecl v8::Int32Array::Cast(class v8::Value *))
      198    ?Cast@Int8Array@v8@@SAPEAV12@PEAVValue@2@@Z (public: static class v8::Int8Array * __cdecl v8::Int8Array::Cast(class v8::Value *))
      199    ?Cast@Integer@v8@@SAPEAV12@PEAVValue@2@@Z (public: static class v8::Integer * __cdecl v8::Integer::Cast(class v8::Value *))
      200    ?Cast@Map@v8@@SAPEAV12@PEAVValue@2@@Z (public: static class v8::Map * __cdecl v8::Map::Cast(class v8::Value *))
      201    ?Cast@Name@v8@@SAPEAV12@PEAVValue@2@@Z (public: static class v8::Name * __cdecl v8::Name::Cast(class v8::Value *))
      202    ?Cast@Number@v8@@SAPEAV12@PEAVValue@2@@Z (public: static class v8::Number * __cdecl v8::Number::Cast(class v8::Value *))
      203    ?Cast@NumberObject@v8@@SAPEAV12@PEAVValue@2@@Z (public: static class v8::NumberObject * __cdecl v8::NumberObject::Cast(class v8::Value *))
      204    ?Cast@Object@v8@@SAPEAV12@PEAVValue@2@@Z (public: static class v8::Object * __cdecl v8::Object::Cast(class v8::Value *))
      205    ?Cast@Promise@v8@@SAPEAV12@PEAVValue@2@@Z (public: static class v8::Promise * __cdecl v8::Promise::Cast(class v8::Value *))
      206    ?Cast@RegExp@v8@@SAPEAV12@PEAVValue@2@@Z (public: static class v8::RegExp * __cdecl v8::RegExp::Cast(class v8::Value *))
      207    ?Cast@Resolver@Promise@v8@@SAPEAV123@PEAVValue@3@@Z (public: static class v8::Promise::Resolver * __cdecl v8::Promise::Resolver::Cast(class v8::Value *))
      208    ?Cast@Set@v8@@SAPEAV12@PEAVValue@2@@Z (public: static class v8::Set * __cdecl v8::Set::Cast(class v8::Value *))
      209    ?Cast@SharedArrayBuffer@v8@@SAPEAV12@PEAVValue@2@@Z (public: static class v8::SharedArrayBuffer * __cdecl v8::SharedArrayBuffer::Cast(class v8::Value *))
      210    ?Cast@String@v8@@SAPEAV12@PEAVValue@2@@Z (public: static class v8::String * __cdecl v8::String::Cast(class v8::Value *))
      211    ?Cast@StringObject@v8@@SAPEAV12@PEAVValue@2@@Z (public: static class v8::StringObject * __cdecl v8::StringObject::Cast(class v8::Value *))
      212    ?Cast@Symbol@v8@@SAPEAV12@PEAVValue@2@@Z (public: static class v8::Symbol * __cdecl v8::Symbol::Cast(class v8::Value *))
      213    ?Cast@SymbolObject@v8@@SAPEAV12@PEAVValue@2@@Z (public: static class v8::SymbolObject * __cdecl v8::SymbolObject::Cast(class v8::Value *))
      214    ?Cast@TypedArray@v8@@SAPEAV12@PEAVValue@2@@Z (public: static class v8::TypedArray * __cdecl v8::TypedArray::Cast(class v8::Value *))
      215    ?Cast@Uint16Array@v8@@SAPEAV12@PEAVValue@2@@Z (public: static class v8::Uint16Array * __cdecl v8::Uint16Array::Cast(class v8::Value *))
      216    ?Cast@Uint32@v8@@SAPEAV12@PEAVValue@2@@Z (public: static class v8::Uint32 * __cdecl v8::Uint32::Cast(class v8::Value *))
      217    ?Cast@Uint32Array@v8@@SAPEAV12@PEAVValue@2@@Z (public: static class v8::Uint32Array * __cdecl v8::Uint32Array::Cast(class v8::Value *))
      218    ?Cast@Uint8Array@v8@@SAPEAV12@PEAVValue@2@@Z (public: static class v8::Uint8Array * __cdecl v8::Uint8Array::Cast(class v8::Value *))
      219    ?Cast@Uint8ClampedArray@v8@@SAPEAV12@PEAVValue@2@@Z (public: static class v8::Uint8ClampedArray * __cdecl v8::Uint8ClampedArray::Cast(class v8::Value *))
      220    ?Data@Contents@ArrayBuffer@v8@@QEBAPEAXXZ (public: void * __cdecl v8::ArrayBuffer::Contents::Data(void)const )
      221    ?Data@Contents@SharedArrayBuffer@v8@@QEBAPEAXXZ (public: void * __cdecl v8::SharedArrayBuffer::Contents::Data(void)const )
      222    ?Dispose@ExternalStringResourceBase@String@v8@@MEAAXXZ (protected: virtual void __cdecl v8::String::ExternalStringResourceBase::Dispose(void))
      223    ?Empty@String@v8@@SA?AV?$Local@VString@v8@@@2@PEAVIsolate@2@@Z (public: static class v8::Local<class v8::String> __cdecl v8::String::Empty(class v8::Isolate *))
      224    ?GetAlignedPointerFromEmbedderData@Context@v8@@QEAAPEAXH@Z (public: void * __cdecl v8::Context::GetAlignedPointerFromEmbedderData(int))
      225    ?GetAlignedPointerFromInternalField@Object@v8@@QEAAPEAXH@Z (public: void * __cdecl v8::Object::GetAlignedPointerFromInternalField(int))
      226    ?GetAlignedPointerFromInternalField@Object@v8@@SAPEAXAEBV?$PersistentBase@VObject@v8@@@2@H@Z (public: static void * __cdecl v8::Object::GetAlignedPointerFromInternalField(class v8::PersistentBase<class v8::Object> const &,int))
      227    ?GetData@Isolate@v8@@QEAAPEAXI@Z (public: void * __cdecl v8::Isolate::GetData(unsigned int))
      228    ?GetEmbedderData@Context@v8@@QEAA?AV?$Local@VValue@v8@@@2@H@Z (public: class v8::Local<class v8::Value> __cdecl v8::Context::GetEmbedderData(int))
      229    ?GetExternalStringResource@String@v8@@QEBAPEAVExternalStringResource@12@XZ (public: class v8::String::ExternalStringResource * __cdecl v8::String::GetExternalStringResource(void)const )
      230    ?GetExternalStringResourceBase@String@v8@@QEBAPEAVExternalStringResourceBase@12@PEAW4Encoding@12@@Z (public: class v8::String::ExternalStringResourceBase * __cdecl v8::String::GetExternalStringResourceBase(enum v8::String::Encoding *)const )
      231    ?GetInternalField@Object@v8@@QEAA?AV?$Local@VValue@v8@@@2@H@Z (public: class v8::Local<class v8::Value> __cdecl v8::Object::GetInternalField(int))
      232    ?GetIsolate@HandleScope@v8@@QEBAPEAVIsolate@2@XZ (public: class v8::Isolate * __cdecl v8::HandleScope::GetIsolate(void)const )
      233    ?GetNativeFunctionTemplate@Extension@v8@@UEAA?AV?$Local@VFunctionTemplate@v8@@@2@PEAVIsolate@2@V?$Local@VString@v8@@@2@@Z (public: virtual class v8::Local<class v8::FunctionTemplate> __cdecl v8::Extension::GetNativeFunctionTemplate(class v8::Isolate *,class v8::Local<class v8::String>))
      234    ?GetNumberOfDataSlots@Isolate@v8@@SAIXZ (public: static unsigned int __cdecl v8::Isolate::GetNumberOfDataSlots(void))
      235    ?InternalFieldCount@Object@v8@@SAHAEBV?$PersistentBase@VObject@v8@@@2@@Z (public: static int __cdecl v8::Object::InternalFieldCount(class v8::PersistentBase<class v8::Object> const &))
      236    ?IsDead@V8@v8@@SA_NXZ (public: static bool __cdecl v8::V8::IsDead(void))
      237    ?IsExecutionTerminating@V8@v8@@SA_NPEAVIsolate@2@@Z (public: static bool __cdecl v8::V8::IsExecutionTerminating(class v8::Isolate *))
      238    ?IsNull@Value@v8@@QEBA_NXZ (public: bool __cdecl v8::Value::IsNull(void)const )
      239    ?IsString@Value@v8@@QEBA_NXZ (public: bool __cdecl v8::Value::IsString(void)const )
      240    ?IsUndefined@Value@v8@@QEBA_NXZ (public: bool __cdecl v8::Value::IsUndefined(void)const )
      241    ?JSStackComparableAddress@TryCatch@v8@@SAPEAXPEAV12@@Z (public: static void * __cdecl v8::TryCatch::JSStackComparableAddress(class v8::TryCatch *))
      242    ?New@Boolean@v8@@SA?AV?$Local@VBoolean@v8@@@2@PEAVIsolate@2@_N@Z (public: static class v8::Local<class v8::Boolean> __cdecl v8::Boolean::New(class v8::Isolate *,bool))
      243    ?NewInstance@Function@v8@@QEBA?AV?$MaybeLocal@VObject@v8@@@2@V?$Local@VContext@v8@@@2@@Z (public: class v8::MaybeLocal<class v8::Object> __cdecl v8::Function::NewInstance(class v8::Local<class v8::Context>)const )
      244    ?QuickIsNull@Value@v8@@AEBA_NXZ (private: bool __cdecl v8::Value::QuickIsNull(void)const )
      245    ?QuickIsString@Value@v8@@AEBA_NXZ (private: bool __cdecl v8::Value::QuickIsString(void)const )
      246    ?QuickIsUndefined@Value@v8@@AEBA_NXZ (private: bool __cdecl v8::Value::QuickIsUndefined(void)const )
      247    ?RemoveGCEpilogueCallback@V8@v8@@SAXP6AXW4GCType@2@W4GCCallbackFlags@2@@Z@Z (public: static void __cdecl v8::V8::RemoveGCEpilogueCallback(void (__cdecl*)(enum v8::GCType,enum v8::GCCallbackFlags)))
      248    ?RemoveGCPrologueCallback@V8@v8@@SAXP6AXW4GCType@2@W4GCCallbackFlags@2@@Z@Z (public: static void __cdecl v8::V8::RemoveGCPrologueCallback(void (__cdecl*)(enum v8::GCType,enum v8::GCCallbackFlags)))
      249    ?RemoveMemoryAllocationCallback@V8@v8@@SAXP6AXW4ObjectSpace@2@W4AllocationAction@2@H@Z@Z (public: static void __cdecl v8::V8::RemoveMemoryAllocationCallback(void (__cdecl*)(enum v8::ObjectSpace,enum v8::AllocationAction,int)))
      250    ?RemoveMessageListeners@V8@v8@@SAXP6AXV?$Local@VMessage@v8@@@2@V?$Local@VValue@v8@@@2@@Z@Z (public: static void __cdecl v8::V8::RemoveMessageListeners(void (__cdecl*)(class v8::Local<class v8::Message>,class v8::Local<class v8::Value>)))
      251    ?Set@Template@v8@@QEAAXPEAVIsolate@2@PEBDV?$Local@VData@v8@@@2@@Z (public: void __cdecl v8::Template::Set(class v8::Isolate *,char const *,class v8::Local<class v8::Data>))
      252    ?SetAllowCodeGenerationFromStringsCallback@V8@v8@@SAXP6A_NV?$Local@VContext@v8@@@2@@Z@Z (public: static void __cdecl v8::V8::SetAllowCodeGenerationFromStringsCallback(bool (__cdecl*)(class v8::Local<class v8::Context>)))
      253    ?SetCaptureStackTraceForUncaughtExceptions@V8@v8@@SAX_NHW4StackTraceOptions@StackTrace@2@@Z (public: static void __cdecl v8::V8::SetCaptureStackTraceForUncaughtExceptions(bool,int,enum v8::StackTrace::StackTraceOptions))
      254    ?SetData@Isolate@v8@@QEAAXIPEAX@Z (public: void __cdecl v8::Isolate::SetData(unsigned int,void *))
      255    ?SetFailedAccessCheckCallbackFunction@V8@v8@@SAXP6AXV?$Local@VObject@v8@@@2@W4AccessType@2@V?$Local@VValue@v8@@@2@@Z@Z (public: static void __cdecl v8::V8::SetFailedAccessCheckCallbackFunction(void (__cdecl*)(class v8::Local<class v8::Object>,enum v8::AccessType,class v8::Local<class v8::Value>)))
      256    ?SetFatalErrorHandler@V8@v8@@SAXP6AXPEBD0@Z@Z (public: static void __cdecl v8::V8::SetFatalErrorHandler(void (__cdecl*)(char const *,char const *)))
      257    ?SetIndexedPropertyHandler@ObjectTemplate@v8@@QEAAXP6AXIAEBV?$PropertyCallbackInfo@VValue@v8@@@2@@ZP6AXIV?$Local@VValue@v8@@@2@0@ZP6AXIAEBV?$PropertyCallbackInfo@VInteger@v8@@@2@@ZP6AXIAEBV?$PropertyCallbackInfo@VBoolean@v8@@@2@@ZP6AXAEBV?$PropertyCallbackInfo@VArray@v8@@@2@@Z2@Z (public: void __cdecl v8::ObjectTemplate::SetIndexedPropertyHandler(void (__cdecl*)(unsigned int,class v8::PropertyCallbackInfo<class v8::Value> const &),void (__cdecl*)(unsigned int,class v8::Local<class v8::Value>,class v8::PropertyCallbackInfo<class v8::Value> const &),void (__cdecl*)(unsigned int,class v8::PropertyCallbackInfo<class v8::Integer> const &),void (__cdecl*)(unsigned int,class v8::PropertyCallbackInfo<class v8::Boolean> const &),void (__cdecl*)(class v8::PropertyCallbackInfo<class v8::Array> const &),class v8::Local<class v8::Value>))
      258    ?TerminateExecution@V8@v8@@SAXPEAVIsolate@2@@Z (public: static void __cdecl v8::V8::TerminateExecution(class v8::Isolate *))
      259    ?ToBoolean@Value@v8@@QEBA?AV?$Local@VBoolean@v8@@@2@XZ (public: class v8::Local<class v8::Boolean> __cdecl v8::Value::ToBoolean(void)const )
      260    ?ToDetailString@Value@v8@@QEBA?AV?$Local@VString@v8@@@2@XZ (public: class v8::Local<class v8::String> __cdecl v8::Value::ToDetailString(void)const )
      261    ?ToInt32@Value@v8@@QEBA?AV?$Local@VInt32@v8@@@2@XZ (public: class v8::Local<class v8::Int32> __cdecl v8::Value::ToInt32(void)const )
      262    ?ToInteger@Value@v8@@QEBA?AV?$Local@VInteger@v8@@@2@XZ (public: class v8::Local<class v8::Integer> __cdecl v8::Value::ToInteger(void)const )
      263    ?ToNumber@Value@v8@@QEBA?AV?$Local@VNumber@v8@@@2@XZ (public: class v8::Local<class v8::Number> __cdecl v8::Value::ToNumber(void)const )
      264    ?ToObject@Value@v8@@QEBA?AV?$Local@VObject@v8@@@2@XZ (public: class v8::Local<class v8::Object> __cdecl v8::Value::ToObject(void)const )
      265    ?ToString@Value@v8@@QEBA?AV?$Local@VString@v8@@@2@XZ (public: class v8::Local<class v8::String> __cdecl v8::Value::ToString(void)const )
      266    ?ToUint32@Value@v8@@QEBA?AV?$Local@VUint32@v8@@@2@XZ (public: class v8::Local<class v8::Uint32> __cdecl v8::Value::ToUint32(void)const )
      267    ?VisitExternalResources@V8@v8@@SAXPEAVExternalResourceVisitor@2@@Z (public: static void __cdecl v8::V8::VisitExternalResources(class v8::ExternalResourceVisitor *))
      268    ?VisitExternalString@ExternalResourceVisitor@v8@@UEAAXV?$Local@VString@v8@@@2@@Z (public: virtual void __cdecl v8::ExternalResourceVisitor::VisitExternalString(class v8::Local<class v8::String>))
      269    ?VisitHandlesForPartialDependence@V8@v8@@SAXPEAVIsolate@2@PEAVPersistentHandleVisitor@2@@Z (public: static void __cdecl v8::V8::VisitHandlesForPartialDependence(class v8::Isolate *,class v8::PersistentHandleVisitor *))
      270    ?VisitHandlesWithClassIds@V8@v8@@SAXPEAVIsolate@2@PEAVPersistentHandleVisitor@2@@Z (public: static void __cdecl v8::V8::VisitHandlesWithClassIds(class v8::Isolate *,class v8::PersistentHandleVisitor *))
      271    ?VisitHandlesWithClassIds@V8@v8@@SAXPEAVPersistentHandleVisitor@2@@Z (public: static void __cdecl v8::V8::VisitHandlesWithClassIds(class v8::PersistentHandleVisitor *))
      272    ?VisitPersistentHandle@PersistentHandleVisitor@v8@@UEAAXPEAV?$Persistent@VValue@v8@@V?$NonCopyablePersistentTraits@VValue@v8@@@2@@2@G@Z (public: virtual void __cdecl v8::PersistentHandleVisitor::VisitPersistentHandle(class v8::Persistent<class v8::Value,class v8::NonCopyablePersistentTraits<class v8::Value> > *,unsigned short))
      273    ?auto_enable@Extension@v8@@QEAA_NXZ (public: bool __cdecl v8::Extension::auto_enable(void))
      274    ?begin@ExtensionConfiguration@v8@@QEBAPEAPEBDXZ (public: char const * * __cdecl v8::ExtensionConfiguration::begin(void)const )
      275    ?code_range_size@ResourceConstraints@v8@@QEBA_KXZ (public: unsigned __int64 __cdecl v8::ResourceConstraints::code_range_size(void)const )
      276    ?data@ExternalOneByteStringResourceImpl@v8@@UEBAPEBDXZ (public: virtual char const * __cdecl v8::ExternalOneByteStringResourceImpl::data(void)const )
      277    ?dependencies@Extension@v8@@QEAAPEAPEBDXZ (public: char const * * __cdecl v8::Extension::dependencies(void))
      278    ?dependency_count@Extension@v8@@QEAAHXZ (public: int __cdecl v8::Extension::dependency_count(void))
      279    ?end@ExtensionConfiguration@v8@@QEBAPEAPEBDXZ (public: char const * * __cdecl v8::ExtensionConfiguration::end(void)const )
      280    ?heap_size_limit@HeapStatistics@v8@@QEAA_KXZ (public: unsigned __int64 __cdecl v8::HeapStatistics::heap_size_limit(void))
      281    ?impl@StreamedSource@ScriptCompiler@v8@@QEBAPEAU1internal@3@XZ (public: struct v8::internal::StreamedSource * __cdecl v8::ScriptCompiler::StreamedSource::impl(void)const )
      282    ?length@ExternalOneByteStringResourceImpl@v8@@UEBA_KXZ (public: virtual unsigned __int64 __cdecl v8::ExternalOneByteStringResourceImpl::length(void)const )
      283    ?length@Utf8Value@String@v8@@QEBAHXZ (public: int __cdecl v8::String::Utf8Value::length(void)const )
      284    ?length@Value@String@v8@@QEBAHXZ (public: int __cdecl v8::String::Value::length(void)const )
      285    ?max_executable_size@ResourceConstraints@v8@@QEBAHXZ (public: int __cdecl v8::ResourceConstraints::max_executable_size(void)const )
      286    ?max_old_space_size@ResourceConstraints@v8@@QEBAHXZ (public: int __cdecl v8::ResourceConstraints::max_old_space_size(void)const )
      287    ?max_semi_space_size@ResourceConstraints@v8@@QEBAHXZ (public: int __cdecl v8::ResourceConstraints::max_semi_space_size(void)const )
      288    ?name@Extension@v8@@QEBAPEBDXZ (public: char const * __cdecl v8::Extension::name(void)const )
      289    ?object_count@HeapObjectStatistics@v8@@QEAA_KXZ (public: unsigned __int64 __cdecl v8::HeapObjectStatistics::object_count(void))
      290    ?object_size@HeapObjectStatistics@v8@@QEAA_KXZ (public: unsigned __int64 __cdecl v8::HeapObjectStatistics::object_size(void))
      291    ?object_sub_type@HeapObjectStatistics@v8@@QEAAPEBDXZ (public: char const * __cdecl v8::HeapObjectStatistics::object_sub_type(void))
      292    ?object_type@HeapObjectStatistics@v8@@QEAAPEBDXZ (public: char const * __cdecl v8::HeapObjectStatistics::object_type(void))
      293    ?physical_space_size@HeapSpaceStatistics@v8@@QEAA_KXZ (public: unsigned __int64 __cdecl v8::HeapSpaceStatistics::physical_space_size(void))
      294    ?set_auto_enable@Extension@v8@@QEAAX_N@Z (public: void __cdecl v8::Extension::set_auto_enable(bool))
      295    ?set_code_range_size@ResourceConstraints@v8@@QEAAX_K@Z (public: void __cdecl v8::ResourceConstraints::set_code_range_size(unsigned __int64))
      296    ?set_max_executable_size@ResourceConstraints@v8@@QEAAXH@Z (public: void __cdecl v8::ResourceConstraints::set_max_executable_size(int))
      297    ?set_max_old_space_size@ResourceConstraints@v8@@QEAAXH@Z (public: void __cdecl v8::ResourceConstraints::set_max_old_space_size(int))
      298    ?set_max_semi_space_size@ResourceConstraints@v8@@QEAAXH@Z (public: void __cdecl v8::ResourceConstraints::set_max_semi_space_size(int))
      299    ?set_stack_limit@ResourceConstraints@v8@@QEAAXPEAI@Z (public: void __cdecl v8::ResourceConstraints::set_stack_limit(unsigned int *))
      300    ?source@Extension@v8@@QEBAPEBVExternalOneByteStringResource@String@2@XZ (public: class v8::String::ExternalOneByteStringResource const * __cdecl v8::Extension::source(void)const )
      301    ?source_length@Extension@v8@@QEBA_KXZ (public: unsigned __int64 __cdecl v8::Extension::source_length(void)const )
      302    ?space_available_size@HeapSpaceStatistics@v8@@QEAA_KXZ (public: unsigned __int64 __cdecl v8::HeapSpaceStatistics::space_available_size(void))
      303    ?space_name@HeapSpaceStatistics@v8@@QEAAPEBDXZ (public: char const * __cdecl v8::HeapSpaceStatistics::space_name(void))
      304    ?space_size@HeapSpaceStatistics@v8@@QEAA_KXZ (public: unsigned __int64 __cdecl v8::HeapSpaceStatistics::space_size(void))
      305    ?space_used_size@HeapSpaceStatistics@v8@@QEAA_KXZ (public: unsigned __int64 __cdecl v8::HeapSpaceStatistics::space_used_size(void))
      306    ?stack_limit@ResourceConstraints@v8@@QEBAPEAIXZ (public: unsigned int * __cdecl v8::ResourceConstraints::stack_limit(void)const )
      307    ?total_available_size@HeapStatistics@v8@@QEAA_KXZ (public: unsigned __int64 __cdecl v8::HeapStatistics::total_available_size(void))
      308    ?total_heap_size@HeapStatistics@v8@@QEAA_KXZ (public: unsigned __int64 __cdecl v8::HeapStatistics::total_heap_size(void))
      309    ?total_heap_size_executable@HeapStatistics@v8@@QEAA_KXZ (public: unsigned __int64 __cdecl v8::HeapStatistics::total_heap_size_executable(void))
      310    ?total_physical_size@HeapStatistics@v8@@QEAA_KXZ (public: unsigned __int64 __cdecl v8::HeapStatistics::total_physical_size(void))
      311    ?used_heap_size@HeapStatistics@v8@@QEAA_KXZ (public: unsigned __int64 __cdecl v8::HeapStatistics::used_heap_size(void))
      312    _register_zmq_
